
./menu:     file format elf32-littleriscv


Disassembly of section .text:

830000b4 <_ZL9set_i_maxv>:
830000b4:	ff010113          	addi	sp,sp,-16
830000b8:	00112623          	sw	ra,12(sp)
830000bc:	00010597          	auipc	a1,0x10
830000c0:	9dc5a583          	lw	a1,-1572(a1) # 8300fa98 <_ZL4page>
830000c4:	00100793          	li	a5,1
830000c8:	02f58a63          	beq	a1,a5,830000fc <_ZL9set_i_maxv+0x48>
830000cc:	00900793          	li	a5,9
830000d0:	00010717          	auipc	a4,0x10
830000d4:	9cf72223          	sw	a5,-1596(a4) # 8300fa94 <_ZL5i_max>
830000d8:	00000693          	li	a3,0
830000dc:	00100613          	li	a2,1
830000e0:	0000d517          	auipc	a0,0xd
830000e4:	b3450513          	addi	a0,a0,-1228 # 8300cc14 <__call_exitprocs+0x130>
830000e8:	00003097          	auipc	ra,0x3
830000ec:	d9c080e7          	jalr	-612(ra) # 83002e84 <printf>
830000f0:	00c12083          	lw	ra,12(sp)
830000f4:	01010113          	addi	sp,sp,16
830000f8:	00008067          	ret
830000fc:	00000793          	li	a5,0
83000100:	fd1ff06f          	j	830000d0 <_ZL9set_i_maxv+0x1c>

83000104 <_ZL4prevv>:
83000104:	00010797          	auipc	a5,0x10
83000108:	9947a783          	lw	a5,-1644(a5) # 8300fa98 <_ZL4page>
8300010c:	00f04463          	bgtz	a5,83000114 <_ZL4prevv+0x10>
83000110:	00008067          	ret
83000114:	ff010113          	addi	sp,sp,-16
83000118:	00112623          	sw	ra,12(sp)
8300011c:	fff78793          	addi	a5,a5,-1
83000120:	00010717          	auipc	a4,0x10
83000124:	96f72c23          	sw	a5,-1672(a4) # 8300fa98 <_ZL4page>
83000128:	00000097          	auipc	ra,0x0
8300012c:	f8c080e7          	jalr	-116(ra) # 830000b4 <_ZL9set_i_maxv>
83000130:	00c12083          	lw	ra,12(sp)
83000134:	01010113          	addi	sp,sp,16
83000138:	00008067          	ret

8300013c <_ZL4nextv>:
8300013c:	00010797          	auipc	a5,0x10
83000140:	95c7a783          	lw	a5,-1700(a5) # 8300fa98 <_ZL4page>
83000144:	00078463          	beqz	a5,8300014c <_ZL4nextv+0x10>
83000148:	00008067          	ret
8300014c:	ff010113          	addi	sp,sp,-16
83000150:	00112623          	sw	ra,12(sp)
83000154:	00178793          	addi	a5,a5,1
83000158:	00010717          	auipc	a4,0x10
8300015c:	94f72023          	sw	a5,-1728(a4) # 8300fa98 <_ZL4page>
83000160:	00000097          	auipc	ra,0x0
83000164:	f54080e7          	jalr	-172(ra) # 830000b4 <_ZL9set_i_maxv>
83000168:	00c12083          	lw	ra,12(sp)
8300016c:	01010113          	addi	sp,sp,16
83000170:	00008067          	ret

83000174 <_ZL7draw_chP8BDF_Fontiicjj>:
83000174:	fe010113          	addi	sp,sp,-32
83000178:	00112e23          	sw	ra,28(sp)
8300017c:	00812c23          	sw	s0,24(sp)
83000180:	00912a23          	sw	s1,20(sp)
83000184:	01212823          	sw	s2,16(sp)
83000188:	00058913          	mv	s2,a1
8300018c:	00060493          	mv	s1,a2
83000190:	00068593          	mv	a1,a3
83000194:	00078693          	mv	a3,a5
83000198:	00070613          	mv	a2,a4
8300019c:	00000097          	auipc	ra,0x0
830001a0:	5c4080e7          	jalr	1476(ra) # 83000760 <_Z17BDF_CreateSurfaceP8BDF_Fontcjj>
830001a4:	00050413          	mv	s0,a0
830001a8:	00012423          	sw	zero,8(sp)
830001ac:	00012623          	sw	zero,12(sp)
830001b0:	01211423          	sh	s2,8(sp)
830001b4:	00911523          	sh	s1,10(sp)
830001b8:	00810693          	addi	a3,sp,8
830001bc:	00010617          	auipc	a2,0x10
830001c0:	8e462603          	lw	a2,-1820(a2) # 8300faa0 <_ZL6screen>
830001c4:	00000593          	li	a1,0
830001c8:	0000b097          	auipc	ra,0xb
830001cc:	0cc080e7          	jalr	204(ra) # 8300b294 <SDL_BlitSurface>
830001d0:	00040513          	mv	a0,s0
830001d4:	0000c097          	auipc	ra,0xc
830001d8:	8ec080e7          	jalr	-1812(ra) # 8300bac0 <SDL_FreeSurface>
830001dc:	01c12083          	lw	ra,28(sp)
830001e0:	01812403          	lw	s0,24(sp)
830001e4:	01412483          	lw	s1,20(sp)
830001e8:	01012903          	lw	s2,16(sp)
830001ec:	02010113          	addi	sp,sp,32
830001f0:	00008067          	ret

830001f4 <_ZL8draw_strP8BDF_FontiiPcjj>:
830001f4:	fe010113          	addi	sp,sp,-32
830001f8:	00112e23          	sw	ra,28(sp)
830001fc:	00812c23          	sw	s0,24(sp)
83000200:	00912a23          	sw	s1,20(sp)
83000204:	01212823          	sw	s2,16(sp)
83000208:	01312623          	sw	s3,12(sp)
8300020c:	01412423          	sw	s4,8(sp)
83000210:	01512223          	sw	s5,4(sp)
83000214:	00050913          	mv	s2,a0
83000218:	00058493          	mv	s1,a1
8300021c:	00060a93          	mv	s5,a2
83000220:	00068413          	mv	s0,a3
83000224:	00070a13          	mv	s4,a4
83000228:	00078993          	mv	s3,a5
8300022c:	02c0006f          	j	83000258 <_ZL8draw_strP8BDF_FontiiPcjj+0x64>
83000230:	00098793          	mv	a5,s3
83000234:	000a0713          	mv	a4,s4
83000238:	000a8613          	mv	a2,s5
8300023c:	00048593          	mv	a1,s1
83000240:	00090513          	mv	a0,s2
83000244:	00000097          	auipc	ra,0x0
83000248:	f30080e7          	jalr	-208(ra) # 83000174 <_ZL7draw_chP8BDF_Fontiicjj>
8300024c:	00c92683          	lw	a3,12(s2)
83000250:	00d484b3          	add	s1,s1,a3
83000254:	00140413          	addi	s0,s0,1
83000258:	00044683          	lbu	a3,0(s0)
8300025c:	fc069ae3          	bnez	a3,83000230 <_ZL8draw_strP8BDF_FontiiPcjj+0x3c>
83000260:	01c12083          	lw	ra,28(sp)
83000264:	01812403          	lw	s0,24(sp)
83000268:	01412483          	lw	s1,20(sp)
8300026c:	01012903          	lw	s2,16(sp)
83000270:	00c12983          	lw	s3,12(sp)
83000274:	00812a03          	lw	s4,8(sp)
83000278:	00412a83          	lw	s5,4(sp)
8300027c:	02010113          	addi	sp,sp,32
83000280:	00008067          	ret

83000284 <_ZL13draw_text_rowPci>:
83000284:	ff010113          	addi	sp,sp,-16
83000288:	00112623          	sw	ra,12(sp)
8300028c:	00812423          	sw	s0,8(sp)
83000290:	00912223          	sw	s1,4(sp)
83000294:	00050493          	mv	s1,a0
83000298:	00358413          	addi	s0,a1,3
8300029c:	00001097          	auipc	ra,0x1
830002a0:	f68080e7          	jalr	-152(ra) # 83001204 <puts>
830002a4:	00010517          	auipc	a0,0x10
830002a8:	80052503          	lw	a0,-2048(a0) # 8300faa4 <_ZL4font>
830002ac:	01052603          	lw	a2,16(a0)
830002b0:	010007b7          	lui	a5,0x1000
830002b4:	fff78793          	addi	a5,a5,-1 # ffffff <_ZL9set_i_maxv-0x820000b5>
830002b8:	00123737          	lui	a4,0x123
830002bc:	45670713          	addi	a4,a4,1110 # 123456 <_ZL9set_i_maxv-0x82edcc5e>
830002c0:	00048693          	mv	a3,s1
830002c4:	02860633          	mul	a2,a2,s0
830002c8:	00000593          	li	a1,0
830002cc:	00000097          	auipc	ra,0x0
830002d0:	f28080e7          	jalr	-216(ra) # 830001f4 <_ZL8draw_strP8BDF_FontiiPcjj>
830002d4:	00c12083          	lw	ra,12(sp)
830002d8:	00812403          	lw	s0,8(sp)
830002dc:	00412483          	lw	s1,4(sp)
830002e0:	01010113          	addi	sp,sp,16
830002e4:	00008067          	ret

830002e8 <_ZL13clear_displayv>:
830002e8:	ff010113          	addi	sp,sp,-16
830002ec:	00112623          	sw	ra,12(sp)
830002f0:	01000637          	lui	a2,0x1000
830002f4:	fff60613          	addi	a2,a2,-1 # ffffff <_ZL9set_i_maxv-0x820000b5>
830002f8:	00000593          	li	a1,0
830002fc:	0000f517          	auipc	a0,0xf
83000300:	7a452503          	lw	a0,1956(a0) # 8300faa0 <_ZL6screen>
83000304:	0000b097          	auipc	ra,0xb
83000308:	0e4080e7          	jalr	228(ra) # 8300b3e8 <SDL_FillRect>
8300030c:	00c12083          	lw	ra,12(sp)
83000310:	01010113          	addi	sp,sp,16
83000314:	00008067          	ret

83000318 <_ZL12display_menui>:
83000318:	f9010113          	addi	sp,sp,-112
8300031c:	06112623          	sw	ra,108(sp)
83000320:	06812423          	sw	s0,104(sp)
83000324:	06912223          	sw	s1,100(sp)
83000328:	00050493          	mv	s1,a0
8300032c:	00000097          	auipc	ra,0x0
83000330:	fbc080e7          	jalr	-68(ra) # 830002e8 <_ZL13clear_displayv>
83000334:	04012c23          	sw	zero,88(sp)
83000338:	04012e23          	sw	zero,92(sp)
8300033c:	0000f617          	auipc	a2,0xf
83000340:	76462603          	lw	a2,1892(a2) # 8300faa0 <_ZL6screen>
83000344:	00862783          	lw	a5,8(a2)
83000348:	0000f517          	auipc	a0,0xf
8300034c:	75452503          	lw	a0,1876(a0) # 8300fa9c <_ZL7logo_sf>
83000350:	00852703          	lw	a4,8(a0)
83000354:	40e787b3          	sub	a5,a5,a4
83000358:	04f11c23          	sh	a5,88(sp)
8300035c:	05810693          	addi	a3,sp,88
83000360:	00000593          	li	a1,0
83000364:	0000b097          	auipc	ra,0xb
83000368:	f30080e7          	jalr	-208(ra) # 8300b294 <SDL_BlitSurface>
8300036c:	0000d517          	auipc	a0,0xd
83000370:	8dc50513          	addi	a0,a0,-1828 # 8300cc48 <__call_exitprocs+0x164>
83000374:	00003097          	auipc	ra,0x3
83000378:	b10080e7          	jalr	-1264(ra) # 83002e84 <printf>
8300037c:	00000413          	li	s0,0
83000380:	0640006f          	j	830003e4 <_ZL12display_menui+0xcc>
83000384:	0000f717          	auipc	a4,0xf
83000388:	71472703          	lw	a4,1812(a4) # 8300fa98 <_ZL4page>
8300038c:	00271793          	slli	a5,a4,0x2
83000390:	00e787b3          	add	a5,a5,a4
83000394:	00179793          	slli	a5,a5,0x1
83000398:	008787b3          	add	a5,a5,s0
8300039c:	00179713          	slli	a4,a5,0x1
830003a0:	00f707b3          	add	a5,a4,a5
830003a4:	00279793          	slli	a5,a5,0x2
830003a8:	0000f717          	auipc	a4,0xf
830003ac:	c5870713          	addi	a4,a4,-936 # 8300f000 <items>
830003b0:	00f707b3          	add	a5,a4,a5
830003b4:	0007a683          	lw	a3,0(a5)
830003b8:	00040613          	mv	a2,s0
830003bc:	0000d597          	auipc	a1,0xd
830003c0:	8a858593          	addi	a1,a1,-1880 # 8300cc64 <__call_exitprocs+0x180>
830003c4:	00810513          	addi	a0,sp,8
830003c8:	00001097          	auipc	ra,0x1
830003cc:	000080e7          	jalr	ra # 830013c8 <sprintf>
830003d0:	00040593          	mv	a1,s0
830003d4:	00810513          	addi	a0,sp,8
830003d8:	00000097          	auipc	ra,0x0
830003dc:	eac080e7          	jalr	-340(ra) # 83000284 <_ZL13draw_text_rowPci>
830003e0:	00140413          	addi	s0,s0,1
830003e4:	fa84d0e3          	bge	s1,s0,83000384 <_ZL12display_menui+0x6c>
830003e8:	00b00693          	li	a3,11
830003ec:	0000f617          	auipc	a2,0xf
830003f0:	6ac62603          	lw	a2,1708(a2) # 8300fa98 <_ZL4page>
830003f4:	0000d597          	auipc	a1,0xd
830003f8:	87c58593          	addi	a1,a1,-1924 # 8300cc70 <__call_exitprocs+0x18c>
830003fc:	00810513          	addi	a0,sp,8
83000400:	00001097          	auipc	ra,0x1
83000404:	fc8080e7          	jalr	-56(ra) # 830013c8 <sprintf>
83000408:	00b00593          	li	a1,11
8300040c:	00810513          	addi	a0,sp,8
83000410:	00000097          	auipc	ra,0x0
83000414:	e74080e7          	jalr	-396(ra) # 83000284 <_ZL13draw_text_rowPci>
83000418:	0000d597          	auipc	a1,0xd
8300041c:	87858593          	addi	a1,a1,-1928 # 8300cc90 <__call_exitprocs+0x1ac>
83000420:	00810513          	addi	a0,sp,8
83000424:	00001097          	auipc	ra,0x1
83000428:	fa4080e7          	jalr	-92(ra) # 830013c8 <sprintf>
8300042c:	00c00593          	li	a1,12
83000430:	00810513          	addi	a0,sp,8
83000434:	00000097          	auipc	ra,0x0
83000438:	e50080e7          	jalr	-432(ra) # 83000284 <_ZL13draw_text_rowPci>
8300043c:	0000d597          	auipc	a1,0xd
83000440:	85c58593          	addi	a1,a1,-1956 # 8300cc98 <__call_exitprocs+0x1b4>
83000444:	00810513          	addi	a0,sp,8
83000448:	00001097          	auipc	ra,0x1
8300044c:	f80080e7          	jalr	-128(ra) # 830013c8 <sprintf>
83000450:	00d00593          	li	a1,13
83000454:	00810513          	addi	a0,sp,8
83000458:	00000097          	auipc	ra,0x0
8300045c:	e2c080e7          	jalr	-468(ra) # 83000284 <_ZL13draw_text_rowPci>
83000460:	0000d597          	auipc	a1,0xd
83000464:	84858593          	addi	a1,a1,-1976 # 8300cca8 <__call_exitprocs+0x1c4>
83000468:	00810513          	addi	a0,sp,8
8300046c:	00001097          	auipc	ra,0x1
83000470:	f5c080e7          	jalr	-164(ra) # 830013c8 <sprintf>
83000474:	00e00593          	li	a1,14
83000478:	00810513          	addi	a0,sp,8
8300047c:	00000097          	auipc	ra,0x0
83000480:	e08080e7          	jalr	-504(ra) # 83000284 <_ZL13draw_text_rowPci>
83000484:	0000d597          	auipc	a1,0xd
83000488:	83458593          	addi	a1,a1,-1996 # 8300ccb8 <__call_exitprocs+0x1d4>
8300048c:	00810513          	addi	a0,sp,8
83000490:	00001097          	auipc	ra,0x1
83000494:	f38080e7          	jalr	-200(ra) # 830013c8 <sprintf>
83000498:	00f00593          	li	a1,15
8300049c:	00810513          	addi	a0,sp,8
830004a0:	00000097          	auipc	ra,0x0
830004a4:	de4080e7          	jalr	-540(ra) # 83000284 <_ZL13draw_text_rowPci>
830004a8:	00000713          	li	a4,0
830004ac:	00000693          	li	a3,0
830004b0:	00000613          	li	a2,0
830004b4:	00000593          	li	a1,0
830004b8:	0000f517          	auipc	a0,0xf
830004bc:	5e852503          	lw	a0,1512(a0) # 8300faa0 <_ZL6screen>
830004c0:	0000b097          	auipc	ra,0xb
830004c4:	fc4080e7          	jalr	-60(ra) # 8300b484 <SDL_UpdateRect>
830004c8:	0000d517          	auipc	a0,0xd
830004cc:	80050513          	addi	a0,a0,-2048 # 8300ccc8 <__call_exitprocs+0x1e4>
830004d0:	00003097          	auipc	ra,0x3
830004d4:	9b4080e7          	jalr	-1612(ra) # 83002e84 <printf>
830004d8:	0000d517          	auipc	a0,0xd
830004dc:	81c50513          	addi	a0,a0,-2020 # 8300ccf4 <__call_exitprocs+0x210>
830004e0:	00003097          	auipc	ra,0x3
830004e4:	9a4080e7          	jalr	-1628(ra) # 83002e84 <printf>
830004e8:	0000f797          	auipc	a5,0xf
830004ec:	5987a783          	lw	a5,1432(a5) # 8300fa80 <_impure_ptr>
830004f0:	0087a503          	lw	a0,8(a5)
830004f4:	00003097          	auipc	ra,0x3
830004f8:	7c8080e7          	jalr	1992(ra) # 83003cbc <fflush>
830004fc:	06c12083          	lw	ra,108(sp)
83000500:	06812403          	lw	s0,104(sp)
83000504:	06412483          	lw	s1,100(sp)
83000508:	07010113          	addi	sp,sp,112
8300050c:	00008067          	ret

83000510 <main>:
83000510:	fd010113          	addi	sp,sp,-48
83000514:	02112623          	sw	ra,44(sp)
83000518:	02812423          	sw	s0,40(sp)
8300051c:	02912223          	sw	s1,36(sp)
83000520:	00060413          	mv	s0,a2
83000524:	00000513          	li	a0,0
83000528:	0000b097          	auipc	ra,0xb
8300052c:	a48080e7          	jalr	-1464(ra) # 8300af70 <SDL_Init>
83000530:	00100693          	li	a3,1
83000534:	02000613          	li	a2,32
83000538:	00000593          	li	a1,0
8300053c:	00000513          	li	a0,0
83000540:	0000b097          	auipc	ra,0xb
83000544:	610080e7          	jalr	1552(ra) # 8300bb50 <SDL_SetVideoMode>
83000548:	0000f797          	auipc	a5,0xf
8300054c:	54a7ac23          	sw	a0,1368(a5) # 8300faa0 <_ZL6screen>
83000550:	41400513          	li	a0,1044
83000554:	00006097          	auipc	ra,0x6
83000558:	2c0080e7          	jalr	704(ra) # 83006814 <_Znwj>
8300055c:	00050493          	mv	s1,a0
83000560:	0000f597          	auipc	a1,0xf
83000564:	51c5a583          	lw	a1,1308(a1) # 8300fa7c <font_fname>
83000568:	00000097          	auipc	ra,0x0
8300056c:	430080e7          	jalr	1072(ra) # 83000998 <_ZN8BDF_FontC1EPKc>
83000570:	0000f797          	auipc	a5,0xf
83000574:	5297aa23          	sw	s1,1332(a5) # 8300faa4 <_ZL4font>
83000578:	0000c517          	auipc	a0,0xc
8300057c:	78c50513          	addi	a0,a0,1932 # 8300cd04 <__call_exitprocs+0x220>
83000580:	00000097          	auipc	ra,0x0
83000584:	76c080e7          	jalr	1900(ra) # 83000cec <SDL_LoadBMP>
83000588:	0000f717          	auipc	a4,0xf
8300058c:	50a72a23          	sw	a0,1300(a4) # 8300fa9c <_ZL7logo_sf>
83000590:	00050863          	beqz	a0,830005a0 <main+0x90>
83000594:	00000097          	auipc	ra,0x0
83000598:	b20080e7          	jalr	-1248(ra) # 830000b4 <_ZL9set_i_maxv>
8300059c:	0800006f          	j	8300061c <main+0x10c>
830005a0:	0000c697          	auipc	a3,0xc
830005a4:	78468693          	addi	a3,a3,1924 # 8300cd24 <__call_exitprocs+0x240>
830005a8:	0000c617          	auipc	a2,0xc
830005ac:	78460613          	addi	a2,a2,1924 # 8300cd2c <__call_exitprocs+0x248>
830005b0:	04c00593          	li	a1,76
830005b4:	0000c517          	auipc	a0,0xc
830005b8:	79850513          	addi	a0,a0,1944 # 8300cd4c <__call_exitprocs+0x268>
830005bc:	00007097          	auipc	ra,0x7
830005c0:	290080e7          	jalr	656(ra) # 8300784c <__assert_func>
830005c4:	00000713          	li	a4,0
830005c8:	0200006f          	j	830005e8 <main+0xd8>
830005cc:	00000097          	auipc	ra,0x0
830005d0:	b38080e7          	jalr	-1224(ra) # 83000104 <_ZL4prevv>
830005d4:	0200006f          	j	830005f4 <main+0xe4>
830005d8:	00000097          	auipc	ra,0x0
830005dc:	b64080e7          	jalr	-1180(ra) # 8300013c <_ZL4nextv>
830005e0:	0140006f          	j	830005f4 <main+0xe4>
830005e4:	00800713          	li	a4,8
830005e8:	0000f797          	auipc	a5,0xf
830005ec:	4ac7a783          	lw	a5,1196(a5) # 8300fa94 <_ZL5i_max>
830005f0:	0ce7d063          	bge	a5,a4,830006b0 <main+0x1a0>
830005f4:	0000f697          	auipc	a3,0xf
830005f8:	4a06a683          	lw	a3,1184(a3) # 8300fa94 <_ZL5i_max>
830005fc:	00000613          	li	a2,0
83000600:	0000c597          	auipc	a1,0xc
83000604:	7b058593          	addi	a1,a1,1968 # 8300cdb0 <__call_exitprocs+0x2cc>
83000608:	0000f797          	auipc	a5,0xf
8300060c:	4787a783          	lw	a5,1144(a5) # 8300fa80 <_impure_ptr>
83000610:	00c7a503          	lw	a0,12(a5)
83000614:	00002097          	auipc	ra,0x2
83000618:	8f8080e7          	jalr	-1800(ra) # 83001f0c <fprintf>
8300061c:	0000f517          	auipc	a0,0xf
83000620:	47852503          	lw	a0,1144(a0) # 8300fa94 <_ZL5i_max>
83000624:	00000097          	auipc	ra,0x0
83000628:	cf4080e7          	jalr	-780(ra) # 83000318 <_ZL12display_menui>
8300062c:	01010513          	addi	a0,sp,16
83000630:	0000a097          	auipc	ra,0xa
83000634:	464080e7          	jalr	1124(ra) # 8300aa94 <SDL_WaitEvent>
83000638:	01014783          	lbu	a5,16(sp)
8300063c:	fe0798e3          	bnez	a5,8300062c <main+0x11c>
83000640:	01114783          	lbu	a5,17(sp)
83000644:	ff178793          	addi	a5,a5,-15
83000648:	0ff7f693          	zext.b	a3,a5
8300064c:	03d00713          	li	a4,61
83000650:	fad762e3          	bltu	a4,a3,830005f4 <main+0xe4>
83000654:	00269793          	slli	a5,a3,0x2
83000658:	0000d717          	auipc	a4,0xd
8300065c:	91070713          	addi	a4,a4,-1776 # 8300cf68 <__call_exitprocs+0x484>
83000660:	00e787b3          	add	a5,a5,a4
83000664:	0007a783          	lw	a5,0(a5)
83000668:	00e787b3          	add	a5,a5,a4
8300066c:	00078067          	jr	a5
83000670:	00700713          	li	a4,7
83000674:	f75ff06f          	j	830005e8 <main+0xd8>
83000678:	00600713          	li	a4,6
8300067c:	f6dff06f          	j	830005e8 <main+0xd8>
83000680:	00500713          	li	a4,5
83000684:	f65ff06f          	j	830005e8 <main+0xd8>
83000688:	00400713          	li	a4,4
8300068c:	f5dff06f          	j	830005e8 <main+0xd8>
83000690:	00300713          	li	a4,3
83000694:	f55ff06f          	j	830005e8 <main+0xd8>
83000698:	00200713          	li	a4,2
8300069c:	f4dff06f          	j	830005e8 <main+0xd8>
830006a0:	00100713          	li	a4,1
830006a4:	f45ff06f          	j	830005e8 <main+0xd8>
830006a8:	00900713          	li	a4,9
830006ac:	f3dff06f          	j	830005e8 <main+0xd8>
830006b0:	0000f697          	auipc	a3,0xf
830006b4:	3e86a683          	lw	a3,1000(a3) # 8300fa98 <_ZL4page>
830006b8:	00269793          	slli	a5,a3,0x2
830006bc:	00d787b3          	add	a5,a5,a3
830006c0:	00179793          	slli	a5,a5,0x1
830006c4:	00e787b3          	add	a5,a5,a4
830006c8:	0000f617          	auipc	a2,0xf
830006cc:	93860613          	addi	a2,a2,-1736 # 8300f000 <items>
830006d0:	00179713          	slli	a4,a5,0x1
830006d4:	00f706b3          	add	a3,a4,a5
830006d8:	00269693          	slli	a3,a3,0x2
830006dc:	00d606b3          	add	a3,a2,a3
830006e0:	0046a683          	lw	a3,4(a3)
830006e4:	00d12223          	sw	a3,4(sp)
830006e8:	00f70733          	add	a4,a4,a5
830006ec:	00271713          	slli	a4,a4,0x2
830006f0:	00e60633          	add	a2,a2,a4
830006f4:	00862783          	lw	a5,8(a2)
830006f8:	00f12423          	sw	a5,8(sp)
830006fc:	00012623          	sw	zero,12(sp)
83000700:	00000097          	auipc	ra,0x0
83000704:	be8080e7          	jalr	-1048(ra) # 830002e8 <_ZL13clear_displayv>
83000708:	00000713          	li	a4,0
8300070c:	00000693          	li	a3,0
83000710:	00000613          	li	a2,0
83000714:	00000593          	li	a1,0
83000718:	0000f517          	auipc	a0,0xf
8300071c:	38852503          	lw	a0,904(a0) # 8300faa0 <_ZL6screen>
83000720:	0000b097          	auipc	ra,0xb
83000724:	d64080e7          	jalr	-668(ra) # 8300b484 <SDL_UpdateRect>
83000728:	00040613          	mv	a2,s0
8300072c:	00410593          	addi	a1,sp,4
83000730:	00412503          	lw	a0,4(sp)
83000734:	00001097          	auipc	ra,0x1
83000738:	864080e7          	jalr	-1948(ra) # 83000f98 <execve>
8300073c:	00412603          	lw	a2,4(sp)
83000740:	0000c597          	auipc	a1,0xc
83000744:	64c58593          	addi	a1,a1,1612 # 8300cd8c <__call_exitprocs+0x2a8>
83000748:	0000f797          	auipc	a5,0xf
8300074c:	3387a783          	lw	a5,824(a5) # 8300fa80 <_impure_ptr>
83000750:	00c7a503          	lw	a0,12(a5)
83000754:	00001097          	auipc	ra,0x1
83000758:	7b8080e7          	jalr	1976(ra) # 83001f0c <fprintf>
8300075c:	ec1ff06f          	j	8300061c <main+0x10c>

83000760 <_Z17BDF_CreateSurfaceP8BDF_Fontcjj>:
83000760:	fd010113          	addi	sp,sp,-48
83000764:	02112623          	sw	ra,44(sp)
83000768:	02812423          	sw	s0,40(sp)
8300076c:	02912223          	sw	s1,36(sp)
83000770:	03212023          	sw	s2,32(sp)
83000774:	01312e23          	sw	s3,28(sp)
83000778:	01412c23          	sw	s4,24(sp)
8300077c:	00458793          	addi	a5,a1,4
83000780:	00279793          	slli	a5,a5,0x2
83000784:	00f507b3          	add	a5,a0,a5
83000788:	0047a483          	lw	s1,4(a5)
8300078c:	0e048263          	beqz	s1,83000870 <_Z17BDF_CreateSurfaceP8BDF_Fontcjj+0x110>
83000790:	00060913          	mv	s2,a2
83000794:	00068993          	mv	s3,a3
83000798:	00c52403          	lw	s0,12(a0)
8300079c:	01052a03          	lw	s4,16(a0)
830007a0:	03440533          	mul	a0,s0,s4
830007a4:	00251513          	slli	a0,a0,0x2
830007a8:	00007097          	auipc	ra,0x7
830007ac:	b1c080e7          	jalr	-1252(ra) # 830072c4 <malloc>
830007b0:	00050663          	beqz	a0,830007bc <_Z17BDF_CreateSurfaceP8BDF_Fontcjj+0x5c>
830007b4:	00000693          	li	a3,0
830007b8:	06c0006f          	j	83000824 <_Z17BDF_CreateSurfaceP8BDF_Fontcjj+0xc4>
830007bc:	0000d697          	auipc	a3,0xd
830007c0:	8a468693          	addi	a3,a3,-1884 # 8300d060 <__call_exitprocs+0x57c>
830007c4:	0000d617          	auipc	a2,0xd
830007c8:	8a460613          	addi	a2,a2,-1884 # 8300d068 <__call_exitprocs+0x584>
830007cc:	00a00593          	li	a1,10
830007d0:	0000d517          	auipc	a0,0xd
830007d4:	8dc50513          	addi	a0,a0,-1828 # 8300d0ac <__call_exitprocs+0x5c8>
830007d8:	00007097          	auipc	ra,0x7
830007dc:	074080e7          	jalr	116(ra) # 8300784c <__assert_func>
830007e0:	00098613          	mv	a2,s3
830007e4:	028687b3          	mul	a5,a3,s0
830007e8:	00e787b3          	add	a5,a5,a4
830007ec:	00279793          	slli	a5,a5,0x2
830007f0:	00f507b3          	add	a5,a0,a5
830007f4:	00c7a023          	sw	a2,0(a5)
830007f8:	00170713          	addi	a4,a4,1
830007fc:	02875263          	bge	a4,s0,83000820 <_Z17BDF_CreateSurfaceP8BDF_Fontcjj+0xc0>
83000800:	00269793          	slli	a5,a3,0x2
83000804:	00f487b3          	add	a5,s1,a5
83000808:	0007a783          	lw	a5,0(a5)
8300080c:	00e7d7b3          	srl	a5,a5,a4
83000810:	0017f793          	andi	a5,a5,1
83000814:	fc0786e3          	beqz	a5,830007e0 <_Z17BDF_CreateSurfaceP8BDF_Fontcjj+0x80>
83000818:	00090613          	mv	a2,s2
8300081c:	fc9ff06f          	j	830007e4 <_Z17BDF_CreateSurfaceP8BDF_Fontcjj+0x84>
83000820:	00168693          	addi	a3,a3,1
83000824:	0146d663          	bge	a3,s4,83000830 <_Z17BDF_CreateSurfaceP8BDF_Fontcjj+0xd0>
83000828:	00000713          	li	a4,0
8300082c:	fd1ff06f          	j	830007fc <_Z17BDF_CreateSurfaceP8BDF_Fontcjj+0x9c>
83000830:	ff0007b7          	lui	a5,0xff000
83000834:	00f12023          	sw	a5,0(sp)
83000838:	0ff00893          	li	a7,255
8300083c:	00010837          	lui	a6,0x10
83000840:	f0080813          	addi	a6,a6,-256 # ff00 <_ZL9set_i_maxv-0x82ff01b4>
83000844:	00ff07b7          	lui	a5,0xff0
83000848:	00241713          	slli	a4,s0,0x2
8300084c:	02000693          	li	a3,32
83000850:	000a0613          	mv	a2,s4
83000854:	00040593          	mv	a1,s0
83000858:	0000b097          	auipc	ra,0xb
8300085c:	1f0080e7          	jalr	496(ra) # 8300ba48 <SDL_CreateRGBSurfaceFrom>
83000860:	00050493          	mv	s1,a0
83000864:	00052783          	lw	a5,0(a0)
83000868:	fef7f793          	andi	a5,a5,-17
8300086c:	00f52023          	sw	a5,0(a0)
83000870:	00048513          	mv	a0,s1
83000874:	02c12083          	lw	ra,44(sp)
83000878:	02812403          	lw	s0,40(sp)
8300087c:	02412483          	lw	s1,36(sp)
83000880:	02012903          	lw	s2,32(sp)
83000884:	01c12983          	lw	s3,28(sp)
83000888:	01812a03          	lw	s4,24(sp)
8300088c:	03010113          	addi	sp,sp,48
83000890:	00008067          	ret

83000894 <_ZN8BDF_Font6createEjPiPji>:
83000894:	01052783          	lw	a5,16(a0)
83000898:	fe010113          	addi	sp,sp,-32
8300089c:	00812c23          	sw	s0,24(sp)
830008a0:	00912a23          	sw	s1,20(sp)
830008a4:	01212823          	sw	s2,16(sp)
830008a8:	01312623          	sw	s3,12(sp)
830008ac:	00112e23          	sw	ra,28(sp)
830008b0:	20000737          	lui	a4,0x20000
830008b4:	00050493          	mv	s1,a0
830008b8:	00058993          	mv	s3,a1
830008bc:	00060413          	mv	s0,a2
830008c0:	00068913          	mv	s2,a3
830008c4:	00279513          	slli	a0,a5,0x2
830008c8:	00e7e463          	bltu	a5,a4,830008d0 <_ZN8BDF_Font6createEjPiPji+0x3c>
830008cc:	fff00513          	li	a0,-1
830008d0:	00006097          	auipc	ra,0x6
830008d4:	f60080e7          	jalr	-160(ra) # 83006830 <_Znaj>
830008d8:	00498793          	addi	a5,s3,4
830008dc:	0104a603          	lw	a2,16(s1)
830008e0:	00279793          	slli	a5,a5,0x2
830008e4:	00f487b3          	add	a5,s1,a5
830008e8:	00a7a223          	sw	a0,4(a5) # ff0004 <_ZL9set_i_maxv-0x820100b0>
830008ec:	00050f93          	mv	t6,a0
830008f0:	08c05663          	blez	a2,8300097c <_ZN8BDF_Font6createEjPiPji+0xe8>
830008f4:	00c4a503          	lw	a0,12(s1)
830008f8:	00000f13          	li	t5,0
830008fc:	00100393          	li	t2,1
83000900:	00000293          	li	t0,0
83000904:	06a05463          	blez	a0,8300096c <_ZN8BDF_Font6createEjPiPji+0xd8>
83000908:	00442e03          	lw	t3,4(s0)
8300090c:	00c42683          	lw	a3,12(s0)
83000910:	0044a783          	lw	a5,4(s1)
83000914:	41c60733          	sub	a4,a2,t3
83000918:	40d70733          	sub	a4,a4,a3
8300091c:	00842803          	lw	a6,8(s0)
83000920:	40ef0733          	sub	a4,t5,a4
83000924:	40f70733          	sub	a4,a4,a5
83000928:	00271e93          	slli	t4,a4,0x2
8300092c:	01d90eb3          	add	t4,s2,t4
83000930:	410007b3          	neg	a5,a6
83000934:	410508b3          	sub	a7,a0,a6
83000938:	00000293          	li	t0,0
8300093c:	00f805b3          	add	a1,a6,a5
83000940:	0207c263          	bltz	a5,83000964 <_ZN8BDF_Font6createEjPiPji+0xd0>
83000944:	02074063          	bltz	a4,83000964 <_ZN8BDF_Font6createEjPiPji+0xd0>
83000948:	01c75e63          	bge	a4,t3,83000964 <_ZN8BDF_Font6createEjPiPji+0xd0>
8300094c:	000ea303          	lw	t1,0(t4)
83000950:	00b395b3          	sll	a1,t2,a1
83000954:	00f35333          	srl	t1,t1,a5
83000958:	00137313          	andi	t1,t1,1
8300095c:	00030463          	beqz	t1,83000964 <_ZN8BDF_Font6createEjPiPji+0xd0>
83000960:	00b2e2b3          	or	t0,t0,a1
83000964:	00178793          	addi	a5,a5,1
83000968:	fd179ae3          	bne	a5,a7,8300093c <_ZN8BDF_Font6createEjPiPji+0xa8>
8300096c:	005fa023          	sw	t0,0(t6)
83000970:	001f0f13          	addi	t5,t5,1
83000974:	004f8f93          	addi	t6,t6,4
83000978:	f8cf14e3          	bne	t5,a2,83000900 <_ZN8BDF_Font6createEjPiPji+0x6c>
8300097c:	01c12083          	lw	ra,28(sp)
83000980:	01812403          	lw	s0,24(sp)
83000984:	01412483          	lw	s1,20(sp)
83000988:	01012903          	lw	s2,16(sp)
8300098c:	00c12983          	lw	s3,12(sp)
83000990:	02010113          	addi	sp,sp,32
83000994:	00008067          	ret

83000998 <_ZN8BDF_FontC1EPKc>:
83000998:	e1010113          	addi	sp,sp,-496
8300099c:	1e812423          	sw	s0,488(sp)
830009a0:	1f212023          	sw	s2,480(sp)
830009a4:	00058413          	mv	s0,a1
830009a8:	00050913          	mv	s2,a0
830009ac:	00000593          	li	a1,0
830009b0:	40000613          	li	a2,1024
830009b4:	01450513          	addi	a0,a0,20
830009b8:	1e112623          	sw	ra,492(sp)
830009bc:	1e912223          	sw	s1,484(sp)
830009c0:	1d312e23          	sw	s3,476(sp)
830009c4:	1d412c23          	sw	s4,472(sp)
830009c8:	1d512a23          	sw	s5,468(sp)
830009cc:	1d612823          	sw	s6,464(sp)
830009d0:	1d712623          	sw	s7,460(sp)
830009d4:	00000097          	auipc	ra,0x0
830009d8:	668080e7          	jalr	1640(ra) # 8300103c <memset>
830009dc:	0000c597          	auipc	a1,0xc
830009e0:	71c58593          	addi	a1,a1,1820 # 8300d0f8 <__call_exitprocs+0x614>
830009e4:	00040513          	mv	a0,s0
830009e8:	00006097          	auipc	ra,0x6
830009ec:	92c080e7          	jalr	-1748(ra) # 83006314 <fopen>
830009f0:	26050263          	beqz	a0,83000c54 <_ZN8BDF_FontC1EPKc+0x2bc>
830009f4:	00050413          	mv	s0,a0
830009f8:	00012623          	sw	zero,12(sp)
830009fc:	00000993          	li	s3,0
83000a00:	00490b93          	addi	s7,s2,4
83000a04:	01090b13          	addi	s6,s2,16
83000a08:	00c90a93          	addi	s5,s2,12
83000a0c:	00100493          	li	s1,1
83000a10:	0780006f          	j	83000a88 <_ZN8BDF_FontC1EPKc+0xf0>
83000a14:	0000c597          	auipc	a1,0xc
83000a18:	71858593          	addi	a1,a1,1816 # 8300d12c <__call_exitprocs+0x648>
83000a1c:	02010513          	addi	a0,sp,32
83000a20:	00000097          	auipc	ra,0x0
83000a24:	5a8080e7          	jalr	1448(ra) # 83000fc8 <strcmp>
83000a28:	0e050c63          	beqz	a0,83000b20 <_ZN8BDF_FontC1EPKc+0x188>
83000a2c:	0000c597          	auipc	a1,0xc
83000a30:	71458593          	addi	a1,a1,1812 # 8300d140 <__call_exitprocs+0x65c>
83000a34:	02010513          	addi	a0,sp,32
83000a38:	00000097          	auipc	ra,0x0
83000a3c:	590080e7          	jalr	1424(ra) # 83000fc8 <strcmp>
83000a40:	10050863          	beqz	a0,83000b50 <_ZN8BDF_FontC1EPKc+0x1b8>
83000a44:	0000c597          	auipc	a1,0xc
83000a48:	70058593          	addi	a1,a1,1792 # 8300d144 <__call_exitprocs+0x660>
83000a4c:	02010513          	addi	a0,sp,32
83000a50:	00000097          	auipc	ra,0x0
83000a54:	578080e7          	jalr	1400(ra) # 83000fc8 <strcmp>
83000a58:	12051a63          	bnez	a0,83000b8c <_ZN8BDF_FontC1EPKc+0x1f4>
83000a5c:	00c12583          	lw	a1,12(sp)
83000a60:	0ff00793          	li	a5,255
83000a64:	20b7fe63          	bgeu	a5,a1,83000c80 <_ZN8BDF_FontC1EPKc+0x2e8>
83000a68:	00012623          	sw	zero,12(sp)
83000a6c:	00000993          	li	s3,0
83000a70:	0000c597          	auipc	a1,0xc
83000a74:	6e458593          	addi	a1,a1,1764 # 8300d154 <__call_exitprocs+0x670>
83000a78:	02010513          	addi	a0,sp,32
83000a7c:	00000097          	auipc	ra,0x0
83000a80:	54c080e7          	jalr	1356(ra) # 83000fc8 <strcmp>
83000a84:	1c050263          	beqz	a0,83000c48 <_ZN8BDF_FontC1EPKc+0x2b0>
83000a88:	00040613          	mv	a2,s0
83000a8c:	10000593          	li	a1,256
83000a90:	0c010513          	addi	a0,sp,192
83000a94:	00001097          	auipc	ra,0x1
83000a98:	0fc080e7          	jalr	252(ra) # 83001b90 <fgets>
83000a9c:	1a050663          	beqz	a0,83000c48 <_ZN8BDF_FontC1EPKc+0x2b0>
83000aa0:	02010613          	addi	a2,sp,32
83000aa4:	0000c597          	auipc	a1,0xc
83000aa8:	65858593          	addi	a1,a1,1624 # 8300d0fc <__call_exitprocs+0x618>
83000aac:	0c010513          	addi	a0,sp,192
83000ab0:	00000097          	auipc	ra,0x0
83000ab4:	77c080e7          	jalr	1916(ra) # 8300122c <sscanf>
83000ab8:	0000c597          	auipc	a1,0xc
83000abc:	64858593          	addi	a1,a1,1608 # 8300d100 <__call_exitprocs+0x61c>
83000ac0:	02010513          	addi	a0,sp,32
83000ac4:	00000097          	auipc	ra,0x0
83000ac8:	504080e7          	jalr	1284(ra) # 83000fc8 <strcmp>
83000acc:	0000c597          	auipc	a1,0xc
83000ad0:	64058593          	addi	a1,a1,1600 # 8300d10c <__call_exitprocs+0x628>
83000ad4:	02010513          	addi	a0,sp,32
83000ad8:	00000097          	auipc	ra,0x0
83000adc:	4f0080e7          	jalr	1264(ra) # 83000fc8 <strcmp>
83000ae0:	f2051ae3          	bnez	a0,83000a14 <_ZN8BDF_FontC1EPKc+0x7c>
83000ae4:	0000c597          	auipc	a1,0xc
83000ae8:	63858593          	addi	a1,a1,1592 # 8300d11c <__call_exitprocs+0x638>
83000aec:	000b8793          	mv	a5,s7
83000af0:	00090713          	mv	a4,s2
83000af4:	000b0693          	mv	a3,s6
83000af8:	000a8613          	mv	a2,s5
83000afc:	0c010513          	addi	a0,sp,192
83000b00:	00000097          	auipc	ra,0x0
83000b04:	72c080e7          	jalr	1836(ra) # 8300122c <sscanf>
83000b08:	0000c597          	auipc	a1,0xc
83000b0c:	62458593          	addi	a1,a1,1572 # 8300d12c <__call_exitprocs+0x648>
83000b10:	02010513          	addi	a0,sp,32
83000b14:	00000097          	auipc	ra,0x0
83000b18:	4b4080e7          	jalr	1204(ra) # 83000fc8 <strcmp>
83000b1c:	f00518e3          	bnez	a0,83000a2c <_ZN8BDF_FontC1EPKc+0x94>
83000b20:	0000c597          	auipc	a1,0xc
83000b24:	61858593          	addi	a1,a1,1560 # 8300d138 <__call_exitprocs+0x654>
83000b28:	00c10613          	addi	a2,sp,12
83000b2c:	0c010513          	addi	a0,sp,192
83000b30:	00000097          	auipc	ra,0x0
83000b34:	6fc080e7          	jalr	1788(ra) # 8300122c <sscanf>
83000b38:	0000c597          	auipc	a1,0xc
83000b3c:	60858593          	addi	a1,a1,1544 # 8300d140 <__call_exitprocs+0x65c>
83000b40:	02010513          	addi	a0,sp,32
83000b44:	00000097          	auipc	ra,0x0
83000b48:	484080e7          	jalr	1156(ra) # 83000fc8 <strcmp>
83000b4c:	ee051ce3          	bnez	a0,83000a44 <_ZN8BDF_FontC1EPKc+0xac>
83000b50:	0000c597          	auipc	a1,0xc
83000b54:	5cc58593          	addi	a1,a1,1484 # 8300d11c <__call_exitprocs+0x638>
83000b58:	01c10793          	addi	a5,sp,28
83000b5c:	01810713          	addi	a4,sp,24
83000b60:	01410693          	addi	a3,sp,20
83000b64:	01010613          	addi	a2,sp,16
83000b68:	0c010513          	addi	a0,sp,192
83000b6c:	00000097          	auipc	ra,0x0
83000b70:	6c0080e7          	jalr	1728(ra) # 8300122c <sscanf>
83000b74:	0000c597          	auipc	a1,0xc
83000b78:	5d058593          	addi	a1,a1,1488 # 8300d144 <__call_exitprocs+0x660>
83000b7c:	02010513          	addi	a0,sp,32
83000b80:	00000097          	auipc	ra,0x0
83000b84:	448080e7          	jalr	1096(ra) # 83000fc8 <strcmp>
83000b88:	ec050ae3          	beqz	a0,83000a5c <_ZN8BDF_FontC1EPKc+0xc4>
83000b8c:	0000c597          	auipc	a1,0xc
83000b90:	5c058593          	addi	a1,a1,1472 # 8300d14c <__call_exitprocs+0x668>
83000b94:	02010513          	addi	a0,sp,32
83000b98:	00000097          	auipc	ra,0x0
83000b9c:	430080e7          	jalr	1072(ra) # 83000fc8 <strcmp>
83000ba0:	0e050e63          	beqz	a0,83000c9c <_ZN8BDF_FontC1EPKc+0x304>
83000ba4:	ec0986e3          	beqz	s3,83000a70 <_ZN8BDF_FontC1EPKc+0xd8>
83000ba8:	002a1513          	slli	a0,s4,0x2
83000bac:	1c050793          	addi	a5,a0,448
83000bb0:	0c014703          	lbu	a4,192(sp)
83000bb4:	00278533          	add	a0,a5,sp
83000bb8:	e8052023          	sw	zero,-384(a0)
83000bbc:	00a00793          	li	a5,10
83000bc0:	0c010313          	addi	t1,sp,192
83000bc4:	00000893          	li	a7,0
83000bc8:	00900e93          	li	t4,9
83000bcc:	fff00813          	li	a6,-1
83000bd0:	00a00e13          	li	t3,10
83000bd4:	04f70c63          	beq	a4,a5,83000c2c <_ZN8BDF_FontC1EPKc+0x294>
83000bd8:	fd070793          	addi	a5,a4,-48 # 1fffffd0 <_ZL9set_i_maxv-0x630000e4>
83000bdc:	0ff7f693          	zext.b	a3,a5
83000be0:	fc970713          	addi	a4,a4,-55
83000be4:	00dee463          	bltu	t4,a3,83000bec <_ZN8BDF_FontC1EPKc+0x254>
83000be8:	00078713          	mv	a4,a5
83000bec:	00300793          	li	a5,3
83000bf0:	00388613          	addi	a2,a7,3
83000bf4:	40f756b3          	sra	a3,a4,a5
83000bf8:	40f605b3          	sub	a1,a2,a5
83000bfc:	0016f693          	andi	a3,a3,1
83000c00:	00b495b3          	sll	a1,s1,a1
83000c04:	fff78793          	addi	a5,a5,-1
83000c08:	00068863          	beqz	a3,83000c18 <_ZN8BDF_FontC1EPKc+0x280>
83000c0c:	e8052683          	lw	a3,-384(a0)
83000c10:	00b6e6b3          	or	a3,a3,a1
83000c14:	e8d52023          	sw	a3,-384(a0)
83000c18:	fd079ee3          	bne	a5,a6,83000bf4 <_ZN8BDF_FontC1EPKc+0x25c>
83000c1c:	00134703          	lbu	a4,1(t1)
83000c20:	00488893          	addi	a7,a7,4
83000c24:	00130313          	addi	t1,t1,1
83000c28:	fbc718e3          	bne	a4,t3,83000bd8 <_ZN8BDF_FontC1EPKc+0x240>
83000c2c:	0000c597          	auipc	a1,0xc
83000c30:	52858593          	addi	a1,a1,1320 # 8300d154 <__call_exitprocs+0x670>
83000c34:	02010513          	addi	a0,sp,32
83000c38:	001a0a13          	addi	s4,s4,1
83000c3c:	00000097          	auipc	ra,0x0
83000c40:	38c080e7          	jalr	908(ra) # 83000fc8 <strcmp>
83000c44:	e40512e3          	bnez	a0,83000a88 <_ZN8BDF_FontC1EPKc+0xf0>
83000c48:	00040513          	mv	a0,s0
83000c4c:	00001097          	auipc	ra,0x1
83000c50:	260080e7          	jalr	608(ra) # 83001eac <fclose>
83000c54:	1ec12083          	lw	ra,492(sp)
83000c58:	1e812403          	lw	s0,488(sp)
83000c5c:	1e412483          	lw	s1,484(sp)
83000c60:	1e012903          	lw	s2,480(sp)
83000c64:	1dc12983          	lw	s3,476(sp)
83000c68:	1d812a03          	lw	s4,472(sp)
83000c6c:	1d412a83          	lw	s5,468(sp)
83000c70:	1d012b03          	lw	s6,464(sp)
83000c74:	1cc12b83          	lw	s7,460(sp)
83000c78:	1f010113          	addi	sp,sp,496
83000c7c:	00008067          	ret
83000c80:	000a0713          	mv	a4,s4
83000c84:	04010693          	addi	a3,sp,64
83000c88:	01010613          	addi	a2,sp,16
83000c8c:	00090513          	mv	a0,s2
83000c90:	00000097          	auipc	ra,0x0
83000c94:	c04080e7          	jalr	-1020(ra) # 83000894 <_ZN8BDF_Font6createEjPiPji>
83000c98:	dd1ff06f          	j	83000a68 <_ZN8BDF_FontC1EPKc+0xd0>
83000c9c:	00000a13          	li	s4,0
83000ca0:	00100993          	li	s3,1
83000ca4:	dcdff06f          	j	83000a70 <_ZN8BDF_FontC1EPKc+0xd8>

83000ca8 <_ZN8BDF_FontD1Ev>:
83000ca8:	ff010113          	addi	sp,sp,-16
83000cac:	00812423          	sw	s0,8(sp)
83000cb0:	00912223          	sw	s1,4(sp)
83000cb4:	00112623          	sw	ra,12(sp)
83000cb8:	01450413          	addi	s0,a0,20
83000cbc:	41450493          	addi	s1,a0,1044
83000cc0:	00042503          	lw	a0,0(s0)
83000cc4:	00440413          	addi	s0,s0,4
83000cc8:	00050663          	beqz	a0,83000cd4 <_ZN8BDF_FontD1Ev+0x2c>
83000ccc:	00006097          	auipc	ra,0x6
83000cd0:	b9c080e7          	jalr	-1124(ra) # 83006868 <_ZdaPv>
83000cd4:	fe9416e3          	bne	s0,s1,83000cc0 <_ZN8BDF_FontD1Ev+0x18>
83000cd8:	00c12083          	lw	ra,12(sp)
83000cdc:	00812403          	lw	s0,8(sp)
83000ce0:	00412483          	lw	s1,4(sp)
83000ce4:	01010113          	addi	sp,sp,16
83000ce8:	00008067          	ret

83000cec <SDL_LoadBMP>:
83000cec:	fd010113          	addi	sp,sp,-48
83000cf0:	02112623          	sw	ra,44(sp)
83000cf4:	01810613          	addi	a2,sp,24
83000cf8:	01c10593          	addi	a1,sp,28
83000cfc:	00000097          	auipc	ra,0x0
83000d00:	078080e7          	jalr	120(ra) # 83000d74 <BMP_Load>
83000d04:	04050663          	beqz	a0,83000d50 <SDL_LoadBMP+0x64>
83000d08:	01c12583          	lw	a1,28(sp)
83000d0c:	ff0007b7          	lui	a5,0xff000
83000d10:	00f12023          	sw	a5,0(sp)
83000d14:	0ff00893          	li	a7,255
83000d18:	00010837          	lui	a6,0x10
83000d1c:	f0080813          	addi	a6,a6,-256 # ff00 <_ZL9set_i_maxv-0x82ff01b4>
83000d20:	00ff07b7          	lui	a5,0xff0
83000d24:	00259713          	slli	a4,a1,0x2
83000d28:	02000693          	li	a3,32
83000d2c:	01812603          	lw	a2,24(sp)
83000d30:	0000b097          	auipc	ra,0xb
83000d34:	d18080e7          	jalr	-744(ra) # 8300ba48 <SDL_CreateRGBSurfaceFrom>
83000d38:	00052703          	lw	a4,0(a0)
83000d3c:	fef77713          	andi	a4,a4,-17
83000d40:	00e52023          	sw	a4,0(a0)
83000d44:	02c12083          	lw	ra,44(sp)
83000d48:	03010113          	addi	sp,sp,48
83000d4c:	00008067          	ret
83000d50:	0000c697          	auipc	a3,0xc
83000d54:	31068693          	addi	a3,a3,784 # 8300d060 <__call_exitprocs+0x57c>
83000d58:	0000c617          	auipc	a2,0xc
83000d5c:	44c60613          	addi	a2,a2,1100 # 8300d1a4 <__func__.0>
83000d60:	00800593          	li	a1,8
83000d64:	0000c517          	auipc	a0,0xc
83000d68:	3f850513          	addi	a0,a0,1016 # 8300d15c <__call_exitprocs+0x678>
83000d6c:	00007097          	auipc	ra,0x7
83000d70:	ae0080e7          	jalr	-1312(ra) # 8300784c <__assert_func>

83000d74 <BMP_Load>:
83000d74:	f7010113          	addi	sp,sp,-144
83000d78:	07512a23          	sw	s5,116(sp)
83000d7c:	00058a93          	mv	s5,a1
83000d80:	0000c597          	auipc	a1,0xc
83000d84:	37858593          	addi	a1,a1,888 # 8300d0f8 <__call_exitprocs+0x614>
83000d88:	08112623          	sw	ra,140(sp)
83000d8c:	08812423          	sw	s0,136(sp)
83000d90:	08912223          	sw	s1,132(sp)
83000d94:	09212023          	sw	s2,128(sp)
83000d98:	07312e23          	sw	s3,124(sp)
83000d9c:	07412c23          	sw	s4,120(sp)
83000da0:	07612823          	sw	s6,112(sp)
83000da4:	07712623          	sw	s7,108(sp)
83000da8:	07812423          	sw	s8,104(sp)
83000dac:	07912223          	sw	s9,100(sp)
83000db0:	07a12023          	sw	s10,96(sp)
83000db4:	05b12e23          	sw	s11,92(sp)
83000db8:	00c12623          	sw	a2,12(sp)
83000dbc:	00005097          	auipc	ra,0x5
83000dc0:	558080e7          	jalr	1368(ra) # 83006314 <fopen>
83000dc4:	16050663          	beqz	a0,83000f30 <BMP_Load+0x1bc>
83000dc8:	00050693          	mv	a3,a0
83000dcc:	00050b93          	mv	s7,a0
83000dd0:	00100613          	li	a2,1
83000dd4:	03600593          	li	a1,54
83000dd8:	01810513          	addi	a0,sp,24
83000ddc:	00001097          	auipc	ra,0x1
83000de0:	c10080e7          	jalr	-1008(ra) # 830019ec <fread>
83000de4:	00100793          	li	a5,1
83000de8:	18f51663          	bne	a0,a5,83000f74 <BMP_Load+0x200>
83000dec:	03415703          	lhu	a4,52(sp)
83000df0:	01800793          	li	a5,24
83000df4:	12f71e63          	bne	a4,a5,83000f30 <BMP_Load+0x1bc>
83000df8:	03812783          	lw	a5,56(sp)
83000dfc:	00010937          	lui	s2,0x10
83000e00:	03615703          	lhu	a4,54(sp)
83000e04:	fff90913          	addi	s2,s2,-1 # ffff <_ZL9set_i_maxv-0x82ff00b5>
83000e08:	0127f7b3          	and	a5,a5,s2
83000e0c:	01079793          	slli	a5,a5,0x10
83000e10:	00e7e7b3          	or	a5,a5,a4
83000e14:	10079e63          	bnez	a5,83000f30 <BMP_Load+0x1bc>
83000e18:	02c12783          	lw	a5,44(sp)
83000e1c:	03012483          	lw	s1,48(sp)
83000e20:	02a15703          	lhu	a4,42(sp)
83000e24:	0127f433          	and	s0,a5,s2
83000e28:	0124f4b3          	and	s1,s1,s2
83000e2c:	0107d793          	srli	a5,a5,0x10
83000e30:	01041413          	slli	s0,s0,0x10
83000e34:	01049493          	slli	s1,s1,0x10
83000e38:	00e46433          	or	s0,s0,a4
83000e3c:	00f4e4b3          	or	s1,s1,a5
83000e40:	02940533          	mul	a0,s0,s1
83000e44:	00251513          	slli	a0,a0,0x2
83000e48:	00006097          	auipc	ra,0x6
83000e4c:	47c080e7          	jalr	1148(ra) # 830072c4 <malloc>
83000e50:	00140793          	addi	a5,s0,1
83000e54:	00179993          	slli	s3,a5,0x1
83000e58:	00f989b3          	add	s3,s3,a5
83000e5c:	00050b13          	mv	s6,a0
83000e60:	ffc9f993          	andi	s3,s3,-4
83000e64:	0a905463          	blez	s1,83000f0c <BMP_Load+0x198>
83000e68:	fff48d13          	addi	s10,s1,-1
83000e6c:	033d0d33          	mul	s10,s10,s3
83000e70:	00241a13          	slli	s4,s0,0x2
83000e74:	00050c13          	mv	s8,a0
83000e78:	01450cb3          	add	s9,a0,s4
83000e7c:	00000d93          	li	s11,0
83000e80:	02412583          	lw	a1,36(sp)
83000e84:	02215783          	lhu	a5,34(sp)
83000e88:	00000613          	li	a2,0
83000e8c:	0125f5b3          	and	a1,a1,s2
83000e90:	01059593          	slli	a1,a1,0x10
83000e94:	00f5e5b3          	or	a1,a1,a5
83000e98:	01a585b3          	add	a1,a1,s10
83000e9c:	000b8513          	mv	a0,s7
83000ea0:	00001097          	auipc	ra,0x1
83000ea4:	90c080e7          	jalr	-1780(ra) # 830017ac <fseek>
83000ea8:	00040613          	mv	a2,s0
83000eac:	000b8693          	mv	a3,s7
83000eb0:	00300593          	li	a1,3
83000eb4:	000c0513          	mv	a0,s8
83000eb8:	00001097          	auipc	ra,0x1
83000ebc:	b34080e7          	jalr	-1228(ra) # 830019ec <fread>
83000ec0:	408c8733          	sub	a4,s9,s0
83000ec4:	ffcc8613          	addi	a2,s9,-4
83000ec8:	02805863          	blez	s0,83000ef8 <BMP_Load+0x184>
83000ecc:	fff74783          	lbu	a5,-1(a4)
83000ed0:	ffe74683          	lbu	a3,-2(a4)
83000ed4:	ffd74583          	lbu	a1,-3(a4)
83000ed8:	01079793          	slli	a5,a5,0x10
83000edc:	00869693          	slli	a3,a3,0x8
83000ee0:	00d7e7b3          	or	a5,a5,a3
83000ee4:	00b7e7b3          	or	a5,a5,a1
83000ee8:	00f62023          	sw	a5,0(a2)
83000eec:	ffd70713          	addi	a4,a4,-3
83000ef0:	ffc60613          	addi	a2,a2,-4
83000ef4:	fd871ce3          	bne	a4,s8,83000ecc <BMP_Load+0x158>
83000ef8:	001d8d93          	addi	s11,s11,1
83000efc:	413d0d33          	sub	s10,s10,s3
83000f00:	014c0c33          	add	s8,s8,s4
83000f04:	014c8cb3          	add	s9,s9,s4
83000f08:	f7b49ce3          	bne	s1,s11,83000e80 <BMP_Load+0x10c>
83000f0c:	000b8513          	mv	a0,s7
83000f10:	00001097          	auipc	ra,0x1
83000f14:	f9c080e7          	jalr	-100(ra) # 83001eac <fclose>
83000f18:	000a8463          	beqz	s5,83000f20 <BMP_Load+0x1ac>
83000f1c:	008aa023          	sw	s0,0(s5)
83000f20:	00c12783          	lw	a5,12(sp)
83000f24:	00078863          	beqz	a5,83000f34 <BMP_Load+0x1c0>
83000f28:	0097a023          	sw	s1,0(a5) # ff0000 <_ZL9set_i_maxv-0x820100b4>
83000f2c:	0080006f          	j	83000f34 <BMP_Load+0x1c0>
83000f30:	00000b13          	li	s6,0
83000f34:	08c12083          	lw	ra,140(sp)
83000f38:	08812403          	lw	s0,136(sp)
83000f3c:	08412483          	lw	s1,132(sp)
83000f40:	08012903          	lw	s2,128(sp)
83000f44:	07c12983          	lw	s3,124(sp)
83000f48:	07812a03          	lw	s4,120(sp)
83000f4c:	07412a83          	lw	s5,116(sp)
83000f50:	06c12b83          	lw	s7,108(sp)
83000f54:	06812c03          	lw	s8,104(sp)
83000f58:	06412c83          	lw	s9,100(sp)
83000f5c:	06012d03          	lw	s10,96(sp)
83000f60:	05c12d83          	lw	s11,92(sp)
83000f64:	000b0513          	mv	a0,s6
83000f68:	07012b03          	lw	s6,112(sp)
83000f6c:	09010113          	addi	sp,sp,144
83000f70:	00008067          	ret
83000f74:	0000c697          	auipc	a3,0xc
83000f78:	23c68693          	addi	a3,a3,572 # 8300d1b0 <__func__.0+0xc>
83000f7c:	0000c617          	auipc	a2,0xc
83000f80:	2b060613          	addi	a2,a2,688 # 8300d22c <__func__.0>
83000f84:	01c00593          	li	a1,28
83000f88:	0000c517          	auipc	a0,0xc
83000f8c:	26050513          	addi	a0,a0,608 # 8300d1e8 <__func__.0+0x44>
83000f90:	00007097          	auipc	ra,0x7
83000f94:	8bc080e7          	jalr	-1860(ra) # 8300784c <__assert_func>

83000f98 <execve>:
83000f98:	ff010113          	addi	sp,sp,-16
83000f9c:	00112623          	sw	ra,12(sp)
83000fa0:	00060693          	mv	a3,a2
83000fa4:	00058613          	mv	a2,a1
83000fa8:	00050593          	mv	a1,a0
83000fac:	0000f517          	auipc	a0,0xf
83000fb0:	ad452503          	lw	a0,-1324(a0) # 8300fa80 <_impure_ptr>
83000fb4:	00005097          	auipc	ra,0x5
83000fb8:	740080e7          	jalr	1856(ra) # 830066f4 <_execve_r>
83000fbc:	00c12083          	lw	ra,12(sp)
83000fc0:	01010113          	addi	sp,sp,16
83000fc4:	00008067          	ret

83000fc8 <strcmp>:
83000fc8:	00b567b3          	or	a5,a0,a1
83000fcc:	0037f793          	andi	a5,a5,3
83000fd0:	04079463          	bnez	a5,83001018 <strcmp+0x50>
83000fd4:	00052703          	lw	a4,0(a0)
83000fd8:	0005a783          	lw	a5,0(a1)
83000fdc:	02f71e63          	bne	a4,a5,83001018 <strcmp+0x50>
83000fe0:	feff07b7          	lui	a5,0xfeff0
83000fe4:	eff78793          	addi	a5,a5,-257 # fefefeff <__BSS_END__+0x7bfe03f7>
83000fe8:	00f707b3          	add	a5,a4,a5
83000fec:	fff74713          	not	a4,a4
83000ff0:	00e7f7b3          	and	a5,a5,a4
83000ff4:	80808737          	lui	a4,0x80808
83000ff8:	08070713          	addi	a4,a4,128 # 80808080 <__BSS_END__+0xfd7f8578>
83000ffc:	00e7f7b3          	and	a5,a5,a4
83001000:	02079a63          	bnez	a5,83001034 <strcmp+0x6c>
83001004:	00450513          	addi	a0,a0,4
83001008:	00458593          	addi	a1,a1,4
8300100c:	fc9ff06f          	j	83000fd4 <strcmp+0xc>
83001010:	00150513          	addi	a0,a0,1
83001014:	00158593          	addi	a1,a1,1
83001018:	00054783          	lbu	a5,0(a0)
8300101c:	00078663          	beqz	a5,83001028 <strcmp+0x60>
83001020:	0005c703          	lbu	a4,0(a1)
83001024:	fee786e3          	beq	a5,a4,83001010 <strcmp+0x48>
83001028:	0005c703          	lbu	a4,0(a1)
8300102c:	40e78533          	sub	a0,a5,a4
83001030:	00008067          	ret
83001034:	00000513          	li	a0,0
83001038:	00008067          	ret

8300103c <memset>:
8300103c:	0ff5f693          	zext.b	a3,a1
83001040:	00050793          	mv	a5,a0
83001044:	0100006f          	j	83001054 <memset+0x18>
83001048:	00b78023          	sb	a1,0(a5)
8300104c:	00178793          	addi	a5,a5,1
83001050:	00070613          	mv	a2,a4
83001054:	0037f713          	andi	a4,a5,3
83001058:	00070863          	beqz	a4,83001068 <memset+0x2c>
8300105c:	fff60713          	addi	a4,a2,-1
83001060:	fe0614e3          	bnez	a2,83001048 <memset+0xc>
83001064:	00008067          	ret
83001068:	00300713          	li	a4,3
8300106c:	04c77863          	bgeu	a4,a2,830010bc <memset+0x80>
83001070:	00869713          	slli	a4,a3,0x8
83001074:	00d766b3          	or	a3,a4,a3
83001078:	01069713          	slli	a4,a3,0x10
8300107c:	00d76733          	or	a4,a4,a3
83001080:	01c0006f          	j	8300109c <memset+0x60>
83001084:	00e7a023          	sw	a4,0(a5)
83001088:	00e7a223          	sw	a4,4(a5)
8300108c:	00e7a423          	sw	a4,8(a5)
83001090:	00e7a623          	sw	a4,12(a5)
83001094:	ff060613          	addi	a2,a2,-16
83001098:	01078793          	addi	a5,a5,16
8300109c:	00f00693          	li	a3,15
830010a0:	fec6e2e3          	bltu	a3,a2,83001084 <memset+0x48>
830010a4:	0100006f          	j	830010b4 <memset+0x78>
830010a8:	00e7a023          	sw	a4,0(a5)
830010ac:	ffc60613          	addi	a2,a2,-4
830010b0:	00478793          	addi	a5,a5,4
830010b4:	00300693          	li	a3,3
830010b8:	fec6e8e3          	bltu	a3,a2,830010a8 <memset+0x6c>
830010bc:	fff60713          	addi	a4,a2,-1
830010c0:	fa0602e3          	beqz	a2,83001064 <memset+0x28>
830010c4:	00b78023          	sb	a1,0(a5)
830010c8:	00178793          	addi	a5,a5,1
830010cc:	00070613          	mv	a2,a4
830010d0:	fedff06f          	j	830010bc <memset+0x80>

830010d4 <_puts_r>:
830010d4:	ff010113          	addi	sp,sp,-16
830010d8:	00112623          	sw	ra,12(sp)
830010dc:	00812423          	sw	s0,8(sp)
830010e0:	00912223          	sw	s1,4(sp)
830010e4:	01212023          	sw	s2,0(sp)
830010e8:	00050913          	mv	s2,a0
830010ec:	00058493          	mv	s1,a1
830010f0:	00852403          	lw	s0,8(a0)
830010f4:	00050663          	beqz	a0,83001100 <_puts_r+0x2c>
830010f8:	03852783          	lw	a5,56(a0)
830010fc:	02078a63          	beqz	a5,83001130 <_puts_r+0x5c>
83001100:	00c45783          	lhu	a5,12(s0)
83001104:	0087f793          	andi	a5,a5,8
83001108:	00078663          	beqz	a5,83001114 <_puts_r+0x40>
8300110c:	01042783          	lw	a5,16(s0)
83001110:	04079263          	bnez	a5,83001154 <_puts_r+0x80>
83001114:	00040593          	mv	a1,s0
83001118:	00090513          	mv	a0,s2
8300111c:	00002097          	auipc	ra,0x2
83001120:	bc4080e7          	jalr	-1084(ra) # 83002ce0 <__swsetup_r>
83001124:	02050863          	beqz	a0,83001154 <_puts_r+0x80>
83001128:	fff00593          	li	a1,-1
8300112c:	0bc0006f          	j	830011e8 <_puts_r+0x114>
83001130:	00000097          	auipc	ra,0x0
83001134:	468080e7          	jalr	1128(ra) # 83001598 <__sinit>
83001138:	fc9ff06f          	j	83001100 <_puts_r+0x2c>
8300113c:	00042783          	lw	a5,0(s0)
83001140:	00178713          	addi	a4,a5,1
83001144:	00e42023          	sw	a4,0(s0)
83001148:	00b78023          	sb	a1,0(a5)
8300114c:	fff00793          	li	a5,-1
83001150:	08f58c63          	beq	a1,a5,830011e8 <_puts_r+0x114>
83001154:	0004c583          	lbu	a1,0(s1)
83001158:	04058063          	beqz	a1,83001198 <_puts_r+0xc4>
8300115c:	00148493          	addi	s1,s1,1
83001160:	00842783          	lw	a5,8(s0)
83001164:	fff78793          	addi	a5,a5,-1
83001168:	00f42423          	sw	a5,8(s0)
8300116c:	fc07d8e3          	bgez	a5,8300113c <_puts_r+0x68>
83001170:	01842703          	lw	a4,24(s0)
83001174:	00e7c663          	blt	a5,a4,83001180 <_puts_r+0xac>
83001178:	00a00793          	li	a5,10
8300117c:	fcf590e3          	bne	a1,a5,8300113c <_puts_r+0x68>
83001180:	00040613          	mv	a2,s0
83001184:	00090513          	mv	a0,s2
83001188:	00007097          	auipc	ra,0x7
8300118c:	4f8080e7          	jalr	1272(ra) # 83008680 <__swbuf_r>
83001190:	00050593          	mv	a1,a0
83001194:	fb9ff06f          	j	8300114c <_puts_r+0x78>
83001198:	00842783          	lw	a5,8(s0)
8300119c:	fff78793          	addi	a5,a5,-1
830011a0:	00f42423          	sw	a5,8(s0)
830011a4:	0207d063          	bgez	a5,830011c4 <_puts_r+0xf0>
830011a8:	00040613          	mv	a2,s0
830011ac:	00a00593          	li	a1,10
830011b0:	00090513          	mv	a0,s2
830011b4:	00007097          	auipc	ra,0x7
830011b8:	4cc080e7          	jalr	1228(ra) # 83008680 <__swbuf_r>
830011bc:	00050593          	mv	a1,a0
830011c0:	01c0006f          	j	830011dc <_puts_r+0x108>
830011c4:	00042783          	lw	a5,0(s0)
830011c8:	00178713          	addi	a4,a5,1
830011cc:	00e42023          	sw	a4,0(s0)
830011d0:	00a00713          	li	a4,10
830011d4:	00e78023          	sb	a4,0(a5)
830011d8:	00a00593          	li	a1,10
830011dc:	fff00793          	li	a5,-1
830011e0:	00f58463          	beq	a1,a5,830011e8 <_puts_r+0x114>
830011e4:	00a00593          	li	a1,10
830011e8:	00058513          	mv	a0,a1
830011ec:	00c12083          	lw	ra,12(sp)
830011f0:	00812403          	lw	s0,8(sp)
830011f4:	00412483          	lw	s1,4(sp)
830011f8:	00012903          	lw	s2,0(sp)
830011fc:	01010113          	addi	sp,sp,16
83001200:	00008067          	ret

83001204 <puts>:
83001204:	ff010113          	addi	sp,sp,-16
83001208:	00112623          	sw	ra,12(sp)
8300120c:	00050593          	mv	a1,a0
83001210:	0000f517          	auipc	a0,0xf
83001214:	87052503          	lw	a0,-1936(a0) # 8300fa80 <_impure_ptr>
83001218:	00000097          	auipc	ra,0x0
8300121c:	ebc080e7          	jalr	-324(ra) # 830010d4 <_puts_r>
83001220:	00c12083          	lw	ra,12(sp)
83001224:	01010113          	addi	sp,sp,16
83001228:	00008067          	ret

8300122c <sscanf>:
8300122c:	f6010113          	addi	sp,sp,-160
83001230:	06112e23          	sw	ra,124(sp)
83001234:	06812c23          	sw	s0,120(sp)
83001238:	00058413          	mv	s0,a1
8300123c:	08c12423          	sw	a2,136(sp)
83001240:	08d12623          	sw	a3,140(sp)
83001244:	08e12823          	sw	a4,144(sp)
83001248:	08f12a23          	sw	a5,148(sp)
8300124c:	09012c23          	sw	a6,152(sp)
83001250:	09112e23          	sw	a7,156(sp)
83001254:	20400793          	li	a5,516
83001258:	00f11823          	sh	a5,16(sp)
8300125c:	00a12223          	sw	a0,4(sp)
83001260:	00a12a23          	sw	a0,20(sp)
83001264:	00007097          	auipc	ra,0x7
83001268:	258080e7          	jalr	600(ra) # 830084bc <strlen>
8300126c:	00a12423          	sw	a0,8(sp)
83001270:	00a12c23          	sw	a0,24(sp)
83001274:	00001797          	auipc	a5,0x1
83001278:	d3878793          	addi	a5,a5,-712 # 83001fac <__seofread>
8300127c:	02f12223          	sw	a5,36(sp)
83001280:	02012a23          	sw	zero,52(sp)
83001284:	04012423          	sw	zero,72(sp)
83001288:	fff00793          	li	a5,-1
8300128c:	00f11923          	sh	a5,18(sp)
83001290:	08810693          	addi	a3,sp,136
83001294:	06d12623          	sw	a3,108(sp)
83001298:	00040613          	mv	a2,s0
8300129c:	00410593          	addi	a1,sp,4
830012a0:	0000e517          	auipc	a0,0xe
830012a4:	7e052503          	lw	a0,2016(a0) # 8300fa80 <_impure_ptr>
830012a8:	00003097          	auipc	ra,0x3
830012ac:	a5c080e7          	jalr	-1444(ra) # 83003d04 <__ssvfscanf_r>
830012b0:	07c12083          	lw	ra,124(sp)
830012b4:	07812403          	lw	s0,120(sp)
830012b8:	0a010113          	addi	sp,sp,160
830012bc:	00008067          	ret

830012c0 <_sscanf_r>:
830012c0:	f6010113          	addi	sp,sp,-160
830012c4:	06112e23          	sw	ra,124(sp)
830012c8:	06812c23          	sw	s0,120(sp)
830012cc:	06912a23          	sw	s1,116(sp)
830012d0:	00050413          	mv	s0,a0
830012d4:	00058513          	mv	a0,a1
830012d8:	00060493          	mv	s1,a2
830012dc:	08d12623          	sw	a3,140(sp)
830012e0:	08e12823          	sw	a4,144(sp)
830012e4:	08f12a23          	sw	a5,148(sp)
830012e8:	09012c23          	sw	a6,152(sp)
830012ec:	09112e23          	sw	a7,156(sp)
830012f0:	20400793          	li	a5,516
830012f4:	00f11823          	sh	a5,16(sp)
830012f8:	00b12223          	sw	a1,4(sp)
830012fc:	00b12a23          	sw	a1,20(sp)
83001300:	00007097          	auipc	ra,0x7
83001304:	1bc080e7          	jalr	444(ra) # 830084bc <strlen>
83001308:	00a12423          	sw	a0,8(sp)
8300130c:	00a12c23          	sw	a0,24(sp)
83001310:	00001797          	auipc	a5,0x1
83001314:	c9c78793          	addi	a5,a5,-868 # 83001fac <__seofread>
83001318:	02f12223          	sw	a5,36(sp)
8300131c:	02012a23          	sw	zero,52(sp)
83001320:	04012423          	sw	zero,72(sp)
83001324:	fff00793          	li	a5,-1
83001328:	00f11923          	sh	a5,18(sp)
8300132c:	08c10693          	addi	a3,sp,140
83001330:	06d12623          	sw	a3,108(sp)
83001334:	00048613          	mv	a2,s1
83001338:	00410593          	addi	a1,sp,4
8300133c:	00040513          	mv	a0,s0
83001340:	00003097          	auipc	ra,0x3
83001344:	9c4080e7          	jalr	-1596(ra) # 83003d04 <__ssvfscanf_r>
83001348:	07c12083          	lw	ra,124(sp)
8300134c:	07812403          	lw	s0,120(sp)
83001350:	07412483          	lw	s1,116(sp)
83001354:	0a010113          	addi	sp,sp,160
83001358:	00008067          	ret

8300135c <_sprintf_r>:
8300135c:	f6010113          	addi	sp,sp,-160
83001360:	06112e23          	sw	ra,124(sp)
83001364:	08d12623          	sw	a3,140(sp)
83001368:	08e12823          	sw	a4,144(sp)
8300136c:	08f12a23          	sw	a5,148(sp)
83001370:	09012c23          	sw	a6,152(sp)
83001374:	09112e23          	sw	a7,156(sp)
83001378:	20800793          	li	a5,520
8300137c:	00f11823          	sh	a5,16(sp)
83001380:	00b12223          	sw	a1,4(sp)
83001384:	00b12a23          	sw	a1,20(sp)
83001388:	800007b7          	lui	a5,0x80000
8300138c:	fff7c793          	not	a5,a5
83001390:	00f12623          	sw	a5,12(sp)
83001394:	00f12c23          	sw	a5,24(sp)
83001398:	fff00793          	li	a5,-1
8300139c:	00f11923          	sh	a5,18(sp)
830013a0:	08c10693          	addi	a3,sp,140
830013a4:	06d12623          	sw	a3,108(sp)
830013a8:	00410593          	addi	a1,sp,4
830013ac:	00001097          	auipc	ra,0x1
830013b0:	d1c080e7          	jalr	-740(ra) # 830020c8 <_svfprintf_r>
830013b4:	00412783          	lw	a5,4(sp)
830013b8:	00078023          	sb	zero,0(a5) # 80000000 <__BSS_END__+0xfcff04f8>
830013bc:	07c12083          	lw	ra,124(sp)
830013c0:	0a010113          	addi	sp,sp,160
830013c4:	00008067          	ret

830013c8 <sprintf>:
830013c8:	f6010113          	addi	sp,sp,-160
830013cc:	06112e23          	sw	ra,124(sp)
830013d0:	08c12423          	sw	a2,136(sp)
830013d4:	08d12623          	sw	a3,140(sp)
830013d8:	08e12823          	sw	a4,144(sp)
830013dc:	08f12a23          	sw	a5,148(sp)
830013e0:	09012c23          	sw	a6,152(sp)
830013e4:	09112e23          	sw	a7,156(sp)
830013e8:	20800793          	li	a5,520
830013ec:	00f11823          	sh	a5,16(sp)
830013f0:	00a12223          	sw	a0,4(sp)
830013f4:	00a12a23          	sw	a0,20(sp)
830013f8:	800007b7          	lui	a5,0x80000
830013fc:	fff7c793          	not	a5,a5
83001400:	00f12623          	sw	a5,12(sp)
83001404:	00f12c23          	sw	a5,24(sp)
83001408:	fff00793          	li	a5,-1
8300140c:	00f11923          	sh	a5,18(sp)
83001410:	08810693          	addi	a3,sp,136
83001414:	06d12623          	sw	a3,108(sp)
83001418:	00058613          	mv	a2,a1
8300141c:	00410593          	addi	a1,sp,4
83001420:	0000e517          	auipc	a0,0xe
83001424:	66052503          	lw	a0,1632(a0) # 8300fa80 <_impure_ptr>
83001428:	00001097          	auipc	ra,0x1
8300142c:	ca0080e7          	jalr	-864(ra) # 830020c8 <_svfprintf_r>
83001430:	00412783          	lw	a5,4(sp)
83001434:	00078023          	sb	zero,0(a5) # 80000000 <__BSS_END__+0xfcff04f8>
83001438:	07c12083          	lw	ra,124(sp)
8300143c:	0a010113          	addi	sp,sp,160
83001440:	00008067          	ret

83001444 <__fp_lock>:
83001444:	00000513          	li	a0,0
83001448:	00008067          	ret

8300144c <__fp_unlock>:
8300144c:	00000513          	li	a0,0
83001450:	00008067          	ret

83001454 <std>:
83001454:	ff010113          	addi	sp,sp,-16
83001458:	00112623          	sw	ra,12(sp)
8300145c:	00812423          	sw	s0,8(sp)
83001460:	00050413          	mv	s0,a0
83001464:	00052023          	sw	zero,0(a0)
83001468:	00052223          	sw	zero,4(a0)
8300146c:	00052423          	sw	zero,8(a0)
83001470:	00b51623          	sh	a1,12(a0)
83001474:	06052223          	sw	zero,100(a0)
83001478:	00c51723          	sh	a2,14(a0)
8300147c:	00052823          	sw	zero,16(a0)
83001480:	00052a23          	sw	zero,20(a0)
83001484:	00052c23          	sw	zero,24(a0)
83001488:	00800613          	li	a2,8
8300148c:	00000593          	li	a1,0
83001490:	05c50513          	addi	a0,a0,92
83001494:	00000097          	auipc	ra,0x0
83001498:	ba8080e7          	jalr	-1112(ra) # 8300103c <memset>
8300149c:	00842e23          	sw	s0,28(s0)
830014a0:	00001797          	auipc	a5,0x1
830014a4:	ab878793          	addi	a5,a5,-1352 # 83001f58 <__sread>
830014a8:	02f42023          	sw	a5,32(s0)
830014ac:	00001797          	auipc	a5,0x1
830014b0:	b0878793          	addi	a5,a5,-1272 # 83001fb4 <__swrite>
830014b4:	02f42223          	sw	a5,36(s0)
830014b8:	00001797          	auipc	a5,0x1
830014bc:	b9078793          	addi	a5,a5,-1136 # 83002048 <__sseek>
830014c0:	02f42423          	sw	a5,40(s0)
830014c4:	00001797          	auipc	a5,0x1
830014c8:	be478793          	addi	a5,a5,-1052 # 830020a8 <__sclose>
830014cc:	02f42623          	sw	a5,44(s0)
830014d0:	00c12083          	lw	ra,12(sp)
830014d4:	00812403          	lw	s0,8(sp)
830014d8:	01010113          	addi	sp,sp,16
830014dc:	00008067          	ret

830014e0 <_cleanup_r>:
830014e0:	ff010113          	addi	sp,sp,-16
830014e4:	00112623          	sw	ra,12(sp)
830014e8:	00001597          	auipc	a1,0x1
830014ec:	8b858593          	addi	a1,a1,-1864 # 83001da0 <_fclose_r>
830014f0:	00001097          	auipc	ra,0x1
830014f4:	594080e7          	jalr	1428(ra) # 83002a84 <_fwalk_reent>
830014f8:	00c12083          	lw	ra,12(sp)
830014fc:	01010113          	addi	sp,sp,16
83001500:	00008067          	ret

83001504 <__sfmoreglue>:
83001504:	ff010113          	addi	sp,sp,-16
83001508:	00112623          	sw	ra,12(sp)
8300150c:	00812423          	sw	s0,8(sp)
83001510:	00912223          	sw	s1,4(sp)
83001514:	00058493          	mv	s1,a1
83001518:	fff58593          	addi	a1,a1,-1
8300151c:	06800793          	li	a5,104
83001520:	02f585b3          	mul	a1,a1,a5
83001524:	07458593          	addi	a1,a1,116
83001528:	00006097          	auipc	ra,0x6
8300152c:	614080e7          	jalr	1556(ra) # 83007b3c <_malloc_r>
83001530:	00050413          	mv	s0,a0
83001534:	02050463          	beqz	a0,8300155c <__sfmoreglue+0x58>
83001538:	00052023          	sw	zero,0(a0)
8300153c:	00952223          	sw	s1,4(a0)
83001540:	00c50513          	addi	a0,a0,12
83001544:	00a42423          	sw	a0,8(s0)
83001548:	06800613          	li	a2,104
8300154c:	02c48633          	mul	a2,s1,a2
83001550:	00000593          	li	a1,0
83001554:	00000097          	auipc	ra,0x0
83001558:	ae8080e7          	jalr	-1304(ra) # 8300103c <memset>
8300155c:	00040513          	mv	a0,s0
83001560:	00c12083          	lw	ra,12(sp)
83001564:	00812403          	lw	s0,8(sp)
83001568:	00412483          	lw	s1,4(sp)
8300156c:	01010113          	addi	sp,sp,16
83001570:	00008067          	ret

83001574 <_cleanup>:
83001574:	ff010113          	addi	sp,sp,-16
83001578:	00112623          	sw	ra,12(sp)
8300157c:	0000e517          	auipc	a0,0xe
83001580:	4a852503          	lw	a0,1192(a0) # 8300fa24 <_global_impure_ptr>
83001584:	00000097          	auipc	ra,0x0
83001588:	f5c080e7          	jalr	-164(ra) # 830014e0 <_cleanup_r>
8300158c:	00c12083          	lw	ra,12(sp)
83001590:	01010113          	addi	sp,sp,16
83001594:	00008067          	ret

83001598 <__sinit>:
83001598:	03852783          	lw	a5,56(a0)
8300159c:	00078463          	beqz	a5,830015a4 <__sinit+0xc>
830015a0:	00008067          	ret
830015a4:	ff010113          	addi	sp,sp,-16
830015a8:	00112623          	sw	ra,12(sp)
830015ac:	00812423          	sw	s0,8(sp)
830015b0:	00050413          	mv	s0,a0
830015b4:	00000797          	auipc	a5,0x0
830015b8:	f2c78793          	addi	a5,a5,-212 # 830014e0 <_cleanup_r>
830015bc:	02f52e23          	sw	a5,60(a0)
830015c0:	2e052023          	sw	zero,736(a0)
830015c4:	00300793          	li	a5,3
830015c8:	2ef52223          	sw	a5,740(a0)
830015cc:	2ec50793          	addi	a5,a0,748
830015d0:	2ef52423          	sw	a5,744(a0)
830015d4:	00000613          	li	a2,0
830015d8:	00400593          	li	a1,4
830015dc:	00452503          	lw	a0,4(a0)
830015e0:	00000097          	auipc	ra,0x0
830015e4:	e74080e7          	jalr	-396(ra) # 83001454 <std>
830015e8:	00100613          	li	a2,1
830015ec:	00900593          	li	a1,9
830015f0:	00842503          	lw	a0,8(s0)
830015f4:	00000097          	auipc	ra,0x0
830015f8:	e60080e7          	jalr	-416(ra) # 83001454 <std>
830015fc:	00200613          	li	a2,2
83001600:	01200593          	li	a1,18
83001604:	00c42503          	lw	a0,12(s0)
83001608:	00000097          	auipc	ra,0x0
8300160c:	e4c080e7          	jalr	-436(ra) # 83001454 <std>
83001610:	00100793          	li	a5,1
83001614:	02f42c23          	sw	a5,56(s0)
83001618:	00c12083          	lw	ra,12(sp)
8300161c:	00812403          	lw	s0,8(sp)
83001620:	01010113          	addi	sp,sp,16
83001624:	00008067          	ret

83001628 <__sfp>:
83001628:	ff010113          	addi	sp,sp,-16
8300162c:	00112623          	sw	ra,12(sp)
83001630:	00812423          	sw	s0,8(sp)
83001634:	00912223          	sw	s1,4(sp)
83001638:	01212023          	sw	s2,0(sp)
8300163c:	00050913          	mv	s2,a0
83001640:	0000e497          	auipc	s1,0xe
83001644:	3e44a483          	lw	s1,996(s1) # 8300fa24 <_global_impure_ptr>
83001648:	0384a783          	lw	a5,56(s1)
8300164c:	00078663          	beqz	a5,83001658 <__sfp+0x30>
83001650:	2e048493          	addi	s1,s1,736
83001654:	08c0006f          	j	830016e0 <__sfp+0xb8>
83001658:	00048513          	mv	a0,s1
8300165c:	00000097          	auipc	ra,0x0
83001660:	f3c080e7          	jalr	-196(ra) # 83001598 <__sinit>
83001664:	fedff06f          	j	83001650 <__sfp+0x28>
83001668:	fff00793          	li	a5,-1
8300166c:	00f41723          	sh	a5,14(s0)
83001670:	00100793          	li	a5,1
83001674:	00f41623          	sh	a5,12(s0)
83001678:	06042223          	sw	zero,100(s0)
8300167c:	00042023          	sw	zero,0(s0)
83001680:	00042423          	sw	zero,8(s0)
83001684:	00042223          	sw	zero,4(s0)
83001688:	00042823          	sw	zero,16(s0)
8300168c:	00042a23          	sw	zero,20(s0)
83001690:	00042c23          	sw	zero,24(s0)
83001694:	00800613          	li	a2,8
83001698:	00000593          	li	a1,0
8300169c:	05c40513          	addi	a0,s0,92
830016a0:	00000097          	auipc	ra,0x0
830016a4:	99c080e7          	jalr	-1636(ra) # 8300103c <memset>
830016a8:	02042823          	sw	zero,48(s0)
830016ac:	02042a23          	sw	zero,52(s0)
830016b0:	04042223          	sw	zero,68(s0)
830016b4:	04042423          	sw	zero,72(s0)
830016b8:	00040513          	mv	a0,s0
830016bc:	00c12083          	lw	ra,12(sp)
830016c0:	00812403          	lw	s0,8(sp)
830016c4:	00412483          	lw	s1,4(sp)
830016c8:	00012903          	lw	s2,0(sp)
830016cc:	01010113          	addi	sp,sp,16
830016d0:	00008067          	ret
830016d4:	0004a783          	lw	a5,0(s1)
830016d8:	02078463          	beqz	a5,83001700 <__sfp+0xd8>
830016dc:	0004a483          	lw	s1,0(s1)
830016e0:	0084a403          	lw	s0,8(s1)
830016e4:	0044a783          	lw	a5,4(s1)
830016e8:	fff78793          	addi	a5,a5,-1
830016ec:	fe07c4e3          	bltz	a5,830016d4 <__sfp+0xac>
830016f0:	00c41703          	lh	a4,12(s0)
830016f4:	f6070ae3          	beqz	a4,83001668 <__sfp+0x40>
830016f8:	06840413          	addi	s0,s0,104
830016fc:	fedff06f          	j	830016e8 <__sfp+0xc0>
83001700:	00400593          	li	a1,4
83001704:	00090513          	mv	a0,s2
83001708:	00000097          	auipc	ra,0x0
8300170c:	dfc080e7          	jalr	-516(ra) # 83001504 <__sfmoreglue>
83001710:	00050413          	mv	s0,a0
83001714:	00a4a023          	sw	a0,0(s1)
83001718:	fc0512e3          	bnez	a0,830016dc <__sfp+0xb4>
8300171c:	00c00793          	li	a5,12
83001720:	00f92023          	sw	a5,0(s2)
83001724:	f95ff06f          	j	830016b8 <__sfp+0x90>

83001728 <__sfp_lock_acquire>:
83001728:	00008067          	ret

8300172c <__sfp_lock_release>:
8300172c:	00008067          	ret

83001730 <__sinit_lock_acquire>:
83001730:	00008067          	ret

83001734 <__sinit_lock_release>:
83001734:	00008067          	ret

83001738 <__fp_lock_all>:
83001738:	ff010113          	addi	sp,sp,-16
8300173c:	00112623          	sw	ra,12(sp)
83001740:	00000597          	auipc	a1,0x0
83001744:	d0458593          	addi	a1,a1,-764 # 83001444 <__fp_lock>
83001748:	0000e517          	auipc	a0,0xe
8300174c:	33852503          	lw	a0,824(a0) # 8300fa80 <_impure_ptr>
83001750:	00001097          	auipc	ra,0x1
83001754:	29c080e7          	jalr	668(ra) # 830029ec <_fwalk>
83001758:	00c12083          	lw	ra,12(sp)
8300175c:	01010113          	addi	sp,sp,16
83001760:	00008067          	ret

83001764 <__fp_unlock_all>:
83001764:	ff010113          	addi	sp,sp,-16
83001768:	00112623          	sw	ra,12(sp)
8300176c:	00000597          	auipc	a1,0x0
83001770:	ce058593          	addi	a1,a1,-800 # 8300144c <__fp_unlock>
83001774:	0000e517          	auipc	a0,0xe
83001778:	30c52503          	lw	a0,780(a0) # 8300fa80 <_impure_ptr>
8300177c:	00001097          	auipc	ra,0x1
83001780:	270080e7          	jalr	624(ra) # 830029ec <_fwalk>
83001784:	00c12083          	lw	ra,12(sp)
83001788:	01010113          	addi	sp,sp,16
8300178c:	00008067          	ret

83001790 <_fseek_r>:
83001790:	ff010113          	addi	sp,sp,-16
83001794:	00112623          	sw	ra,12(sp)
83001798:	00000097          	auipc	ra,0x0
8300179c:	428080e7          	jalr	1064(ra) # 83001bc0 <_fseeko_r>
830017a0:	00c12083          	lw	ra,12(sp)
830017a4:	01010113          	addi	sp,sp,16
830017a8:	00008067          	ret

830017ac <fseek>:
830017ac:	ff010113          	addi	sp,sp,-16
830017b0:	00112623          	sw	ra,12(sp)
830017b4:	00060693          	mv	a3,a2
830017b8:	00058613          	mv	a2,a1
830017bc:	00050593          	mv	a1,a0
830017c0:	0000e517          	auipc	a0,0xe
830017c4:	2c052503          	lw	a0,704(a0) # 8300fa80 <_impure_ptr>
830017c8:	00000097          	auipc	ra,0x0
830017cc:	fc8080e7          	jalr	-56(ra) # 83001790 <_fseek_r>
830017d0:	00c12083          	lw	ra,12(sp)
830017d4:	01010113          	addi	sp,sp,16
830017d8:	00008067          	ret

830017dc <_fread_r>:
830017dc:	fd010113          	addi	sp,sp,-48
830017e0:	02112623          	sw	ra,44(sp)
830017e4:	02812423          	sw	s0,40(sp)
830017e8:	02912223          	sw	s1,36(sp)
830017ec:	03212023          	sw	s2,32(sp)
830017f0:	01312e23          	sw	s3,28(sp)
830017f4:	01412c23          	sw	s4,24(sp)
830017f8:	01512a23          	sw	s5,20(sp)
830017fc:	01612823          	sw	s6,16(sp)
83001800:	01712623          	sw	s7,12(sp)
83001804:	01812423          	sw	s8,8(sp)
83001808:	01912223          	sw	s9,4(sp)
8300180c:	02c68b33          	mul	s6,a3,a2
83001810:	1a0b0263          	beqz	s6,830019b4 <_fread_r+0x1d8>
83001814:	00050a13          	mv	s4,a0
83001818:	00058913          	mv	s2,a1
8300181c:	00060a93          	mv	s5,a2
83001820:	00068b93          	mv	s7,a3
83001824:	00070413          	mv	s0,a4
83001828:	00050663          	beqz	a0,83001834 <_fread_r+0x58>
8300182c:	03852783          	lw	a5,56(a0)
83001830:	06078463          	beqz	a5,83001898 <_fread_r+0xbc>
83001834:	00442783          	lw	a5,4(s0)
83001838:	0607c663          	bltz	a5,830018a4 <_fread_r+0xc8>
8300183c:	00c45783          	lhu	a5,12(s0)
83001840:	0027f793          	andi	a5,a5,2
83001844:	06079463          	bnez	a5,830018ac <_fread_r+0xd0>
83001848:	000b0993          	mv	s3,s6
8300184c:	00442483          	lw	s1,4(s0)
83001850:	1334fa63          	bgeu	s1,s3,83001984 <_fread_r+0x1a8>
83001854:	00048613          	mv	a2,s1
83001858:	00042583          	lw	a1,0(s0)
8300185c:	00090513          	mv	a0,s2
83001860:	00007097          	auipc	ra,0x7
83001864:	cc8080e7          	jalr	-824(ra) # 83008528 <memcpy>
83001868:	00042783          	lw	a5,0(s0)
8300186c:	009787b3          	add	a5,a5,s1
83001870:	00f42023          	sw	a5,0(s0)
83001874:	00990933          	add	s2,s2,s1
83001878:	40998c33          	sub	s8,s3,s1
8300187c:	00040593          	mv	a1,s0
83001880:	000a0513          	mv	a0,s4
83001884:	00002097          	auipc	ra,0x2
83001888:	fd8080e7          	jalr	-40(ra) # 8300385c <__srefill_r>
8300188c:	0e051463          	bnez	a0,83001974 <_fread_r+0x198>
83001890:	000c0993          	mv	s3,s8
83001894:	fb9ff06f          	j	8300184c <_fread_r+0x70>
83001898:	00000097          	auipc	ra,0x0
8300189c:	d00080e7          	jalr	-768(ra) # 83001598 <__sinit>
830018a0:	f95ff06f          	j	83001834 <_fread_r+0x58>
830018a4:	00042223          	sw	zero,4(s0)
830018a8:	f95ff06f          	j	8300183c <_fread_r+0x60>
830018ac:	00442483          	lw	s1,4(s0)
830018b0:	009b7463          	bgeu	s6,s1,830018b8 <_fread_r+0xdc>
830018b4:	000b0493          	mv	s1,s6
830018b8:	00048613          	mv	a2,s1
830018bc:	00042583          	lw	a1,0(s0)
830018c0:	00090513          	mv	a0,s2
830018c4:	00007097          	auipc	ra,0x7
830018c8:	c64080e7          	jalr	-924(ra) # 83008528 <memcpy>
830018cc:	00042783          	lw	a5,0(s0)
830018d0:	009787b3          	add	a5,a5,s1
830018d4:	00f42023          	sw	a5,0(s0)
830018d8:	00442783          	lw	a5,4(s0)
830018dc:	409787b3          	sub	a5,a5,s1
830018e0:	00f42223          	sw	a5,4(s0)
830018e4:	00990933          	add	s2,s2,s1
830018e8:	409b04b3          	sub	s1,s6,s1
830018ec:	03042583          	lw	a1,48(s0)
830018f0:	02058063          	beqz	a1,83001910 <_fread_r+0x134>
830018f4:	00048e63          	beqz	s1,83001910 <_fread_r+0x134>
830018f8:	04040793          	addi	a5,s0,64
830018fc:	00f58863          	beq	a1,a5,8300190c <_fread_r+0x130>
83001900:	000a0513          	mv	a0,s4
83001904:	00006097          	auipc	ra,0x6
83001908:	c74080e7          	jalr	-908(ra) # 83007578 <_free_r>
8300190c:	02042823          	sw	zero,48(s0)
83001910:	0a048063          	beqz	s1,830019b0 <_fread_r+0x1d4>
83001914:	01042c83          	lw	s9,16(s0)
83001918:	00042983          	lw	s3,0(s0)
8300191c:	01442c03          	lw	s8,20(s0)
83001920:	01242823          	sw	s2,16(s0)
83001924:	00942a23          	sw	s1,20(s0)
83001928:	01242023          	sw	s2,0(s0)
8300192c:	00040593          	mv	a1,s0
83001930:	000a0513          	mv	a0,s4
83001934:	00002097          	auipc	ra,0x2
83001938:	f28080e7          	jalr	-216(ra) # 8300385c <__srefill_r>
8300193c:	01942823          	sw	s9,16(s0)
83001940:	01842a23          	sw	s8,20(s0)
83001944:	01342023          	sw	s3,0(s0)
83001948:	00442783          	lw	a5,4(s0)
8300194c:	40f48733          	sub	a4,s1,a5
83001950:	00f90933          	add	s2,s2,a5
83001954:	00042223          	sw	zero,4(s0)
83001958:	00051663          	bnez	a0,83001964 <_fread_r+0x188>
8300195c:	00070493          	mv	s1,a4
83001960:	fb1ff06f          	j	83001910 <_fread_r+0x134>
83001964:	409787b3          	sub	a5,a5,s1
83001968:	016787b3          	add	a5,a5,s6
8300196c:	0357db33          	divu	s6,a5,s5
83001970:	0440006f          	j	830019b4 <_fread_r+0x1d8>
83001974:	413484b3          	sub	s1,s1,s3
83001978:	016484b3          	add	s1,s1,s6
8300197c:	0354db33          	divu	s6,s1,s5
83001980:	0340006f          	j	830019b4 <_fread_r+0x1d8>
83001984:	00098613          	mv	a2,s3
83001988:	00042583          	lw	a1,0(s0)
8300198c:	00090513          	mv	a0,s2
83001990:	00007097          	auipc	ra,0x7
83001994:	b98080e7          	jalr	-1128(ra) # 83008528 <memcpy>
83001998:	00442783          	lw	a5,4(s0)
8300199c:	413787b3          	sub	a5,a5,s3
830019a0:	00f42223          	sw	a5,4(s0)
830019a4:	00042783          	lw	a5,0(s0)
830019a8:	013787b3          	add	a5,a5,s3
830019ac:	00f42023          	sw	a5,0(s0)
830019b0:	000b8b13          	mv	s6,s7
830019b4:	000b0513          	mv	a0,s6
830019b8:	02c12083          	lw	ra,44(sp)
830019bc:	02812403          	lw	s0,40(sp)
830019c0:	02412483          	lw	s1,36(sp)
830019c4:	02012903          	lw	s2,32(sp)
830019c8:	01c12983          	lw	s3,28(sp)
830019cc:	01812a03          	lw	s4,24(sp)
830019d0:	01412a83          	lw	s5,20(sp)
830019d4:	01012b03          	lw	s6,16(sp)
830019d8:	00c12b83          	lw	s7,12(sp)
830019dc:	00812c03          	lw	s8,8(sp)
830019e0:	00412c83          	lw	s9,4(sp)
830019e4:	03010113          	addi	sp,sp,48
830019e8:	00008067          	ret

830019ec <fread>:
830019ec:	ff010113          	addi	sp,sp,-16
830019f0:	00112623          	sw	ra,12(sp)
830019f4:	00068713          	mv	a4,a3
830019f8:	00060693          	mv	a3,a2
830019fc:	00058613          	mv	a2,a1
83001a00:	00050593          	mv	a1,a0
83001a04:	0000e517          	auipc	a0,0xe
83001a08:	07c52503          	lw	a0,124(a0) # 8300fa80 <_impure_ptr>
83001a0c:	00000097          	auipc	ra,0x0
83001a10:	dd0080e7          	jalr	-560(ra) # 830017dc <_fread_r>
83001a14:	00c12083          	lw	ra,12(sp)
83001a18:	01010113          	addi	sp,sp,16
83001a1c:	00008067          	ret

83001a20 <_fgets_r>:
83001a20:	00100793          	li	a5,1
83001a24:	14c7de63          	bge	a5,a2,83001b80 <_fgets_r+0x160>
83001a28:	fd010113          	addi	sp,sp,-48
83001a2c:	02112623          	sw	ra,44(sp)
83001a30:	02812423          	sw	s0,40(sp)
83001a34:	02912223          	sw	s1,36(sp)
83001a38:	03212023          	sw	s2,32(sp)
83001a3c:	01312e23          	sw	s3,28(sp)
83001a40:	01412c23          	sw	s4,24(sp)
83001a44:	01512a23          	sw	s5,20(sp)
83001a48:	01612823          	sw	s6,16(sp)
83001a4c:	01712623          	sw	s7,12(sp)
83001a50:	00050b13          	mv	s6,a0
83001a54:	00058a93          	mv	s5,a1
83001a58:	00060b93          	mv	s7,a2
83001a5c:	00068493          	mv	s1,a3
83001a60:	00050663          	beqz	a0,83001a6c <_fgets_r+0x4c>
83001a64:	03852783          	lw	a5,56(a0)
83001a68:	00078863          	beqz	a5,83001a78 <_fgets_r+0x58>
83001a6c:	fffb8b93          	addi	s7,s7,-1
83001a70:	000a8993          	mv	s3,s5
83001a74:	0b40006f          	j	83001b28 <_fgets_r+0x108>
83001a78:	00000097          	auipc	ra,0x0
83001a7c:	b20080e7          	jalr	-1248(ra) # 83001598 <__sinit>
83001a80:	fedff06f          	j	83001a6c <_fgets_r+0x4c>
83001a84:	00048593          	mv	a1,s1
83001a88:	000b0513          	mv	a0,s6
83001a8c:	00002097          	auipc	ra,0x2
83001a90:	dd0080e7          	jalr	-560(ra) # 8300385c <__srefill_r>
83001a94:	00051663          	bnez	a0,83001aa0 <_fgets_r+0x80>
83001a98:	0044a403          	lw	s0,4(s1)
83001a9c:	0940006f          	j	83001b30 <_fgets_r+0x110>
83001aa0:	0f598463          	beq	s3,s5,83001b88 <_fgets_r+0x168>
83001aa4:	00098023          	sb	zero,0(s3)
83001aa8:	000a8513          	mv	a0,s5
83001aac:	02c12083          	lw	ra,44(sp)
83001ab0:	02812403          	lw	s0,40(sp)
83001ab4:	02412483          	lw	s1,36(sp)
83001ab8:	02012903          	lw	s2,32(sp)
83001abc:	01c12983          	lw	s3,28(sp)
83001ac0:	01812a03          	lw	s4,24(sp)
83001ac4:	01412a83          	lw	s5,20(sp)
83001ac8:	01012b03          	lw	s6,16(sp)
83001acc:	00c12b83          	lw	s7,12(sp)
83001ad0:	03010113          	addi	sp,sp,48
83001ad4:	00008067          	ret
83001ad8:	00040613          	mv	a2,s0
83001adc:	00a00593          	li	a1,10
83001ae0:	000a0513          	mv	a0,s4
83001ae4:	00007097          	auipc	ra,0x7
83001ae8:	ae8080e7          	jalr	-1304(ra) # 830085cc <memchr>
83001aec:	04051c63          	bnez	a0,83001b44 <_fgets_r+0x124>
83001af0:	0044a783          	lw	a5,4(s1)
83001af4:	408787b3          	sub	a5,a5,s0
83001af8:	00f4a223          	sw	a5,4(s1)
83001afc:	0004a783          	lw	a5,0(s1)
83001b00:	008787b3          	add	a5,a5,s0
83001b04:	00f4a023          	sw	a5,0(s1)
83001b08:	00040613          	mv	a2,s0
83001b0c:	000a0593          	mv	a1,s4
83001b10:	00098513          	mv	a0,s3
83001b14:	00007097          	auipc	ra,0x7
83001b18:	a14080e7          	jalr	-1516(ra) # 83008528 <memcpy>
83001b1c:	008989b3          	add	s3,s3,s0
83001b20:	40890bb3          	sub	s7,s2,s0
83001b24:	f88900e3          	beq	s2,s0,83001aa4 <_fgets_r+0x84>
83001b28:	0044a403          	lw	s0,4(s1)
83001b2c:	f4040ce3          	beqz	s0,83001a84 <_fgets_r+0x64>
83001b30:	0004aa03          	lw	s4,0(s1)
83001b34:	000b8913          	mv	s2,s7
83001b38:	fa8bf0e3          	bgeu	s7,s0,83001ad8 <_fgets_r+0xb8>
83001b3c:	000b8413          	mv	s0,s7
83001b40:	f99ff06f          	j	83001ad8 <_fgets_r+0xb8>
83001b44:	00150793          	addi	a5,a0,1
83001b48:	41478433          	sub	s0,a5,s4
83001b4c:	0044a703          	lw	a4,4(s1)
83001b50:	40870733          	sub	a4,a4,s0
83001b54:	00e4a223          	sw	a4,4(s1)
83001b58:	00f4a023          	sw	a5,0(s1)
83001b5c:	00040613          	mv	a2,s0
83001b60:	000a0593          	mv	a1,s4
83001b64:	00098513          	mv	a0,s3
83001b68:	00007097          	auipc	ra,0x7
83001b6c:	9c0080e7          	jalr	-1600(ra) # 83008528 <memcpy>
83001b70:	00898433          	add	s0,s3,s0
83001b74:	00040023          	sb	zero,0(s0)
83001b78:	000a8513          	mv	a0,s5
83001b7c:	f31ff06f          	j	83001aac <_fgets_r+0x8c>
83001b80:	00000513          	li	a0,0
83001b84:	00008067          	ret
83001b88:	00000513          	li	a0,0
83001b8c:	f21ff06f          	j	83001aac <_fgets_r+0x8c>

83001b90 <fgets>:
83001b90:	ff010113          	addi	sp,sp,-16
83001b94:	00112623          	sw	ra,12(sp)
83001b98:	00060693          	mv	a3,a2
83001b9c:	00058613          	mv	a2,a1
83001ba0:	00050593          	mv	a1,a0
83001ba4:	0000e517          	auipc	a0,0xe
83001ba8:	edc52503          	lw	a0,-292(a0) # 8300fa80 <_impure_ptr>
83001bac:	00000097          	auipc	ra,0x0
83001bb0:	e74080e7          	jalr	-396(ra) # 83001a20 <_fgets_r>
83001bb4:	00c12083          	lw	ra,12(sp)
83001bb8:	01010113          	addi	sp,sp,16
83001bbc:	00008067          	ret

83001bc0 <_fseeko_r>:
83001bc0:	fe010113          	addi	sp,sp,-32
83001bc4:	00112e23          	sw	ra,28(sp)
83001bc8:	00812c23          	sw	s0,24(sp)
83001bcc:	00912a23          	sw	s1,20(sp)
83001bd0:	01212823          	sw	s2,16(sp)
83001bd4:	01312623          	sw	s3,12(sp)
83001bd8:	01412423          	sw	s4,8(sp)
83001bdc:	01512223          	sw	s5,4(sp)
83001be0:	00050493          	mv	s1,a0
83001be4:	00058413          	mv	s0,a1
83001be8:	00060a93          	mv	s5,a2
83001bec:	00068913          	mv	s2,a3
83001bf0:	00050663          	beqz	a0,83001bfc <_fseeko_r+0x3c>
83001bf4:	03852783          	lw	a5,56(a0)
83001bf8:	04078063          	beqz	a5,83001c38 <_fseeko_r+0x78>
83001bfc:	00c45783          	lhu	a5,12(s0)
83001c00:	1087f793          	andi	a5,a5,264
83001c04:	10800713          	li	a4,264
83001c08:	02e78e63          	beq	a5,a4,83001c44 <_fseeko_r+0x84>
83001c0c:	02842983          	lw	s3,40(s0)
83001c10:	04098463          	beqz	s3,83001c58 <_fseeko_r+0x98>
83001c14:	00100793          	li	a5,1
83001c18:	04f90863          	beq	s2,a5,83001c68 <_fseeko_r+0xa8>
83001c1c:	00200793          	li	a5,2
83001c20:	06f90663          	beq	s2,a5,83001c8c <_fseeko_r+0xcc>
83001c24:	06090463          	beqz	s2,83001c8c <_fseeko_r+0xcc>
83001c28:	01600793          	li	a5,22
83001c2c:	00f4a023          	sw	a5,0(s1)
83001c30:	fff00a13          	li	s4,-1
83001c34:	0f80006f          	j	83001d2c <_fseeko_r+0x16c>
83001c38:	00000097          	auipc	ra,0x0
83001c3c:	960080e7          	jalr	-1696(ra) # 83001598 <__sinit>
83001c40:	fbdff06f          	j	83001bfc <_fseeko_r+0x3c>
83001c44:	00040593          	mv	a1,s0
83001c48:	00048513          	mv	a0,s1
83001c4c:	00002097          	auipc	ra,0x2
83001c50:	00c080e7          	jalr	12(ra) # 83003c58 <_fflush_r>
83001c54:	fb9ff06f          	j	83001c0c <_fseeko_r+0x4c>
83001c58:	01d00793          	li	a5,29
83001c5c:	00f4a023          	sw	a5,0(s1)
83001c60:	fff00a13          	li	s4,-1
83001c64:	0c80006f          	j	83001d2c <_fseeko_r+0x16c>
83001c68:	00040593          	mv	a1,s0
83001c6c:	00048513          	mv	a0,s1
83001c70:	00007097          	auipc	ra,0x7
83001c74:	b64080e7          	jalr	-1180(ra) # 830087d4 <_ftello_r>
83001c78:	00050a13          	mv	s4,a0
83001c7c:	fff00793          	li	a5,-1
83001c80:	0af50663          	beq	a0,a5,83001d2c <_fseeko_r+0x16c>
83001c84:	00aa8ab3          	add	s5,s5,a0
83001c88:	00000913          	li	s2,0
83001c8c:	01042783          	lw	a5,16(s0)
83001c90:	0c078263          	beqz	a5,83001d54 <_fseeko_r+0x194>
83001c94:	00040593          	mv	a1,s0
83001c98:	00048513          	mv	a0,s1
83001c9c:	00002097          	auipc	ra,0x2
83001ca0:	fbc080e7          	jalr	-68(ra) # 83003c58 <_fflush_r>
83001ca4:	00050a13          	mv	s4,a0
83001ca8:	0c051063          	bnez	a0,83001d68 <_fseeko_r+0x1a8>
83001cac:	00090693          	mv	a3,s2
83001cb0:	000a8613          	mv	a2,s5
83001cb4:	01c42583          	lw	a1,28(s0)
83001cb8:	00048513          	mv	a0,s1
83001cbc:	000980e7          	jalr	s3
83001cc0:	fff00793          	li	a5,-1
83001cc4:	0af50263          	beq	a0,a5,83001d68 <_fseeko_r+0x1a8>
83001cc8:	03042583          	lw	a1,48(s0)
83001ccc:	00058e63          	beqz	a1,83001ce8 <_fseeko_r+0x128>
83001cd0:	04040793          	addi	a5,s0,64
83001cd4:	00f58863          	beq	a1,a5,83001ce4 <_fseeko_r+0x124>
83001cd8:	00048513          	mv	a0,s1
83001cdc:	00006097          	auipc	ra,0x6
83001ce0:	89c080e7          	jalr	-1892(ra) # 83007578 <_free_r>
83001ce4:	02042823          	sw	zero,48(s0)
83001ce8:	01042783          	lw	a5,16(s0)
83001cec:	00f42023          	sw	a5,0(s0)
83001cf0:	00042223          	sw	zero,4(s0)
83001cf4:	00c45783          	lhu	a5,12(s0)
83001cf8:	fdf7f793          	andi	a5,a5,-33
83001cfc:	01079793          	slli	a5,a5,0x10
83001d00:	4107d793          	srai	a5,a5,0x10
83001d04:	00f41623          	sh	a5,12(s0)
83001d08:	fffff737          	lui	a4,0xfffff
83001d0c:	7ff70713          	addi	a4,a4,2047 # fffff7ff <__BSS_END__+0x7cfefcf7>
83001d10:	00e7f7b3          	and	a5,a5,a4
83001d14:	00f41623          	sh	a5,12(s0)
83001d18:	00800613          	li	a2,8
83001d1c:	00000593          	li	a1,0
83001d20:	05c40513          	addi	a0,s0,92
83001d24:	fffff097          	auipc	ra,0xfffff
83001d28:	318080e7          	jalr	792(ra) # 8300103c <memset>
83001d2c:	000a0513          	mv	a0,s4
83001d30:	01c12083          	lw	ra,28(sp)
83001d34:	01812403          	lw	s0,24(sp)
83001d38:	01412483          	lw	s1,20(sp)
83001d3c:	01012903          	lw	s2,16(sp)
83001d40:	00c12983          	lw	s3,12(sp)
83001d44:	00812a03          	lw	s4,8(sp)
83001d48:	00412a83          	lw	s5,4(sp)
83001d4c:	02010113          	addi	sp,sp,32
83001d50:	00008067          	ret
83001d54:	00040593          	mv	a1,s0
83001d58:	00048513          	mv	a0,s1
83001d5c:	00001097          	auipc	ra,0x1
83001d60:	e70080e7          	jalr	-400(ra) # 83002bcc <__smakebuf_r>
83001d64:	f31ff06f          	j	83001c94 <_fseeko_r+0xd4>
83001d68:	fff00a13          	li	s4,-1
83001d6c:	fc1ff06f          	j	83001d2c <_fseeko_r+0x16c>

83001d70 <fseeko>:
83001d70:	ff010113          	addi	sp,sp,-16
83001d74:	00112623          	sw	ra,12(sp)
83001d78:	00060693          	mv	a3,a2
83001d7c:	00058613          	mv	a2,a1
83001d80:	00050593          	mv	a1,a0
83001d84:	0000e517          	auipc	a0,0xe
83001d88:	cfc52503          	lw	a0,-772(a0) # 8300fa80 <_impure_ptr>
83001d8c:	00000097          	auipc	ra,0x0
83001d90:	e34080e7          	jalr	-460(ra) # 83001bc0 <_fseeko_r>
83001d94:	00c12083          	lw	ra,12(sp)
83001d98:	01010113          	addi	sp,sp,16
83001d9c:	00008067          	ret

83001da0 <_fclose_r>:
83001da0:	ff010113          	addi	sp,sp,-16
83001da4:	00112623          	sw	ra,12(sp)
83001da8:	00812423          	sw	s0,8(sp)
83001dac:	00912223          	sw	s1,4(sp)
83001db0:	01212023          	sw	s2,0(sp)
83001db4:	0e058863          	beqz	a1,83001ea4 <_fclose_r+0x104>
83001db8:	00050913          	mv	s2,a0
83001dbc:	00058413          	mv	s0,a1
83001dc0:	00050663          	beqz	a0,83001dcc <_fclose_r+0x2c>
83001dc4:	03852783          	lw	a5,56(a0)
83001dc8:	02078663          	beqz	a5,83001df4 <_fclose_r+0x54>
83001dcc:	00c41783          	lh	a5,12(s0)
83001dd0:	02079863          	bnez	a5,83001e00 <_fclose_r+0x60>
83001dd4:	00000493          	li	s1,0
83001dd8:	00048513          	mv	a0,s1
83001ddc:	00c12083          	lw	ra,12(sp)
83001de0:	00812403          	lw	s0,8(sp)
83001de4:	00412483          	lw	s1,4(sp)
83001de8:	00012903          	lw	s2,0(sp)
83001dec:	01010113          	addi	sp,sp,16
83001df0:	00008067          	ret
83001df4:	fffff097          	auipc	ra,0xfffff
83001df8:	7a4080e7          	jalr	1956(ra) # 83001598 <__sinit>
83001dfc:	fd1ff06f          	j	83001dcc <_fclose_r+0x2c>
83001e00:	00040593          	mv	a1,s0
83001e04:	00090513          	mv	a0,s2
83001e08:	00002097          	auipc	ra,0x2
83001e0c:	c38080e7          	jalr	-968(ra) # 83003a40 <__sflush_r>
83001e10:	00050493          	mv	s1,a0
83001e14:	02c42783          	lw	a5,44(s0)
83001e18:	00078a63          	beqz	a5,83001e2c <_fclose_r+0x8c>
83001e1c:	01c42583          	lw	a1,28(s0)
83001e20:	00090513          	mv	a0,s2
83001e24:	000780e7          	jalr	a5
83001e28:	06054063          	bltz	a0,83001e88 <_fclose_r+0xe8>
83001e2c:	00c45783          	lhu	a5,12(s0)
83001e30:	0807f793          	andi	a5,a5,128
83001e34:	04079e63          	bnez	a5,83001e90 <_fclose_r+0xf0>
83001e38:	03042583          	lw	a1,48(s0)
83001e3c:	00058e63          	beqz	a1,83001e58 <_fclose_r+0xb8>
83001e40:	04040793          	addi	a5,s0,64
83001e44:	00f58863          	beq	a1,a5,83001e54 <_fclose_r+0xb4>
83001e48:	00090513          	mv	a0,s2
83001e4c:	00005097          	auipc	ra,0x5
83001e50:	72c080e7          	jalr	1836(ra) # 83007578 <_free_r>
83001e54:	02042823          	sw	zero,48(s0)
83001e58:	04442583          	lw	a1,68(s0)
83001e5c:	00058a63          	beqz	a1,83001e70 <_fclose_r+0xd0>
83001e60:	00090513          	mv	a0,s2
83001e64:	00005097          	auipc	ra,0x5
83001e68:	714080e7          	jalr	1812(ra) # 83007578 <_free_r>
83001e6c:	04042223          	sw	zero,68(s0)
83001e70:	00000097          	auipc	ra,0x0
83001e74:	8b8080e7          	jalr	-1864(ra) # 83001728 <__sfp_lock_acquire>
83001e78:	00041623          	sh	zero,12(s0)
83001e7c:	00000097          	auipc	ra,0x0
83001e80:	8b0080e7          	jalr	-1872(ra) # 8300172c <__sfp_lock_release>
83001e84:	f55ff06f          	j	83001dd8 <_fclose_r+0x38>
83001e88:	fff00493          	li	s1,-1
83001e8c:	fa1ff06f          	j	83001e2c <_fclose_r+0x8c>
83001e90:	01042583          	lw	a1,16(s0)
83001e94:	00090513          	mv	a0,s2
83001e98:	00005097          	auipc	ra,0x5
83001e9c:	6e0080e7          	jalr	1760(ra) # 83007578 <_free_r>
83001ea0:	f99ff06f          	j	83001e38 <_fclose_r+0x98>
83001ea4:	00000493          	li	s1,0
83001ea8:	f31ff06f          	j	83001dd8 <_fclose_r+0x38>

83001eac <fclose>:
83001eac:	ff010113          	addi	sp,sp,-16
83001eb0:	00112623          	sw	ra,12(sp)
83001eb4:	00050593          	mv	a1,a0
83001eb8:	0000e517          	auipc	a0,0xe
83001ebc:	bc852503          	lw	a0,-1080(a0) # 8300fa80 <_impure_ptr>
83001ec0:	00000097          	auipc	ra,0x0
83001ec4:	ee0080e7          	jalr	-288(ra) # 83001da0 <_fclose_r>
83001ec8:	00c12083          	lw	ra,12(sp)
83001ecc:	01010113          	addi	sp,sp,16
83001ed0:	00008067          	ret

83001ed4 <_fprintf_r>:
83001ed4:	fc010113          	addi	sp,sp,-64
83001ed8:	00112e23          	sw	ra,28(sp)
83001edc:	02d12623          	sw	a3,44(sp)
83001ee0:	02e12823          	sw	a4,48(sp)
83001ee4:	02f12a23          	sw	a5,52(sp)
83001ee8:	03012c23          	sw	a6,56(sp)
83001eec:	03112e23          	sw	a7,60(sp)
83001ef0:	02c10693          	addi	a3,sp,44
83001ef4:	00d12623          	sw	a3,12(sp)
83001ef8:	00001097          	auipc	ra,0x1
83001efc:	fe0080e7          	jalr	-32(ra) # 83002ed8 <_vfprintf_r>
83001f00:	01c12083          	lw	ra,28(sp)
83001f04:	04010113          	addi	sp,sp,64
83001f08:	00008067          	ret

83001f0c <fprintf>:
83001f0c:	fc010113          	addi	sp,sp,-64
83001f10:	00112e23          	sw	ra,28(sp)
83001f14:	02c12423          	sw	a2,40(sp)
83001f18:	02d12623          	sw	a3,44(sp)
83001f1c:	02e12823          	sw	a4,48(sp)
83001f20:	02f12a23          	sw	a5,52(sp)
83001f24:	03012c23          	sw	a6,56(sp)
83001f28:	03112e23          	sw	a7,60(sp)
83001f2c:	02810693          	addi	a3,sp,40
83001f30:	00d12623          	sw	a3,12(sp)
83001f34:	00058613          	mv	a2,a1
83001f38:	00050593          	mv	a1,a0
83001f3c:	0000e517          	auipc	a0,0xe
83001f40:	b4452503          	lw	a0,-1212(a0) # 8300fa80 <_impure_ptr>
83001f44:	00001097          	auipc	ra,0x1
83001f48:	f94080e7          	jalr	-108(ra) # 83002ed8 <_vfprintf_r>
83001f4c:	01c12083          	lw	ra,28(sp)
83001f50:	04010113          	addi	sp,sp,64
83001f54:	00008067          	ret

83001f58 <__sread>:
83001f58:	ff010113          	addi	sp,sp,-16
83001f5c:	00112623          	sw	ra,12(sp)
83001f60:	00812423          	sw	s0,8(sp)
83001f64:	00058413          	mv	s0,a1
83001f68:	00e59583          	lh	a1,14(a1)
83001f6c:	00004097          	auipc	ra,0x4
83001f70:	528080e7          	jalr	1320(ra) # 83006494 <_read_r>
83001f74:	02054063          	bltz	a0,83001f94 <__sread+0x3c>
83001f78:	05042783          	lw	a5,80(s0)
83001f7c:	00a787b3          	add	a5,a5,a0
83001f80:	04f42823          	sw	a5,80(s0)
83001f84:	00c12083          	lw	ra,12(sp)
83001f88:	00812403          	lw	s0,8(sp)
83001f8c:	01010113          	addi	sp,sp,16
83001f90:	00008067          	ret
83001f94:	00c45783          	lhu	a5,12(s0)
83001f98:	fffff737          	lui	a4,0xfffff
83001f9c:	fff70713          	addi	a4,a4,-1 # ffffefff <__BSS_END__+0x7cfef4f7>
83001fa0:	00e7f7b3          	and	a5,a5,a4
83001fa4:	00f41623          	sh	a5,12(s0)
83001fa8:	fddff06f          	j	83001f84 <__sread+0x2c>

83001fac <__seofread>:
83001fac:	00000513          	li	a0,0
83001fb0:	00008067          	ret

83001fb4 <__swrite>:
83001fb4:	fe010113          	addi	sp,sp,-32
83001fb8:	00112e23          	sw	ra,28(sp)
83001fbc:	00812c23          	sw	s0,24(sp)
83001fc0:	00912a23          	sw	s1,20(sp)
83001fc4:	01212823          	sw	s2,16(sp)
83001fc8:	01312623          	sw	s3,12(sp)
83001fcc:	00050493          	mv	s1,a0
83001fd0:	00058413          	mv	s0,a1
83001fd4:	00060913          	mv	s2,a2
83001fd8:	00068993          	mv	s3,a3
83001fdc:	00c5d783          	lhu	a5,12(a1)
83001fe0:	1007f793          	andi	a5,a5,256
83001fe4:	04079663          	bnez	a5,83002030 <__swrite+0x7c>
83001fe8:	00c45783          	lhu	a5,12(s0)
83001fec:	fffff737          	lui	a4,0xfffff
83001ff0:	fff70713          	addi	a4,a4,-1 # ffffefff <__BSS_END__+0x7cfef4f7>
83001ff4:	00e7f7b3          	and	a5,a5,a4
83001ff8:	00f41623          	sh	a5,12(s0)
83001ffc:	00098693          	mv	a3,s3
83002000:	00090613          	mv	a2,s2
83002004:	00e41583          	lh	a1,14(s0)
83002008:	00048513          	mv	a0,s1
8300200c:	00004097          	auipc	ra,0x4
83002010:	3d8080e7          	jalr	984(ra) # 830063e4 <_write_r>
83002014:	01c12083          	lw	ra,28(sp)
83002018:	01812403          	lw	s0,24(sp)
8300201c:	01412483          	lw	s1,20(sp)
83002020:	01012903          	lw	s2,16(sp)
83002024:	00c12983          	lw	s3,12(sp)
83002028:	02010113          	addi	sp,sp,32
8300202c:	00008067          	ret
83002030:	00200693          	li	a3,2
83002034:	00000613          	li	a2,0
83002038:	00e59583          	lh	a1,14(a1)
8300203c:	00004097          	auipc	ra,0x4
83002040:	400080e7          	jalr	1024(ra) # 8300643c <_lseek_r>
83002044:	fa5ff06f          	j	83001fe8 <__swrite+0x34>

83002048 <__sseek>:
83002048:	ff010113          	addi	sp,sp,-16
8300204c:	00112623          	sw	ra,12(sp)
83002050:	00812423          	sw	s0,8(sp)
83002054:	00058413          	mv	s0,a1
83002058:	00e59583          	lh	a1,14(a1)
8300205c:	00004097          	auipc	ra,0x4
83002060:	3e0080e7          	jalr	992(ra) # 8300643c <_lseek_r>
83002064:	fff00793          	li	a5,-1
83002068:	02f50463          	beq	a0,a5,83002090 <__sseek+0x48>
8300206c:	00c45783          	lhu	a5,12(s0)
83002070:	00001737          	lui	a4,0x1
83002074:	00e7e7b3          	or	a5,a5,a4
83002078:	00f41623          	sh	a5,12(s0)
8300207c:	04a42823          	sw	a0,80(s0)
83002080:	00c12083          	lw	ra,12(sp)
83002084:	00812403          	lw	s0,8(sp)
83002088:	01010113          	addi	sp,sp,16
8300208c:	00008067          	ret
83002090:	00c45783          	lhu	a5,12(s0)
83002094:	fffff737          	lui	a4,0xfffff
83002098:	fff70713          	addi	a4,a4,-1 # ffffefff <__BSS_END__+0x7cfef4f7>
8300209c:	00e7f7b3          	and	a5,a5,a4
830020a0:	00f41623          	sh	a5,12(s0)
830020a4:	fddff06f          	j	83002080 <__sseek+0x38>

830020a8 <__sclose>:
830020a8:	ff010113          	addi	sp,sp,-16
830020ac:	00112623          	sw	ra,12(sp)
830020b0:	00e59583          	lh	a1,14(a1)
830020b4:	00004097          	auipc	ra,0x4
830020b8:	28c080e7          	jalr	652(ra) # 83006340 <_close_r>
830020bc:	00c12083          	lw	ra,12(sp)
830020c0:	01010113          	addi	sp,sp,16
830020c4:	00008067          	ret

830020c8 <_svfprintf_r>:
830020c8:	f8010113          	addi	sp,sp,-128
830020cc:	06112e23          	sw	ra,124(sp)
830020d0:	06812c23          	sw	s0,120(sp)
830020d4:	06912a23          	sw	s1,116(sp)
830020d8:	07212823          	sw	s2,112(sp)
830020dc:	07312623          	sw	s3,108(sp)
830020e0:	07412423          	sw	s4,104(sp)
830020e4:	07512223          	sw	s5,100(sp)
830020e8:	07612023          	sw	s6,96(sp)
830020ec:	05712e23          	sw	s7,92(sp)
830020f0:	05812c23          	sw	s8,88(sp)
830020f4:	05912a23          	sw	s9,84(sp)
830020f8:	05a12823          	sw	s10,80(sp)
830020fc:	05b12623          	sw	s11,76(sp)
83002100:	00050993          	mv	s3,a0
83002104:	00058913          	mv	s2,a1
83002108:	00060a13          	mv	s4,a2
8300210c:	00d12623          	sw	a3,12(sp)
83002110:	00c5d783          	lhu	a5,12(a1)
83002114:	0807f793          	andi	a5,a5,128
83002118:	00078663          	beqz	a5,83002124 <_svfprintf_r+0x5c>
8300211c:	0105a783          	lw	a5,16(a1)
83002120:	00078863          	beqz	a5,83002130 <_svfprintf_r+0x68>
83002124:	00012423          	sw	zero,8(sp)
83002128:	00012223          	sw	zero,4(sp)
8300212c:	64c0006f          	j	83002778 <_svfprintf_r+0x6b0>
83002130:	04000593          	li	a1,64
83002134:	00006097          	auipc	ra,0x6
83002138:	a08080e7          	jalr	-1528(ra) # 83007b3c <_malloc_r>
8300213c:	00a92023          	sw	a0,0(s2)
83002140:	00a92823          	sw	a0,16(s2)
83002144:	00050863          	beqz	a0,83002154 <_svfprintf_r+0x8c>
83002148:	04000793          	li	a5,64
8300214c:	00f92a23          	sw	a5,20(s2)
83002150:	fd5ff06f          	j	83002124 <_svfprintf_r+0x5c>
83002154:	00c00793          	li	a5,12
83002158:	00f9a023          	sw	a5,0(s3)
8300215c:	fff00793          	li	a5,-1
83002160:	00f12223          	sw	a5,4(sp)
83002164:	7b80006f          	j	8300291c <_svfprintf_r+0x854>
83002168:	00140413          	addi	s0,s0,1
8300216c:	00044783          	lbu	a5,0(s0)
83002170:	00078663          	beqz	a5,8300217c <_svfprintf_r+0xb4>
83002174:	02500713          	li	a4,37
83002178:	fee798e3          	bne	a5,a4,83002168 <_svfprintf_r+0xa0>
8300217c:	414404b3          	sub	s1,s0,s4
83002180:	05441863          	bne	s0,s4,830021d0 <_svfprintf_r+0x108>
83002184:	00044783          	lbu	a5,0(s0)
83002188:	78078463          	beqz	a5,83002910 <_svfprintf_r+0x848>
8300218c:	00140793          	addi	a5,s0,1
83002190:	02010fa3          	sb	zero,63(sp)
83002194:	fff00413          	li	s0,-1
83002198:	00000b13          	li	s6,0
8300219c:	00000a93          	li	s5,0
830021a0:	00178a13          	addi	s4,a5,1
830021a4:	0007c703          	lbu	a4,0(a5)
830021a8:	fe070793          	addi	a5,a4,-32
830021ac:	05800693          	li	a3,88
830021b0:	5ef6ee63          	bltu	a3,a5,830027ac <_svfprintf_r+0x6e4>
830021b4:	00279793          	slli	a5,a5,0x2
830021b8:	0000b697          	auipc	a3,0xb
830021bc:	0cc68693          	addi	a3,a3,204 # 8300d284 <__func__.0+0x58>
830021c0:	00d787b3          	add	a5,a5,a3
830021c4:	0007a783          	lw	a5,0(a5)
830021c8:	00d787b3          	add	a5,a5,a3
830021cc:	00078067          	jr	a5
830021d0:	00048693          	mv	a3,s1
830021d4:	000a0613          	mv	a2,s4
830021d8:	00090593          	mv	a1,s2
830021dc:	00098513          	mv	a0,s3
830021e0:	00003097          	auipc	ra,0x3
830021e4:	37c080e7          	jalr	892(ra) # 8300555c <__ssputs_r>
830021e8:	fff00793          	li	a5,-1
830021ec:	72f50263          	beq	a0,a5,83002910 <_svfprintf_r+0x848>
830021f0:	00412783          	lw	a5,4(sp)
830021f4:	009787b3          	add	a5,a5,s1
830021f8:	00f12223          	sw	a5,4(sp)
830021fc:	f89ff06f          	j	83002184 <_svfprintf_r+0xbc>
83002200:	0000b797          	auipc	a5,0xb
83002204:	04c78793          	addi	a5,a5,76 # 8300d24c <__func__.0+0x20>
83002208:	00f12423          	sw	a5,8(sp)
8300220c:	3b00006f          	j	830025bc <_svfprintf_r+0x4f4>
83002210:	03f14783          	lbu	a5,63(sp)
83002214:	02079a63          	bnez	a5,83002248 <_svfprintf_r+0x180>
83002218:	02000793          	li	a5,32
8300221c:	02f10fa3          	sb	a5,63(sp)
83002220:	0280006f          	j	83002248 <_svfprintf_r+0x180>
83002224:	001aea93          	ori	s5,s5,1
83002228:	0200006f          	j	83002248 <_svfprintf_r+0x180>
8300222c:	00c12783          	lw	a5,12(sp)
83002230:	00478713          	addi	a4,a5,4
83002234:	00e12623          	sw	a4,12(sp)
83002238:	0007ab03          	lw	s6,0(a5)
8300223c:	000b5663          	bgez	s6,83002248 <_svfprintf_r+0x180>
83002240:	41600b33          	neg	s6,s6
83002244:	004aea93          	ori	s5,s5,4
83002248:	000a0793          	mv	a5,s4
8300224c:	f55ff06f          	j	830021a0 <_svfprintf_r+0xd8>
83002250:	02b00793          	li	a5,43
83002254:	02f10fa3          	sb	a5,63(sp)
83002258:	ff1ff06f          	j	83002248 <_svfprintf_r+0x180>
8300225c:	001a0693          	addi	a3,s4,1
83002260:	000a4703          	lbu	a4,0(s4)
83002264:	02a00793          	li	a5,42
83002268:	00f70663          	beq	a4,a5,83002274 <_svfprintf_r+0x1ac>
8300226c:	00000413          	li	s0,0
83002270:	0400006f          	j	830022b0 <_svfprintf_r+0x1e8>
83002274:	00c12783          	lw	a5,12(sp)
83002278:	00478713          	addi	a4,a5,4
8300227c:	00e12623          	sw	a4,12(sp)
83002280:	0007a403          	lw	s0,0(a5)
83002284:	00044663          	bltz	s0,83002290 <_svfprintf_r+0x1c8>
83002288:	00068a13          	mv	s4,a3
8300228c:	fbdff06f          	j	83002248 <_svfprintf_r+0x180>
83002290:	fff00413          	li	s0,-1
83002294:	ff5ff06f          	j	83002288 <_svfprintf_r+0x1c0>
83002298:	00241793          	slli	a5,s0,0x2
8300229c:	008787b3          	add	a5,a5,s0
830022a0:	00179793          	slli	a5,a5,0x1
830022a4:	00c78433          	add	s0,a5,a2
830022a8:	0006c703          	lbu	a4,0(a3)
830022ac:	00168693          	addi	a3,a3,1
830022b0:	fd070613          	addi	a2,a4,-48
830022b4:	00900793          	li	a5,9
830022b8:	fec7f0e3          	bgeu	a5,a2,83002298 <_svfprintf_r+0x1d0>
830022bc:	00044663          	bltz	s0,830022c8 <_svfprintf_r+0x200>
830022c0:	00068a13          	mv	s4,a3
830022c4:	ee5ff06f          	j	830021a8 <_svfprintf_r+0xe0>
830022c8:	fff00413          	li	s0,-1
830022cc:	ff5ff06f          	j	830022c0 <_svfprintf_r+0x1f8>
830022d0:	080aea93          	ori	s5,s5,128
830022d4:	f75ff06f          	j	83002248 <_svfprintf_r+0x180>
830022d8:	00000b13          	li	s6,0
830022dc:	002b1793          	slli	a5,s6,0x2
830022e0:	016787b3          	add	a5,a5,s6
830022e4:	00179793          	slli	a5,a5,0x1
830022e8:	fd070713          	addi	a4,a4,-48
830022ec:	00e78b33          	add	s6,a5,a4
830022f0:	000a4703          	lbu	a4,0(s4)
830022f4:	001a0a13          	addi	s4,s4,1
830022f8:	fd070693          	addi	a3,a4,-48
830022fc:	00900793          	li	a5,9
83002300:	fcd7fee3          	bgeu	a5,a3,830022dc <_svfprintf_r+0x214>
83002304:	ea5ff06f          	j	830021a8 <_svfprintf_r+0xe0>
83002308:	040aea93          	ori	s5,s5,64
8300230c:	f3dff06f          	j	83002248 <_svfprintf_r+0x180>
83002310:	010aea93          	ori	s5,s5,16
83002314:	f35ff06f          	j	83002248 <_svfprintf_r+0x180>
83002318:	010aea93          	ori	s5,s5,16
8300231c:	f2dff06f          	j	83002248 <_svfprintf_r+0x180>
83002320:	00c12783          	lw	a5,12(sp)
83002324:	00478713          	addi	a4,a5,4
83002328:	00e12623          	sw	a4,12(sp)
8300232c:	0007a783          	lw	a5,0(a5)
83002330:	00f10a23          	sb	a5,20(sp)
83002334:	02010fa3          	sb	zero,63(sp)
83002338:	00100b93          	li	s7,1
8300233c:	00000413          	li	s0,0
83002340:	01410493          	addi	s1,sp,20
83002344:	3a00006f          	j	830026e4 <_svfprintf_r+0x61c>
83002348:	010aea93          	ori	s5,s5,16
8300234c:	010af793          	andi	a5,s5,16
83002350:	02078063          	beqz	a5,83002370 <_svfprintf_r+0x2a8>
83002354:	00c12783          	lw	a5,12(sp)
83002358:	00478713          	addi	a4,a5,4
8300235c:	00e12623          	sw	a4,12(sp)
83002360:	0007a783          	lw	a5,0(a5)
83002364:	0207ce63          	bltz	a5,830023a0 <_svfprintf_r+0x2d8>
83002368:	00100713          	li	a4,1
8300236c:	0cc0006f          	j	83002438 <_svfprintf_r+0x370>
83002370:	040af793          	andi	a5,s5,64
83002374:	00078c63          	beqz	a5,8300238c <_svfprintf_r+0x2c4>
83002378:	00c12783          	lw	a5,12(sp)
8300237c:	00478713          	addi	a4,a5,4
83002380:	00e12623          	sw	a4,12(sp)
83002384:	00079783          	lh	a5,0(a5)
83002388:	fddff06f          	j	83002364 <_svfprintf_r+0x29c>
8300238c:	00c12783          	lw	a5,12(sp)
83002390:	00478713          	addi	a4,a5,4
83002394:	00e12623          	sw	a4,12(sp)
83002398:	0007a783          	lw	a5,0(a5)
8300239c:	fc9ff06f          	j	83002364 <_svfprintf_r+0x29c>
830023a0:	40f007b3          	neg	a5,a5
830023a4:	02d00713          	li	a4,45
830023a8:	02e10fa3          	sb	a4,63(sp)
830023ac:	fbdff06f          	j	83002368 <_svfprintf_r+0x2a0>
830023b0:	010af793          	andi	a5,s5,16
830023b4:	02078063          	beqz	a5,830023d4 <_svfprintf_r+0x30c>
830023b8:	00c12783          	lw	a5,12(sp)
830023bc:	00478713          	addi	a4,a5,4
830023c0:	00e12623          	sw	a4,12(sp)
830023c4:	0007a783          	lw	a5,0(a5)
830023c8:	00412703          	lw	a4,4(sp)
830023cc:	00e7a023          	sw	a4,0(a5)
830023d0:	3a80006f          	j	83002778 <_svfprintf_r+0x6b0>
830023d4:	040afa93          	andi	s5,s5,64
830023d8:	020a8063          	beqz	s5,830023f8 <_svfprintf_r+0x330>
830023dc:	00c12783          	lw	a5,12(sp)
830023e0:	00478713          	addi	a4,a5,4
830023e4:	00e12623          	sw	a4,12(sp)
830023e8:	0007a783          	lw	a5,0(a5)
830023ec:	00412703          	lw	a4,4(sp)
830023f0:	00e79023          	sh	a4,0(a5)
830023f4:	3840006f          	j	83002778 <_svfprintf_r+0x6b0>
830023f8:	00c12783          	lw	a5,12(sp)
830023fc:	00478713          	addi	a4,a5,4
83002400:	00e12623          	sw	a4,12(sp)
83002404:	0007a783          	lw	a5,0(a5)
83002408:	00412703          	lw	a4,4(sp)
8300240c:	00e7a023          	sw	a4,0(a5)
83002410:	3680006f          	j	83002778 <_svfprintf_r+0x6b0>
83002414:	010aea93          	ori	s5,s5,16
83002418:	010af793          	andi	a5,s5,16
8300241c:	06078063          	beqz	a5,8300247c <_svfprintf_r+0x3b4>
83002420:	00c12783          	lw	a5,12(sp)
83002424:	00478713          	addi	a4,a5,4
83002428:	00e12623          	sw	a4,12(sp)
8300242c:	0007a783          	lw	a5,0(a5)
83002430:	00000713          	li	a4,0
83002434:	02010fa3          	sb	zero,63(sp)
83002438:	00044463          	bltz	s0,83002440 <_svfprintf_r+0x378>
8300243c:	f7fafa93          	andi	s5,s5,-129
83002440:	00079463          	bnez	a5,83002448 <_svfprintf_r+0x380>
83002444:	32040e63          	beqz	s0,83002780 <_svfprintf_r+0x6b8>
83002448:	00100693          	li	a3,1
8300244c:	22d70463          	beq	a4,a3,83002674 <_svfprintf_r+0x5ac>
83002450:	00200693          	li	a3,2
83002454:	26d70263          	beq	a4,a3,830026b8 <_svfprintf_r+0x5f0>
83002458:	1e070063          	beqz	a4,83002638 <_svfprintf_r+0x570>
8300245c:	0000b517          	auipc	a0,0xb
83002460:	e0c50513          	addi	a0,a0,-500 # 8300d268 <__func__.0+0x3c>
83002464:	00006097          	auipc	ra,0x6
83002468:	058080e7          	jalr	88(ra) # 830084bc <strlen>
8300246c:	00050b93          	mv	s7,a0
83002470:	0000b497          	auipc	s1,0xb
83002474:	df848493          	addi	s1,s1,-520 # 8300d268 <__func__.0+0x3c>
83002478:	26c0006f          	j	830026e4 <_svfprintf_r+0x61c>
8300247c:	040af793          	andi	a5,s5,64
83002480:	00078c63          	beqz	a5,83002498 <_svfprintf_r+0x3d0>
83002484:	00c12783          	lw	a5,12(sp)
83002488:	00478713          	addi	a4,a5,4
8300248c:	00e12623          	sw	a4,12(sp)
83002490:	0007d783          	lhu	a5,0(a5)
83002494:	f9dff06f          	j	83002430 <_svfprintf_r+0x368>
83002498:	00c12783          	lw	a5,12(sp)
8300249c:	00478713          	addi	a4,a5,4
830024a0:	00e12623          	sw	a4,12(sp)
830024a4:	0007a783          	lw	a5,0(a5)
830024a8:	f89ff06f          	j	83002430 <_svfprintf_r+0x368>
830024ac:	00c12783          	lw	a5,12(sp)
830024b0:	00478713          	addi	a4,a5,4
830024b4:	00e12623          	sw	a4,12(sp)
830024b8:	0007a783          	lw	a5,0(a5)
830024bc:	002aea93          	ori	s5,s5,2
830024c0:	03000713          	li	a4,48
830024c4:	00e10823          	sb	a4,16(sp)
830024c8:	07800713          	li	a4,120
830024cc:	00e108a3          	sb	a4,17(sp)
830024d0:	0000b717          	auipc	a4,0xb
830024d4:	d7c70713          	addi	a4,a4,-644 # 8300d24c <__func__.0+0x20>
830024d8:	00e12423          	sw	a4,8(sp)
830024dc:	00200713          	li	a4,2
830024e0:	f55ff06f          	j	83002434 <_svfprintf_r+0x36c>
830024e4:	00c12783          	lw	a5,12(sp)
830024e8:	00478713          	addi	a4,a5,4
830024ec:	00e12623          	sw	a4,12(sp)
830024f0:	0007a483          	lw	s1,0(a5)
830024f4:	02010fa3          	sb	zero,63(sp)
830024f8:	02048663          	beqz	s1,83002524 <_svfprintf_r+0x45c>
830024fc:	04044463          	bltz	s0,83002544 <_svfprintf_r+0x47c>
83002500:	00040613          	mv	a2,s0
83002504:	00000593          	li	a1,0
83002508:	00048513          	mv	a0,s1
8300250c:	00006097          	auipc	ra,0x6
83002510:	0c0080e7          	jalr	192(ra) # 830085cc <memchr>
83002514:	2a050a63          	beqz	a0,830027c8 <_svfprintf_r+0x700>
83002518:	40950bb3          	sub	s7,a0,s1
8300251c:	00000413          	li	s0,0
83002520:	1c40006f          	j	830026e4 <_svfprintf_r+0x61c>
83002524:	00040b93          	mv	s7,s0
83002528:	00600793          	li	a5,6
8300252c:	0087f463          	bgeu	a5,s0,83002534 <_svfprintf_r+0x46c>
83002530:	00600b93          	li	s7,6
83002534:	00000413          	li	s0,0
83002538:	0000b497          	auipc	s1,0xb
8300253c:	d2848493          	addi	s1,s1,-728 # 8300d260 <__func__.0+0x34>
83002540:	1a40006f          	j	830026e4 <_svfprintf_r+0x61c>
83002544:	00048513          	mv	a0,s1
83002548:	00006097          	auipc	ra,0x6
8300254c:	f74080e7          	jalr	-140(ra) # 830084bc <strlen>
83002550:	00050b93          	mv	s7,a0
83002554:	00000413          	li	s0,0
83002558:	18c0006f          	j	830026e4 <_svfprintf_r+0x61c>
8300255c:	010aea93          	ori	s5,s5,16
83002560:	010af793          	andi	a5,s5,16
83002564:	00078e63          	beqz	a5,83002580 <_svfprintf_r+0x4b8>
83002568:	00c12783          	lw	a5,12(sp)
8300256c:	00478713          	addi	a4,a5,4
83002570:	00e12623          	sw	a4,12(sp)
83002574:	0007a783          	lw	a5,0(a5)
83002578:	00100713          	li	a4,1
8300257c:	eb9ff06f          	j	83002434 <_svfprintf_r+0x36c>
83002580:	040af793          	andi	a5,s5,64
83002584:	00078c63          	beqz	a5,8300259c <_svfprintf_r+0x4d4>
83002588:	00c12783          	lw	a5,12(sp)
8300258c:	00478713          	addi	a4,a5,4
83002590:	00e12623          	sw	a4,12(sp)
83002594:	0007d783          	lhu	a5,0(a5)
83002598:	fe1ff06f          	j	83002578 <_svfprintf_r+0x4b0>
8300259c:	00c12783          	lw	a5,12(sp)
830025a0:	00478713          	addi	a4,a5,4
830025a4:	00e12623          	sw	a4,12(sp)
830025a8:	0007a783          	lw	a5,0(a5)
830025ac:	fcdff06f          	j	83002578 <_svfprintf_r+0x4b0>
830025b0:	0000b797          	auipc	a5,0xb
830025b4:	c8878793          	addi	a5,a5,-888 # 8300d238 <__func__.0+0xc>
830025b8:	00f12423          	sw	a5,8(sp)
830025bc:	010af793          	andi	a5,s5,16
830025c0:	02078c63          	beqz	a5,830025f8 <_svfprintf_r+0x530>
830025c4:	00c12783          	lw	a5,12(sp)
830025c8:	00478693          	addi	a3,a5,4
830025cc:	00d12623          	sw	a3,12(sp)
830025d0:	0007a783          	lw	a5,0(a5)
830025d4:	001af693          	andi	a3,s5,1
830025d8:	04068863          	beqz	a3,83002628 <_svfprintf_r+0x560>
830025dc:	04078a63          	beqz	a5,83002630 <_svfprintf_r+0x568>
830025e0:	03000693          	li	a3,48
830025e4:	00d10823          	sb	a3,16(sp)
830025e8:	00e108a3          	sb	a4,17(sp)
830025ec:	002aea93          	ori	s5,s5,2
830025f0:	00200713          	li	a4,2
830025f4:	e41ff06f          	j	83002434 <_svfprintf_r+0x36c>
830025f8:	040af793          	andi	a5,s5,64
830025fc:	00078c63          	beqz	a5,83002614 <_svfprintf_r+0x54c>
83002600:	00c12783          	lw	a5,12(sp)
83002604:	00478693          	addi	a3,a5,4
83002608:	00d12623          	sw	a3,12(sp)
8300260c:	0007d783          	lhu	a5,0(a5)
83002610:	fc5ff06f          	j	830025d4 <_svfprintf_r+0x50c>
83002614:	00c12783          	lw	a5,12(sp)
83002618:	00478693          	addi	a3,a5,4
8300261c:	00d12623          	sw	a3,12(sp)
83002620:	0007a783          	lw	a5,0(a5)
83002624:	fb1ff06f          	j	830025d4 <_svfprintf_r+0x50c>
83002628:	00200713          	li	a4,2
8300262c:	e09ff06f          	j	83002434 <_svfprintf_r+0x36c>
83002630:	00200713          	li	a4,2
83002634:	e01ff06f          	j	83002434 <_svfprintf_r+0x36c>
83002638:	03c10493          	addi	s1,sp,60
8300263c:	0077f713          	andi	a4,a5,7
83002640:	00048693          	mv	a3,s1
83002644:	fff48493          	addi	s1,s1,-1
83002648:	03070713          	addi	a4,a4,48
8300264c:	00e48023          	sb	a4,0(s1)
83002650:	0037d793          	srli	a5,a5,0x3
83002654:	fe0794e3          	bnez	a5,8300263c <_svfprintf_r+0x574>
83002658:	001af793          	andi	a5,s5,1
8300265c:	08078063          	beqz	a5,830026dc <_svfprintf_r+0x614>
83002660:	03000793          	li	a5,48
83002664:	06f70c63          	beq	a4,a5,830026dc <_svfprintf_r+0x614>
83002668:	fef48fa3          	sb	a5,-1(s1)
8300266c:	ffe68493          	addi	s1,a3,-2
83002670:	06c0006f          	j	830026dc <_svfprintf_r+0x614>
83002674:	00900713          	li	a4,9
83002678:	00f76a63          	bltu	a4,a5,8300268c <_svfprintf_r+0x5c4>
8300267c:	03078793          	addi	a5,a5,48
83002680:	02f10da3          	sb	a5,59(sp)
83002684:	03b10493          	addi	s1,sp,59
83002688:	0540006f          	j	830026dc <_svfprintf_r+0x614>
8300268c:	03c10493          	addi	s1,sp,60
83002690:	00a00693          	li	a3,10
83002694:	02d7f733          	remu	a4,a5,a3
83002698:	fff48493          	addi	s1,s1,-1
8300269c:	03070713          	addi	a4,a4,48
830026a0:	00e48023          	sb	a4,0(s1)
830026a4:	00078613          	mv	a2,a5
830026a8:	02d7d7b3          	divu	a5,a5,a3
830026ac:	00900713          	li	a4,9
830026b0:	fec760e3          	bltu	a4,a2,83002690 <_svfprintf_r+0x5c8>
830026b4:	0280006f          	j	830026dc <_svfprintf_r+0x614>
830026b8:	03c10493          	addi	s1,sp,60
830026bc:	00f7f713          	andi	a4,a5,15
830026c0:	fff48493          	addi	s1,s1,-1
830026c4:	00812683          	lw	a3,8(sp)
830026c8:	00e68733          	add	a4,a3,a4
830026cc:	00074703          	lbu	a4,0(a4)
830026d0:	00e48023          	sb	a4,0(s1)
830026d4:	0047d793          	srli	a5,a5,0x4
830026d8:	fe0792e3          	bnez	a5,830026bc <_svfprintf_r+0x5f4>
830026dc:	03c10b93          	addi	s7,sp,60
830026e0:	409b8bb3          	sub	s7,s7,s1
830026e4:	00040c93          	mv	s9,s0
830026e8:	01745463          	bge	s0,s7,830026f0 <_svfprintf_r+0x628>
830026ec:	000b8c93          	mv	s9,s7
830026f0:	03f14783          	lbu	a5,63(sp)
830026f4:	00078463          	beqz	a5,830026fc <_svfprintf_r+0x634>
830026f8:	001c8c93          	addi	s9,s9,1
830026fc:	002afd13          	andi	s10,s5,2
83002700:	000d0463          	beqz	s10,83002708 <_svfprintf_r+0x640>
83002704:	002c8c93          	addi	s9,s9,2
83002708:	084afd93          	andi	s11,s5,132
8300270c:	000d9663          	bnez	s11,83002718 <_svfprintf_r+0x650>
83002710:	419b0c33          	sub	s8,s6,s9
83002714:	0d804063          	bgtz	s8,830027d4 <_svfprintf_r+0x70c>
83002718:	03f14783          	lbu	a5,63(sp)
8300271c:	10079a63          	bnez	a5,83002830 <_svfprintf_r+0x768>
83002720:	120d1a63          	bnez	s10,83002854 <_svfprintf_r+0x78c>
83002724:	08000793          	li	a5,128
83002728:	14fd8863          	beq	s11,a5,83002878 <_svfprintf_r+0x7b0>
8300272c:	41740433          	sub	s0,s0,s7
83002730:	1a804a63          	bgtz	s0,830028e4 <_svfprintf_r+0x81c>
83002734:	000b8693          	mv	a3,s7
83002738:	00048613          	mv	a2,s1
8300273c:	00090593          	mv	a1,s2
83002740:	00098513          	mv	a0,s3
83002744:	00003097          	auipc	ra,0x3
83002748:	e18080e7          	jalr	-488(ra) # 8300555c <__ssputs_r>
8300274c:	fff00793          	li	a5,-1
83002750:	1cf50063          	beq	a0,a5,83002910 <_svfprintf_r+0x848>
83002754:	004afa93          	andi	s5,s5,4
83002758:	000a8663          	beqz	s5,83002764 <_svfprintf_r+0x69c>
8300275c:	419b0433          	sub	s0,s6,s9
83002760:	22804263          	bgtz	s0,83002984 <_svfprintf_r+0x8bc>
83002764:	019b5463          	bge	s6,s9,8300276c <_svfprintf_r+0x6a4>
83002768:	000c8b13          	mv	s6,s9
8300276c:	00412783          	lw	a5,4(sp)
83002770:	016787b3          	add	a5,a5,s6
83002774:	00f12223          	sw	a5,4(sp)
83002778:	000a0413          	mv	s0,s4
8300277c:	9f1ff06f          	j	8300216c <_svfprintf_r+0xa4>
83002780:	00071e63          	bnez	a4,8300279c <_svfprintf_r+0x6d4>
83002784:	001af793          	andi	a5,s5,1
83002788:	00078e63          	beqz	a5,830027a4 <_svfprintf_r+0x6dc>
8300278c:	03000793          	li	a5,48
83002790:	02f10da3          	sb	a5,59(sp)
83002794:	03b10493          	addi	s1,sp,59
83002798:	f45ff06f          	j	830026dc <_svfprintf_r+0x614>
8300279c:	03c10493          	addi	s1,sp,60
830027a0:	f3dff06f          	j	830026dc <_svfprintf_r+0x614>
830027a4:	03c10493          	addi	s1,sp,60
830027a8:	f35ff06f          	j	830026dc <_svfprintf_r+0x614>
830027ac:	16070263          	beqz	a4,83002910 <_svfprintf_r+0x848>
830027b0:	00e10a23          	sb	a4,20(sp)
830027b4:	02010fa3          	sb	zero,63(sp)
830027b8:	00100b93          	li	s7,1
830027bc:	00000413          	li	s0,0
830027c0:	01410493          	addi	s1,sp,20
830027c4:	f21ff06f          	j	830026e4 <_svfprintf_r+0x61c>
830027c8:	00040b93          	mv	s7,s0
830027cc:	00000413          	li	s0,0
830027d0:	f15ff06f          	j	830026e4 <_svfprintf_r+0x61c>
830027d4:	01000793          	li	a5,16
830027d8:	0387d863          	bge	a5,s8,83002808 <_svfprintf_r+0x740>
830027dc:	01000693          	li	a3,16
830027e0:	0000b617          	auipc	a2,0xb
830027e4:	c0860613          	addi	a2,a2,-1016 # 8300d3e8 <blanks.1>
830027e8:	00090593          	mv	a1,s2
830027ec:	00098513          	mv	a0,s3
830027f0:	00003097          	auipc	ra,0x3
830027f4:	d6c080e7          	jalr	-660(ra) # 8300555c <__ssputs_r>
830027f8:	fff00793          	li	a5,-1
830027fc:	10f50a63          	beq	a0,a5,83002910 <_svfprintf_r+0x848>
83002800:	ff0c0c13          	addi	s8,s8,-16
83002804:	fd1ff06f          	j	830027d4 <_svfprintf_r+0x70c>
83002808:	000c0693          	mv	a3,s8
8300280c:	0000b617          	auipc	a2,0xb
83002810:	bdc60613          	addi	a2,a2,-1060 # 8300d3e8 <blanks.1>
83002814:	00090593          	mv	a1,s2
83002818:	00098513          	mv	a0,s3
8300281c:	00003097          	auipc	ra,0x3
83002820:	d40080e7          	jalr	-704(ra) # 8300555c <__ssputs_r>
83002824:	fff00793          	li	a5,-1
83002828:	eef518e3          	bne	a0,a5,83002718 <_svfprintf_r+0x650>
8300282c:	0e40006f          	j	83002910 <_svfprintf_r+0x848>
83002830:	00100693          	li	a3,1
83002834:	03f10613          	addi	a2,sp,63
83002838:	00090593          	mv	a1,s2
8300283c:	00098513          	mv	a0,s3
83002840:	00003097          	auipc	ra,0x3
83002844:	d1c080e7          	jalr	-740(ra) # 8300555c <__ssputs_r>
83002848:	fff00793          	li	a5,-1
8300284c:	ecf51ae3          	bne	a0,a5,83002720 <_svfprintf_r+0x658>
83002850:	0c00006f          	j	83002910 <_svfprintf_r+0x848>
83002854:	00200693          	li	a3,2
83002858:	01010613          	addi	a2,sp,16
8300285c:	00090593          	mv	a1,s2
83002860:	00098513          	mv	a0,s3
83002864:	00003097          	auipc	ra,0x3
83002868:	cf8080e7          	jalr	-776(ra) # 8300555c <__ssputs_r>
8300286c:	fff00793          	li	a5,-1
83002870:	eaf51ae3          	bne	a0,a5,83002724 <_svfprintf_r+0x65c>
83002874:	09c0006f          	j	83002910 <_svfprintf_r+0x848>
83002878:	419b0c33          	sub	s8,s6,s9
8300287c:	eb8058e3          	blez	s8,8300272c <_svfprintf_r+0x664>
83002880:	0080006f          	j	83002888 <_svfprintf_r+0x7c0>
83002884:	ff0c0c13          	addi	s8,s8,-16
83002888:	01000793          	li	a5,16
8300288c:	0387d663          	bge	a5,s8,830028b8 <_svfprintf_r+0x7f0>
83002890:	01000693          	li	a3,16
83002894:	0000b617          	auipc	a2,0xb
83002898:	b6460613          	addi	a2,a2,-1180 # 8300d3f8 <zeroes.0>
8300289c:	00090593          	mv	a1,s2
830028a0:	00098513          	mv	a0,s3
830028a4:	00003097          	auipc	ra,0x3
830028a8:	cb8080e7          	jalr	-840(ra) # 8300555c <__ssputs_r>
830028ac:	fff00793          	li	a5,-1
830028b0:	fcf51ae3          	bne	a0,a5,83002884 <_svfprintf_r+0x7bc>
830028b4:	05c0006f          	j	83002910 <_svfprintf_r+0x848>
830028b8:	000c0693          	mv	a3,s8
830028bc:	0000b617          	auipc	a2,0xb
830028c0:	b3c60613          	addi	a2,a2,-1220 # 8300d3f8 <zeroes.0>
830028c4:	00090593          	mv	a1,s2
830028c8:	00098513          	mv	a0,s3
830028cc:	00003097          	auipc	ra,0x3
830028d0:	c90080e7          	jalr	-880(ra) # 8300555c <__ssputs_r>
830028d4:	fff00793          	li	a5,-1
830028d8:	e4f51ae3          	bne	a0,a5,8300272c <_svfprintf_r+0x664>
830028dc:	0340006f          	j	83002910 <_svfprintf_r+0x848>
830028e0:	ff040413          	addi	s0,s0,-16
830028e4:	01000793          	li	a5,16
830028e8:	0687da63          	bge	a5,s0,8300295c <_svfprintf_r+0x894>
830028ec:	01000693          	li	a3,16
830028f0:	0000b617          	auipc	a2,0xb
830028f4:	b0860613          	addi	a2,a2,-1272 # 8300d3f8 <zeroes.0>
830028f8:	00090593          	mv	a1,s2
830028fc:	00098513          	mv	a0,s3
83002900:	00003097          	auipc	ra,0x3
83002904:	c5c080e7          	jalr	-932(ra) # 8300555c <__ssputs_r>
83002908:	fff00793          	li	a5,-1
8300290c:	fcf51ae3          	bne	a0,a5,830028e0 <_svfprintf_r+0x818>
83002910:	00c95783          	lhu	a5,12(s2)
83002914:	0407f793          	andi	a5,a5,64
83002918:	0c079463          	bnez	a5,830029e0 <_svfprintf_r+0x918>
8300291c:	00412503          	lw	a0,4(sp)
83002920:	07c12083          	lw	ra,124(sp)
83002924:	07812403          	lw	s0,120(sp)
83002928:	07412483          	lw	s1,116(sp)
8300292c:	07012903          	lw	s2,112(sp)
83002930:	06c12983          	lw	s3,108(sp)
83002934:	06812a03          	lw	s4,104(sp)
83002938:	06412a83          	lw	s5,100(sp)
8300293c:	06012b03          	lw	s6,96(sp)
83002940:	05c12b83          	lw	s7,92(sp)
83002944:	05812c03          	lw	s8,88(sp)
83002948:	05412c83          	lw	s9,84(sp)
8300294c:	05012d03          	lw	s10,80(sp)
83002950:	04c12d83          	lw	s11,76(sp)
83002954:	08010113          	addi	sp,sp,128
83002958:	00008067          	ret
8300295c:	00040693          	mv	a3,s0
83002960:	0000b617          	auipc	a2,0xb
83002964:	a9860613          	addi	a2,a2,-1384 # 8300d3f8 <zeroes.0>
83002968:	00090593          	mv	a1,s2
8300296c:	00098513          	mv	a0,s3
83002970:	00003097          	auipc	ra,0x3
83002974:	bec080e7          	jalr	-1044(ra) # 8300555c <__ssputs_r>
83002978:	fff00793          	li	a5,-1
8300297c:	daf51ce3          	bne	a0,a5,83002734 <_svfprintf_r+0x66c>
83002980:	f91ff06f          	j	83002910 <_svfprintf_r+0x848>
83002984:	01000793          	li	a5,16
83002988:	0287d863          	bge	a5,s0,830029b8 <_svfprintf_r+0x8f0>
8300298c:	01000693          	li	a3,16
83002990:	0000b617          	auipc	a2,0xb
83002994:	a5860613          	addi	a2,a2,-1448 # 8300d3e8 <blanks.1>
83002998:	00090593          	mv	a1,s2
8300299c:	00098513          	mv	a0,s3
830029a0:	00003097          	auipc	ra,0x3
830029a4:	bbc080e7          	jalr	-1092(ra) # 8300555c <__ssputs_r>
830029a8:	fff00793          	li	a5,-1
830029ac:	f6f502e3          	beq	a0,a5,83002910 <_svfprintf_r+0x848>
830029b0:	ff040413          	addi	s0,s0,-16
830029b4:	fd1ff06f          	j	83002984 <_svfprintf_r+0x8bc>
830029b8:	00040693          	mv	a3,s0
830029bc:	0000b617          	auipc	a2,0xb
830029c0:	a2c60613          	addi	a2,a2,-1492 # 8300d3e8 <blanks.1>
830029c4:	00090593          	mv	a1,s2
830029c8:	00098513          	mv	a0,s3
830029cc:	00003097          	auipc	ra,0x3
830029d0:	b90080e7          	jalr	-1136(ra) # 8300555c <__ssputs_r>
830029d4:	fff00793          	li	a5,-1
830029d8:	d8f516e3          	bne	a0,a5,83002764 <_svfprintf_r+0x69c>
830029dc:	f35ff06f          	j	83002910 <_svfprintf_r+0x848>
830029e0:	fff00793          	li	a5,-1
830029e4:	00f12223          	sw	a5,4(sp)
830029e8:	f35ff06f          	j	8300291c <_svfprintf_r+0x854>

830029ec <_fwalk>:
830029ec:	fe010113          	addi	sp,sp,-32
830029f0:	00112e23          	sw	ra,28(sp)
830029f4:	00812c23          	sw	s0,24(sp)
830029f8:	00912a23          	sw	s1,20(sp)
830029fc:	01212823          	sw	s2,16(sp)
83002a00:	01312623          	sw	s3,12(sp)
83002a04:	01412423          	sw	s4,8(sp)
83002a08:	00058a13          	mv	s4,a1
83002a0c:	2e050993          	addi	s3,a0,736
83002a10:	00000913          	li	s2,0
83002a14:	03c0006f          	j	83002a50 <_fwalk+0x64>
83002a18:	06840413          	addi	s0,s0,104
83002a1c:	fff48493          	addi	s1,s1,-1
83002a20:	0204c663          	bltz	s1,83002a4c <_fwalk+0x60>
83002a24:	00c45703          	lhu	a4,12(s0)
83002a28:	00100793          	li	a5,1
83002a2c:	fee7f6e3          	bgeu	a5,a4,83002a18 <_fwalk+0x2c>
83002a30:	00e41703          	lh	a4,14(s0)
83002a34:	fff00793          	li	a5,-1
83002a38:	fef700e3          	beq	a4,a5,83002a18 <_fwalk+0x2c>
83002a3c:	00040513          	mv	a0,s0
83002a40:	000a00e7          	jalr	s4
83002a44:	00a96933          	or	s2,s2,a0
83002a48:	fd1ff06f          	j	83002a18 <_fwalk+0x2c>
83002a4c:	0009a983          	lw	s3,0(s3)
83002a50:	00098863          	beqz	s3,83002a60 <_fwalk+0x74>
83002a54:	0089a403          	lw	s0,8(s3)
83002a58:	0049a483          	lw	s1,4(s3)
83002a5c:	fc1ff06f          	j	83002a1c <_fwalk+0x30>
83002a60:	00090513          	mv	a0,s2
83002a64:	01c12083          	lw	ra,28(sp)
83002a68:	01812403          	lw	s0,24(sp)
83002a6c:	01412483          	lw	s1,20(sp)
83002a70:	01012903          	lw	s2,16(sp)
83002a74:	00c12983          	lw	s3,12(sp)
83002a78:	00812a03          	lw	s4,8(sp)
83002a7c:	02010113          	addi	sp,sp,32
83002a80:	00008067          	ret

83002a84 <_fwalk_reent>:
83002a84:	fe010113          	addi	sp,sp,-32
83002a88:	00112e23          	sw	ra,28(sp)
83002a8c:	00812c23          	sw	s0,24(sp)
83002a90:	00912a23          	sw	s1,20(sp)
83002a94:	01212823          	sw	s2,16(sp)
83002a98:	01312623          	sw	s3,12(sp)
83002a9c:	01412423          	sw	s4,8(sp)
83002aa0:	01512223          	sw	s5,4(sp)
83002aa4:	00050a13          	mv	s4,a0
83002aa8:	00058a93          	mv	s5,a1
83002aac:	2e050993          	addi	s3,a0,736
83002ab0:	00000913          	li	s2,0
83002ab4:	0400006f          	j	83002af4 <_fwalk_reent+0x70>
83002ab8:	06840413          	addi	s0,s0,104
83002abc:	fff48493          	addi	s1,s1,-1
83002ac0:	0204c863          	bltz	s1,83002af0 <_fwalk_reent+0x6c>
83002ac4:	00c45703          	lhu	a4,12(s0)
83002ac8:	00100793          	li	a5,1
83002acc:	fee7f6e3          	bgeu	a5,a4,83002ab8 <_fwalk_reent+0x34>
83002ad0:	00e41703          	lh	a4,14(s0)
83002ad4:	fff00793          	li	a5,-1
83002ad8:	fef700e3          	beq	a4,a5,83002ab8 <_fwalk_reent+0x34>
83002adc:	00040593          	mv	a1,s0
83002ae0:	000a0513          	mv	a0,s4
83002ae4:	000a80e7          	jalr	s5
83002ae8:	00a96933          	or	s2,s2,a0
83002aec:	fcdff06f          	j	83002ab8 <_fwalk_reent+0x34>
83002af0:	0009a983          	lw	s3,0(s3)
83002af4:	00098863          	beqz	s3,83002b04 <_fwalk_reent+0x80>
83002af8:	0089a403          	lw	s0,8(s3)
83002afc:	0049a483          	lw	s1,4(s3)
83002b00:	fbdff06f          	j	83002abc <_fwalk_reent+0x38>
83002b04:	00090513          	mv	a0,s2
83002b08:	01c12083          	lw	ra,28(sp)
83002b0c:	01812403          	lw	s0,24(sp)
83002b10:	01412483          	lw	s1,20(sp)
83002b14:	01012903          	lw	s2,16(sp)
83002b18:	00c12983          	lw	s3,12(sp)
83002b1c:	00812a03          	lw	s4,8(sp)
83002b20:	00412a83          	lw	s5,4(sp)
83002b24:	02010113          	addi	sp,sp,32
83002b28:	00008067          	ret

83002b2c <__swhatbuf_r>:
83002b2c:	fb010113          	addi	sp,sp,-80
83002b30:	04112623          	sw	ra,76(sp)
83002b34:	04812423          	sw	s0,72(sp)
83002b38:	04912223          	sw	s1,68(sp)
83002b3c:	05212023          	sw	s2,64(sp)
83002b40:	00058413          	mv	s0,a1
83002b44:	00060913          	mv	s2,a2
83002b48:	00068493          	mv	s1,a3
83002b4c:	00e59583          	lh	a1,14(a1)
83002b50:	0405ca63          	bltz	a1,83002ba4 <__swhatbuf_r+0x78>
83002b54:	00410613          	addi	a2,sp,4
83002b58:	00004097          	auipc	ra,0x4
83002b5c:	838080e7          	jalr	-1992(ra) # 83006390 <_fstat_r>
83002b60:	04054263          	bltz	a0,83002ba4 <__swhatbuf_r+0x78>
83002b64:	00812783          	lw	a5,8(sp)
83002b68:	0000f737          	lui	a4,0xf
83002b6c:	00e7f7b3          	and	a5,a5,a4
83002b70:	ffffe737          	lui	a4,0xffffe
83002b74:	00e787b3          	add	a5,a5,a4
83002b78:	0017b793          	seqz	a5,a5
83002b7c:	00f4a023          	sw	a5,0(s1)
83002b80:	40000793          	li	a5,1024
83002b84:	00f92023          	sw	a5,0(s2)
83002b88:	00000513          	li	a0,0
83002b8c:	04c12083          	lw	ra,76(sp)
83002b90:	04812403          	lw	s0,72(sp)
83002b94:	04412483          	lw	s1,68(sp)
83002b98:	04012903          	lw	s2,64(sp)
83002b9c:	05010113          	addi	sp,sp,80
83002ba0:	00008067          	ret
83002ba4:	0004a023          	sw	zero,0(s1)
83002ba8:	00c45783          	lhu	a5,12(s0)
83002bac:	0807f793          	andi	a5,a5,128
83002bb0:	00078863          	beqz	a5,83002bc0 <__swhatbuf_r+0x94>
83002bb4:	04000793          	li	a5,64
83002bb8:	00f92023          	sw	a5,0(s2)
83002bbc:	fcdff06f          	j	83002b88 <__swhatbuf_r+0x5c>
83002bc0:	40000793          	li	a5,1024
83002bc4:	00f92023          	sw	a5,0(s2)
83002bc8:	fc1ff06f          	j	83002b88 <__swhatbuf_r+0x5c>

83002bcc <__smakebuf_r>:
83002bcc:	fe010113          	addi	sp,sp,-32
83002bd0:	00112e23          	sw	ra,28(sp)
83002bd4:	00812c23          	sw	s0,24(sp)
83002bd8:	00912a23          	sw	s1,20(sp)
83002bdc:	01212823          	sw	s2,16(sp)
83002be0:	00058413          	mv	s0,a1
83002be4:	00c5d783          	lhu	a5,12(a1)
83002be8:	0027f793          	andi	a5,a5,2
83002bec:	02078863          	beqz	a5,83002c1c <__smakebuf_r+0x50>
83002bf0:	04358793          	addi	a5,a1,67
83002bf4:	00f5a023          	sw	a5,0(a1)
83002bf8:	00f5a823          	sw	a5,16(a1)
83002bfc:	00100793          	li	a5,1
83002c00:	00f5aa23          	sw	a5,20(a1)
83002c04:	01c12083          	lw	ra,28(sp)
83002c08:	01812403          	lw	s0,24(sp)
83002c0c:	01412483          	lw	s1,20(sp)
83002c10:	01012903          	lw	s2,16(sp)
83002c14:	02010113          	addi	sp,sp,32
83002c18:	00008067          	ret
83002c1c:	00050493          	mv	s1,a0
83002c20:	00810693          	addi	a3,sp,8
83002c24:	00c10613          	addi	a2,sp,12
83002c28:	00000097          	auipc	ra,0x0
83002c2c:	f04080e7          	jalr	-252(ra) # 83002b2c <__swhatbuf_r>
83002c30:	00050913          	mv	s2,a0
83002c34:	00c12583          	lw	a1,12(sp)
83002c38:	00048513          	mv	a0,s1
83002c3c:	00005097          	auipc	ra,0x5
83002c40:	f00080e7          	jalr	-256(ra) # 83007b3c <_malloc_r>
83002c44:	04050263          	beqz	a0,83002c88 <__smakebuf_r+0xbc>
83002c48:	fffff797          	auipc	a5,0xfffff
83002c4c:	89878793          	addi	a5,a5,-1896 # 830014e0 <_cleanup_r>
83002c50:	02f4ae23          	sw	a5,60(s1)
83002c54:	00c45783          	lhu	a5,12(s0)
83002c58:	0807e793          	ori	a5,a5,128
83002c5c:	00f41623          	sh	a5,12(s0)
83002c60:	00a42023          	sw	a0,0(s0)
83002c64:	00a42823          	sw	a0,16(s0)
83002c68:	00c12783          	lw	a5,12(sp)
83002c6c:	00f42a23          	sw	a5,20(s0)
83002c70:	00812783          	lw	a5,8(sp)
83002c74:	04079263          	bnez	a5,83002cb8 <__smakebuf_r+0xec>
83002c78:	00c45783          	lhu	a5,12(s0)
83002c7c:	0127e533          	or	a0,a5,s2
83002c80:	00a41623          	sh	a0,12(s0)
83002c84:	f81ff06f          	j	83002c04 <__smakebuf_r+0x38>
83002c88:	00c41783          	lh	a5,12(s0)
83002c8c:	2007f713          	andi	a4,a5,512
83002c90:	f6071ae3          	bnez	a4,83002c04 <__smakebuf_r+0x38>
83002c94:	ffc7f793          	andi	a5,a5,-4
83002c98:	0027e793          	ori	a5,a5,2
83002c9c:	00f41623          	sh	a5,12(s0)
83002ca0:	04340793          	addi	a5,s0,67
83002ca4:	00f42023          	sw	a5,0(s0)
83002ca8:	00f42823          	sw	a5,16(s0)
83002cac:	00100793          	li	a5,1
83002cb0:	00f42a23          	sw	a5,20(s0)
83002cb4:	f51ff06f          	j	83002c04 <__smakebuf_r+0x38>
83002cb8:	00e41583          	lh	a1,14(s0)
83002cbc:	00048513          	mv	a0,s1
83002cc0:	00004097          	auipc	ra,0x4
83002cc4:	82c080e7          	jalr	-2004(ra) # 830064ec <_isatty_r>
83002cc8:	fa0508e3          	beqz	a0,83002c78 <__smakebuf_r+0xac>
83002ccc:	00c41783          	lh	a5,12(s0)
83002cd0:	ffc7f793          	andi	a5,a5,-4
83002cd4:	0017e793          	ori	a5,a5,1
83002cd8:	00f41623          	sh	a5,12(s0)
83002cdc:	f9dff06f          	j	83002c78 <__smakebuf_r+0xac>

83002ce0 <__swsetup_r>:
83002ce0:	ff010113          	addi	sp,sp,-16
83002ce4:	00112623          	sw	ra,12(sp)
83002ce8:	00812423          	sw	s0,8(sp)
83002cec:	00912223          	sw	s1,4(sp)
83002cf0:	00050493          	mv	s1,a0
83002cf4:	00058413          	mv	s0,a1
83002cf8:	0000d517          	auipc	a0,0xd
83002cfc:	d8852503          	lw	a0,-632(a0) # 8300fa80 <_impure_ptr>
83002d00:	00050663          	beqz	a0,83002d0c <__swsetup_r+0x2c>
83002d04:	03852783          	lw	a5,56(a0)
83002d08:	0a078863          	beqz	a5,83002db8 <__swsetup_r+0xd8>
83002d0c:	00c45783          	lhu	a5,12(s0)
83002d10:	0087f713          	andi	a4,a5,8
83002d14:	04071c63          	bnez	a4,83002d6c <__swsetup_r+0x8c>
83002d18:	0107f713          	andi	a4,a5,16
83002d1c:	0a070463          	beqz	a4,83002dc4 <__swsetup_r+0xe4>
83002d20:	0047f793          	andi	a5,a5,4
83002d24:	02078e63          	beqz	a5,83002d60 <__swsetup_r+0x80>
83002d28:	03042583          	lw	a1,48(s0)
83002d2c:	00058e63          	beqz	a1,83002d48 <__swsetup_r+0x68>
83002d30:	04040793          	addi	a5,s0,64
83002d34:	00f58863          	beq	a1,a5,83002d44 <__swsetup_r+0x64>
83002d38:	00048513          	mv	a0,s1
83002d3c:	00005097          	auipc	ra,0x5
83002d40:	83c080e7          	jalr	-1988(ra) # 83007578 <_free_r>
83002d44:	02042823          	sw	zero,48(s0)
83002d48:	00c45783          	lhu	a5,12(s0)
83002d4c:	fdb7f793          	andi	a5,a5,-37
83002d50:	00f41623          	sh	a5,12(s0)
83002d54:	00042223          	sw	zero,4(s0)
83002d58:	01042783          	lw	a5,16(s0)
83002d5c:	00f42023          	sw	a5,0(s0)
83002d60:	00c45783          	lhu	a5,12(s0)
83002d64:	0087e793          	ori	a5,a5,8
83002d68:	00f41623          	sh	a5,12(s0)
83002d6c:	01042783          	lw	a5,16(s0)
83002d70:	06078863          	beqz	a5,83002de0 <__swsetup_r+0x100>
83002d74:	00c41783          	lh	a5,12(s0)
83002d78:	01079713          	slli	a4,a5,0x10
83002d7c:	01075713          	srli	a4,a4,0x10
83002d80:	0017f693          	andi	a3,a5,1
83002d84:	08068063          	beqz	a3,83002e04 <__swsetup_r+0x124>
83002d88:	00042423          	sw	zero,8(s0)
83002d8c:	01442683          	lw	a3,20(s0)
83002d90:	40d006b3          	neg	a3,a3
83002d94:	00d42c23          	sw	a3,24(s0)
83002d98:	01042683          	lw	a3,16(s0)
83002d9c:	08068263          	beqz	a3,83002e20 <__swsetup_r+0x140>
83002da0:	00000513          	li	a0,0
83002da4:	00c12083          	lw	ra,12(sp)
83002da8:	00812403          	lw	s0,8(sp)
83002dac:	00412483          	lw	s1,4(sp)
83002db0:	01010113          	addi	sp,sp,16
83002db4:	00008067          	ret
83002db8:	ffffe097          	auipc	ra,0xffffe
83002dbc:	7e0080e7          	jalr	2016(ra) # 83001598 <__sinit>
83002dc0:	f4dff06f          	j	83002d0c <__swsetup_r+0x2c>
83002dc4:	00900793          	li	a5,9
83002dc8:	00f4a023          	sw	a5,0(s1)
83002dcc:	00c45783          	lhu	a5,12(s0)
83002dd0:	0407e793          	ori	a5,a5,64
83002dd4:	00f41623          	sh	a5,12(s0)
83002dd8:	fff00513          	li	a0,-1
83002ddc:	fc9ff06f          	j	83002da4 <__swsetup_r+0xc4>
83002de0:	00c45783          	lhu	a5,12(s0)
83002de4:	2807f793          	andi	a5,a5,640
83002de8:	20000713          	li	a4,512
83002dec:	f8e784e3          	beq	a5,a4,83002d74 <__swsetup_r+0x94>
83002df0:	00040593          	mv	a1,s0
83002df4:	00048513          	mv	a0,s1
83002df8:	00000097          	auipc	ra,0x0
83002dfc:	dd4080e7          	jalr	-556(ra) # 83002bcc <__smakebuf_r>
83002e00:	f75ff06f          	j	83002d74 <__swsetup_r+0x94>
83002e04:	00277693          	andi	a3,a4,2
83002e08:	00069863          	bnez	a3,83002e18 <__swsetup_r+0x138>
83002e0c:	01442683          	lw	a3,20(s0)
83002e10:	00d42423          	sw	a3,8(s0)
83002e14:	f85ff06f          	j	83002d98 <__swsetup_r+0xb8>
83002e18:	00000693          	li	a3,0
83002e1c:	ff5ff06f          	j	83002e10 <__swsetup_r+0x130>
83002e20:	08077713          	andi	a4,a4,128
83002e24:	00071663          	bnez	a4,83002e30 <__swsetup_r+0x150>
83002e28:	00000513          	li	a0,0
83002e2c:	f79ff06f          	j	83002da4 <__swsetup_r+0xc4>
83002e30:	0407e793          	ori	a5,a5,64
83002e34:	00f41623          	sh	a5,12(s0)
83002e38:	fff00513          	li	a0,-1
83002e3c:	f69ff06f          	j	83002da4 <__swsetup_r+0xc4>

83002e40 <_printf_r>:
83002e40:	fc010113          	addi	sp,sp,-64
83002e44:	00112e23          	sw	ra,28(sp)
83002e48:	02c12423          	sw	a2,40(sp)
83002e4c:	02d12623          	sw	a3,44(sp)
83002e50:	02e12823          	sw	a4,48(sp)
83002e54:	02f12a23          	sw	a5,52(sp)
83002e58:	03012c23          	sw	a6,56(sp)
83002e5c:	03112e23          	sw	a7,60(sp)
83002e60:	02810693          	addi	a3,sp,40
83002e64:	00d12623          	sw	a3,12(sp)
83002e68:	00058613          	mv	a2,a1
83002e6c:	00852583          	lw	a1,8(a0)
83002e70:	00000097          	auipc	ra,0x0
83002e74:	068080e7          	jalr	104(ra) # 83002ed8 <_vfprintf_r>
83002e78:	01c12083          	lw	ra,28(sp)
83002e7c:	04010113          	addi	sp,sp,64
83002e80:	00008067          	ret

83002e84 <printf>:
83002e84:	fc010113          	addi	sp,sp,-64
83002e88:	00112e23          	sw	ra,28(sp)
83002e8c:	02b12223          	sw	a1,36(sp)
83002e90:	02c12423          	sw	a2,40(sp)
83002e94:	02d12623          	sw	a3,44(sp)
83002e98:	02e12823          	sw	a4,48(sp)
83002e9c:	02f12a23          	sw	a5,52(sp)
83002ea0:	03012c23          	sw	a6,56(sp)
83002ea4:	03112e23          	sw	a7,60(sp)
83002ea8:	0000d797          	auipc	a5,0xd
83002eac:	bd87a783          	lw	a5,-1064(a5) # 8300fa80 <_impure_ptr>
83002eb0:	02410693          	addi	a3,sp,36
83002eb4:	00d12623          	sw	a3,12(sp)
83002eb8:	00050613          	mv	a2,a0
83002ebc:	0087a583          	lw	a1,8(a5)
83002ec0:	00078513          	mv	a0,a5
83002ec4:	00000097          	auipc	ra,0x0
83002ec8:	014080e7          	jalr	20(ra) # 83002ed8 <_vfprintf_r>
83002ecc:	01c12083          	lw	ra,28(sp)
83002ed0:	04010113          	addi	sp,sp,64
83002ed4:	00008067          	ret

83002ed8 <_vfprintf_r>:
83002ed8:	f8010113          	addi	sp,sp,-128
83002edc:	06112e23          	sw	ra,124(sp)
83002ee0:	06812c23          	sw	s0,120(sp)
83002ee4:	06912a23          	sw	s1,116(sp)
83002ee8:	07212823          	sw	s2,112(sp)
83002eec:	07312623          	sw	s3,108(sp)
83002ef0:	07412423          	sw	s4,104(sp)
83002ef4:	07512223          	sw	s5,100(sp)
83002ef8:	07612023          	sw	s6,96(sp)
83002efc:	05712e23          	sw	s7,92(sp)
83002f00:	05812c23          	sw	s8,88(sp)
83002f04:	05912a23          	sw	s9,84(sp)
83002f08:	05a12823          	sw	s10,80(sp)
83002f0c:	05b12623          	sw	s11,76(sp)
83002f10:	00050993          	mv	s3,a0
83002f14:	00058913          	mv	s2,a1
83002f18:	00060a13          	mv	s4,a2
83002f1c:	00d12623          	sw	a3,12(sp)
83002f20:	00050663          	beqz	a0,83002f2c <_vfprintf_r+0x54>
83002f24:	03852783          	lw	a5,56(a0)
83002f28:	02078c63          	beqz	a5,83002f60 <_vfprintf_r+0x88>
83002f2c:	00c95783          	lhu	a5,12(s2)
83002f30:	0087f793          	andi	a5,a5,8
83002f34:	00078663          	beqz	a5,83002f40 <_vfprintf_r+0x68>
83002f38:	01092783          	lw	a5,16(s2)
83002f3c:	00079c63          	bnez	a5,83002f54 <_vfprintf_r+0x7c>
83002f40:	00090593          	mv	a1,s2
83002f44:	00098513          	mv	a0,s3
83002f48:	00000097          	auipc	ra,0x0
83002f4c:	d98080e7          	jalr	-616(ra) # 83002ce0 <__swsetup_r>
83002f50:	08051ee3          	bnez	a0,830037ec <_vfprintf_r+0x914>
83002f54:	00012423          	sw	zero,8(sp)
83002f58:	00012223          	sw	zero,4(sp)
83002f5c:	0210006f          	j	8300377c <_vfprintf_r+0x8a4>
83002f60:	ffffe097          	auipc	ra,0xffffe
83002f64:	638080e7          	jalr	1592(ra) # 83001598 <__sinit>
83002f68:	fc5ff06f          	j	83002f2c <_vfprintf_r+0x54>
83002f6c:	00140413          	addi	s0,s0,1
83002f70:	00044783          	lbu	a5,0(s0)
83002f74:	00078663          	beqz	a5,83002f80 <_vfprintf_r+0xa8>
83002f78:	02500713          	li	a4,37
83002f7c:	fee798e3          	bne	a5,a4,83002f6c <_vfprintf_r+0x94>
83002f80:	414404b3          	sub	s1,s0,s4
83002f84:	05441863          	bne	s0,s4,83002fd4 <_vfprintf_r+0xfc>
83002f88:	00044783          	lbu	a5,0(s0)
83002f8c:	70078a63          	beqz	a5,830036a0 <_vfprintf_r+0x7c8>
83002f90:	00140793          	addi	a5,s0,1
83002f94:	02010fa3          	sb	zero,63(sp)
83002f98:	fff00413          	li	s0,-1
83002f9c:	00000b13          	li	s6,0
83002fa0:	00000a93          	li	s5,0
83002fa4:	00178a13          	addi	s4,a5,1
83002fa8:	0007c703          	lbu	a4,0(a5)
83002fac:	fe070793          	addi	a5,a4,-32 # ffffdfe0 <__BSS_END__+0x7cfee4d8>
83002fb0:	05800693          	li	a3,88
83002fb4:	5ef6e263          	bltu	a3,a5,83003598 <_vfprintf_r+0x6c0>
83002fb8:	00279793          	slli	a5,a5,0x2
83002fbc:	0000a697          	auipc	a3,0xa
83002fc0:	44c68693          	addi	a3,a3,1100 # 8300d408 <zeroes.0+0x10>
83002fc4:	00d787b3          	add	a5,a5,a3
83002fc8:	0007a783          	lw	a5,0(a5)
83002fcc:	00d787b3          	add	a5,a5,a3
83002fd0:	00078067          	jr	a5
83002fd4:	00048693          	mv	a3,s1
83002fd8:	000a0613          	mv	a2,s4
83002fdc:	00090593          	mv	a1,s2
83002fe0:	00098513          	mv	a0,s3
83002fe4:	00002097          	auipc	ra,0x2
83002fe8:	b60080e7          	jalr	-1184(ra) # 83004b44 <__sfputs_r>
83002fec:	fff00793          	li	a5,-1
83002ff0:	6af50863          	beq	a0,a5,830036a0 <_vfprintf_r+0x7c8>
83002ff4:	00412783          	lw	a5,4(sp)
83002ff8:	009787b3          	add	a5,a5,s1
83002ffc:	00f12223          	sw	a5,4(sp)
83003000:	f89ff06f          	j	83002f88 <_vfprintf_r+0xb0>
83003004:	0000a797          	auipc	a5,0xa
83003008:	24878793          	addi	a5,a5,584 # 8300d24c <__func__.0+0x20>
8300300c:	00f12423          	sw	a5,8(sp)
83003010:	3b00006f          	j	830033c0 <_vfprintf_r+0x4e8>
83003014:	03f14783          	lbu	a5,63(sp)
83003018:	02079a63          	bnez	a5,8300304c <_vfprintf_r+0x174>
8300301c:	02000793          	li	a5,32
83003020:	02f10fa3          	sb	a5,63(sp)
83003024:	0280006f          	j	8300304c <_vfprintf_r+0x174>
83003028:	001aea93          	ori	s5,s5,1
8300302c:	0200006f          	j	8300304c <_vfprintf_r+0x174>
83003030:	00c12783          	lw	a5,12(sp)
83003034:	00478713          	addi	a4,a5,4
83003038:	00e12623          	sw	a4,12(sp)
8300303c:	0007ab03          	lw	s6,0(a5)
83003040:	000b5663          	bgez	s6,8300304c <_vfprintf_r+0x174>
83003044:	41600b33          	neg	s6,s6
83003048:	004aea93          	ori	s5,s5,4
8300304c:	000a0793          	mv	a5,s4
83003050:	f55ff06f          	j	83002fa4 <_vfprintf_r+0xcc>
83003054:	02b00793          	li	a5,43
83003058:	02f10fa3          	sb	a5,63(sp)
8300305c:	ff1ff06f          	j	8300304c <_vfprintf_r+0x174>
83003060:	001a0693          	addi	a3,s4,1
83003064:	000a4703          	lbu	a4,0(s4)
83003068:	02a00793          	li	a5,42
8300306c:	00f70663          	beq	a4,a5,83003078 <_vfprintf_r+0x1a0>
83003070:	00000413          	li	s0,0
83003074:	0400006f          	j	830030b4 <_vfprintf_r+0x1dc>
83003078:	00c12783          	lw	a5,12(sp)
8300307c:	00478713          	addi	a4,a5,4
83003080:	00e12623          	sw	a4,12(sp)
83003084:	0007a403          	lw	s0,0(a5)
83003088:	00044663          	bltz	s0,83003094 <_vfprintf_r+0x1bc>
8300308c:	00068a13          	mv	s4,a3
83003090:	fbdff06f          	j	8300304c <_vfprintf_r+0x174>
83003094:	fff00413          	li	s0,-1
83003098:	ff5ff06f          	j	8300308c <_vfprintf_r+0x1b4>
8300309c:	00241793          	slli	a5,s0,0x2
830030a0:	008787b3          	add	a5,a5,s0
830030a4:	00179793          	slli	a5,a5,0x1
830030a8:	00c78433          	add	s0,a5,a2
830030ac:	0006c703          	lbu	a4,0(a3)
830030b0:	00168693          	addi	a3,a3,1
830030b4:	fd070613          	addi	a2,a4,-48
830030b8:	00900793          	li	a5,9
830030bc:	fec7f0e3          	bgeu	a5,a2,8300309c <_vfprintf_r+0x1c4>
830030c0:	00044663          	bltz	s0,830030cc <_vfprintf_r+0x1f4>
830030c4:	00068a13          	mv	s4,a3
830030c8:	ee5ff06f          	j	83002fac <_vfprintf_r+0xd4>
830030cc:	fff00413          	li	s0,-1
830030d0:	ff5ff06f          	j	830030c4 <_vfprintf_r+0x1ec>
830030d4:	080aea93          	ori	s5,s5,128
830030d8:	f75ff06f          	j	8300304c <_vfprintf_r+0x174>
830030dc:	00000b13          	li	s6,0
830030e0:	002b1793          	slli	a5,s6,0x2
830030e4:	016787b3          	add	a5,a5,s6
830030e8:	00179793          	slli	a5,a5,0x1
830030ec:	fd070713          	addi	a4,a4,-48
830030f0:	00e78b33          	add	s6,a5,a4
830030f4:	000a4703          	lbu	a4,0(s4)
830030f8:	001a0a13          	addi	s4,s4,1
830030fc:	fd070693          	addi	a3,a4,-48
83003100:	00900793          	li	a5,9
83003104:	fcd7fee3          	bgeu	a5,a3,830030e0 <_vfprintf_r+0x208>
83003108:	ea5ff06f          	j	83002fac <_vfprintf_r+0xd4>
8300310c:	040aea93          	ori	s5,s5,64
83003110:	f3dff06f          	j	8300304c <_vfprintf_r+0x174>
83003114:	010aea93          	ori	s5,s5,16
83003118:	f35ff06f          	j	8300304c <_vfprintf_r+0x174>
8300311c:	010aea93          	ori	s5,s5,16
83003120:	f2dff06f          	j	8300304c <_vfprintf_r+0x174>
83003124:	00c12783          	lw	a5,12(sp)
83003128:	00478713          	addi	a4,a5,4
8300312c:	00e12623          	sw	a4,12(sp)
83003130:	0007a783          	lw	a5,0(a5)
83003134:	00f10a23          	sb	a5,20(sp)
83003138:	02010fa3          	sb	zero,63(sp)
8300313c:	00100b93          	li	s7,1
83003140:	00000413          	li	s0,0
83003144:	01410493          	addi	s1,sp,20
83003148:	3a00006f          	j	830034e8 <_vfprintf_r+0x610>
8300314c:	010aea93          	ori	s5,s5,16
83003150:	010af793          	andi	a5,s5,16
83003154:	02078063          	beqz	a5,83003174 <_vfprintf_r+0x29c>
83003158:	00c12783          	lw	a5,12(sp)
8300315c:	00478713          	addi	a4,a5,4
83003160:	00e12623          	sw	a4,12(sp)
83003164:	0007a783          	lw	a5,0(a5)
83003168:	0207ce63          	bltz	a5,830031a4 <_vfprintf_r+0x2cc>
8300316c:	00100713          	li	a4,1
83003170:	0cc0006f          	j	8300323c <_vfprintf_r+0x364>
83003174:	040af793          	andi	a5,s5,64
83003178:	00078c63          	beqz	a5,83003190 <_vfprintf_r+0x2b8>
8300317c:	00c12783          	lw	a5,12(sp)
83003180:	00478713          	addi	a4,a5,4
83003184:	00e12623          	sw	a4,12(sp)
83003188:	00079783          	lh	a5,0(a5)
8300318c:	fddff06f          	j	83003168 <_vfprintf_r+0x290>
83003190:	00c12783          	lw	a5,12(sp)
83003194:	00478713          	addi	a4,a5,4
83003198:	00e12623          	sw	a4,12(sp)
8300319c:	0007a783          	lw	a5,0(a5)
830031a0:	fc9ff06f          	j	83003168 <_vfprintf_r+0x290>
830031a4:	40f007b3          	neg	a5,a5
830031a8:	02d00713          	li	a4,45
830031ac:	02e10fa3          	sb	a4,63(sp)
830031b0:	fbdff06f          	j	8300316c <_vfprintf_r+0x294>
830031b4:	010af793          	andi	a5,s5,16
830031b8:	02078063          	beqz	a5,830031d8 <_vfprintf_r+0x300>
830031bc:	00c12783          	lw	a5,12(sp)
830031c0:	00478713          	addi	a4,a5,4
830031c4:	00e12623          	sw	a4,12(sp)
830031c8:	0007a783          	lw	a5,0(a5)
830031cc:	00412703          	lw	a4,4(sp)
830031d0:	00e7a023          	sw	a4,0(a5)
830031d4:	5a80006f          	j	8300377c <_vfprintf_r+0x8a4>
830031d8:	040afa93          	andi	s5,s5,64
830031dc:	020a8063          	beqz	s5,830031fc <_vfprintf_r+0x324>
830031e0:	00c12783          	lw	a5,12(sp)
830031e4:	00478713          	addi	a4,a5,4
830031e8:	00e12623          	sw	a4,12(sp)
830031ec:	0007a783          	lw	a5,0(a5)
830031f0:	00412703          	lw	a4,4(sp)
830031f4:	00e79023          	sh	a4,0(a5)
830031f8:	5840006f          	j	8300377c <_vfprintf_r+0x8a4>
830031fc:	00c12783          	lw	a5,12(sp)
83003200:	00478713          	addi	a4,a5,4
83003204:	00e12623          	sw	a4,12(sp)
83003208:	0007a783          	lw	a5,0(a5)
8300320c:	00412703          	lw	a4,4(sp)
83003210:	00e7a023          	sw	a4,0(a5)
83003214:	5680006f          	j	8300377c <_vfprintf_r+0x8a4>
83003218:	010aea93          	ori	s5,s5,16
8300321c:	010af793          	andi	a5,s5,16
83003220:	06078063          	beqz	a5,83003280 <_vfprintf_r+0x3a8>
83003224:	00c12783          	lw	a5,12(sp)
83003228:	00478713          	addi	a4,a5,4
8300322c:	00e12623          	sw	a4,12(sp)
83003230:	0007a783          	lw	a5,0(a5)
83003234:	00000713          	li	a4,0
83003238:	02010fa3          	sb	zero,63(sp)
8300323c:	00044463          	bltz	s0,83003244 <_vfprintf_r+0x36c>
83003240:	f7fafa93          	andi	s5,s5,-129
83003244:	00079463          	bnez	a5,8300324c <_vfprintf_r+0x374>
83003248:	32040263          	beqz	s0,8300356c <_vfprintf_r+0x694>
8300324c:	00100693          	li	a3,1
83003250:	22d70463          	beq	a4,a3,83003478 <_vfprintf_r+0x5a0>
83003254:	00200693          	li	a3,2
83003258:	26d70263          	beq	a4,a3,830034bc <_vfprintf_r+0x5e4>
8300325c:	1e070063          	beqz	a4,8300343c <_vfprintf_r+0x564>
83003260:	0000a517          	auipc	a0,0xa
83003264:	00850513          	addi	a0,a0,8 # 8300d268 <__func__.0+0x3c>
83003268:	00005097          	auipc	ra,0x5
8300326c:	254080e7          	jalr	596(ra) # 830084bc <strlen>
83003270:	00050b93          	mv	s7,a0
83003274:	0000a497          	auipc	s1,0xa
83003278:	ff448493          	addi	s1,s1,-12 # 8300d268 <__func__.0+0x3c>
8300327c:	26c0006f          	j	830034e8 <_vfprintf_r+0x610>
83003280:	040af793          	andi	a5,s5,64
83003284:	00078c63          	beqz	a5,8300329c <_vfprintf_r+0x3c4>
83003288:	00c12783          	lw	a5,12(sp)
8300328c:	00478713          	addi	a4,a5,4
83003290:	00e12623          	sw	a4,12(sp)
83003294:	0007d783          	lhu	a5,0(a5)
83003298:	f9dff06f          	j	83003234 <_vfprintf_r+0x35c>
8300329c:	00c12783          	lw	a5,12(sp)
830032a0:	00478713          	addi	a4,a5,4
830032a4:	00e12623          	sw	a4,12(sp)
830032a8:	0007a783          	lw	a5,0(a5)
830032ac:	f89ff06f          	j	83003234 <_vfprintf_r+0x35c>
830032b0:	00c12783          	lw	a5,12(sp)
830032b4:	00478713          	addi	a4,a5,4
830032b8:	00e12623          	sw	a4,12(sp)
830032bc:	0007a783          	lw	a5,0(a5)
830032c0:	002aea93          	ori	s5,s5,2
830032c4:	03000713          	li	a4,48
830032c8:	00e10823          	sb	a4,16(sp)
830032cc:	07800713          	li	a4,120
830032d0:	00e108a3          	sb	a4,17(sp)
830032d4:	0000a717          	auipc	a4,0xa
830032d8:	f7870713          	addi	a4,a4,-136 # 8300d24c <__func__.0+0x20>
830032dc:	00e12423          	sw	a4,8(sp)
830032e0:	00200713          	li	a4,2
830032e4:	f55ff06f          	j	83003238 <_vfprintf_r+0x360>
830032e8:	00c12783          	lw	a5,12(sp)
830032ec:	00478713          	addi	a4,a5,4
830032f0:	00e12623          	sw	a4,12(sp)
830032f4:	0007a483          	lw	s1,0(a5)
830032f8:	02010fa3          	sb	zero,63(sp)
830032fc:	02048663          	beqz	s1,83003328 <_vfprintf_r+0x450>
83003300:	04044463          	bltz	s0,83003348 <_vfprintf_r+0x470>
83003304:	00040613          	mv	a2,s0
83003308:	00000593          	li	a1,0
8300330c:	00048513          	mv	a0,s1
83003310:	00005097          	auipc	ra,0x5
83003314:	2bc080e7          	jalr	700(ra) # 830085cc <memchr>
83003318:	28050e63          	beqz	a0,830035b4 <_vfprintf_r+0x6dc>
8300331c:	40950bb3          	sub	s7,a0,s1
83003320:	00000413          	li	s0,0
83003324:	1c40006f          	j	830034e8 <_vfprintf_r+0x610>
83003328:	00040b93          	mv	s7,s0
8300332c:	00600793          	li	a5,6
83003330:	0087f463          	bgeu	a5,s0,83003338 <_vfprintf_r+0x460>
83003334:	00600b93          	li	s7,6
83003338:	00000413          	li	s0,0
8300333c:	0000a497          	auipc	s1,0xa
83003340:	f2448493          	addi	s1,s1,-220 # 8300d260 <__func__.0+0x34>
83003344:	1a40006f          	j	830034e8 <_vfprintf_r+0x610>
83003348:	00048513          	mv	a0,s1
8300334c:	00005097          	auipc	ra,0x5
83003350:	170080e7          	jalr	368(ra) # 830084bc <strlen>
83003354:	00050b93          	mv	s7,a0
83003358:	00000413          	li	s0,0
8300335c:	18c0006f          	j	830034e8 <_vfprintf_r+0x610>
83003360:	010aea93          	ori	s5,s5,16
83003364:	010af793          	andi	a5,s5,16
83003368:	00078e63          	beqz	a5,83003384 <_vfprintf_r+0x4ac>
8300336c:	00c12783          	lw	a5,12(sp)
83003370:	00478713          	addi	a4,a5,4
83003374:	00e12623          	sw	a4,12(sp)
83003378:	0007a783          	lw	a5,0(a5)
8300337c:	00100713          	li	a4,1
83003380:	eb9ff06f          	j	83003238 <_vfprintf_r+0x360>
83003384:	040af793          	andi	a5,s5,64
83003388:	00078c63          	beqz	a5,830033a0 <_vfprintf_r+0x4c8>
8300338c:	00c12783          	lw	a5,12(sp)
83003390:	00478713          	addi	a4,a5,4
83003394:	00e12623          	sw	a4,12(sp)
83003398:	0007d783          	lhu	a5,0(a5)
8300339c:	fe1ff06f          	j	8300337c <_vfprintf_r+0x4a4>
830033a0:	00c12783          	lw	a5,12(sp)
830033a4:	00478713          	addi	a4,a5,4
830033a8:	00e12623          	sw	a4,12(sp)
830033ac:	0007a783          	lw	a5,0(a5)
830033b0:	fcdff06f          	j	8300337c <_vfprintf_r+0x4a4>
830033b4:	0000a797          	auipc	a5,0xa
830033b8:	e8478793          	addi	a5,a5,-380 # 8300d238 <__func__.0+0xc>
830033bc:	00f12423          	sw	a5,8(sp)
830033c0:	010af793          	andi	a5,s5,16
830033c4:	02078c63          	beqz	a5,830033fc <_vfprintf_r+0x524>
830033c8:	00c12783          	lw	a5,12(sp)
830033cc:	00478693          	addi	a3,a5,4
830033d0:	00d12623          	sw	a3,12(sp)
830033d4:	0007a783          	lw	a5,0(a5)
830033d8:	001af693          	andi	a3,s5,1
830033dc:	04068863          	beqz	a3,8300342c <_vfprintf_r+0x554>
830033e0:	04078a63          	beqz	a5,83003434 <_vfprintf_r+0x55c>
830033e4:	03000693          	li	a3,48
830033e8:	00d10823          	sb	a3,16(sp)
830033ec:	00e108a3          	sb	a4,17(sp)
830033f0:	002aea93          	ori	s5,s5,2
830033f4:	00200713          	li	a4,2
830033f8:	e41ff06f          	j	83003238 <_vfprintf_r+0x360>
830033fc:	040af793          	andi	a5,s5,64
83003400:	00078c63          	beqz	a5,83003418 <_vfprintf_r+0x540>
83003404:	00c12783          	lw	a5,12(sp)
83003408:	00478693          	addi	a3,a5,4
8300340c:	00d12623          	sw	a3,12(sp)
83003410:	0007d783          	lhu	a5,0(a5)
83003414:	fc5ff06f          	j	830033d8 <_vfprintf_r+0x500>
83003418:	00c12783          	lw	a5,12(sp)
8300341c:	00478693          	addi	a3,a5,4
83003420:	00d12623          	sw	a3,12(sp)
83003424:	0007a783          	lw	a5,0(a5)
83003428:	fb1ff06f          	j	830033d8 <_vfprintf_r+0x500>
8300342c:	00200713          	li	a4,2
83003430:	e09ff06f          	j	83003238 <_vfprintf_r+0x360>
83003434:	00200713          	li	a4,2
83003438:	e01ff06f          	j	83003238 <_vfprintf_r+0x360>
8300343c:	03c10493          	addi	s1,sp,60
83003440:	0077f713          	andi	a4,a5,7
83003444:	00048693          	mv	a3,s1
83003448:	fff48493          	addi	s1,s1,-1
8300344c:	03070713          	addi	a4,a4,48
83003450:	00e48023          	sb	a4,0(s1)
83003454:	0037d793          	srli	a5,a5,0x3
83003458:	fe0794e3          	bnez	a5,83003440 <_vfprintf_r+0x568>
8300345c:	001af793          	andi	a5,s5,1
83003460:	08078063          	beqz	a5,830034e0 <_vfprintf_r+0x608>
83003464:	03000793          	li	a5,48
83003468:	06f70c63          	beq	a4,a5,830034e0 <_vfprintf_r+0x608>
8300346c:	fef48fa3          	sb	a5,-1(s1)
83003470:	ffe68493          	addi	s1,a3,-2
83003474:	06c0006f          	j	830034e0 <_vfprintf_r+0x608>
83003478:	00900713          	li	a4,9
8300347c:	00f76a63          	bltu	a4,a5,83003490 <_vfprintf_r+0x5b8>
83003480:	03078793          	addi	a5,a5,48
83003484:	02f10da3          	sb	a5,59(sp)
83003488:	03b10493          	addi	s1,sp,59
8300348c:	0540006f          	j	830034e0 <_vfprintf_r+0x608>
83003490:	03c10493          	addi	s1,sp,60
83003494:	00a00693          	li	a3,10
83003498:	02d7f733          	remu	a4,a5,a3
8300349c:	fff48493          	addi	s1,s1,-1
830034a0:	03070713          	addi	a4,a4,48
830034a4:	00e48023          	sb	a4,0(s1)
830034a8:	00078613          	mv	a2,a5
830034ac:	02d7d7b3          	divu	a5,a5,a3
830034b0:	00900713          	li	a4,9
830034b4:	fec760e3          	bltu	a4,a2,83003494 <_vfprintf_r+0x5bc>
830034b8:	0280006f          	j	830034e0 <_vfprintf_r+0x608>
830034bc:	03c10493          	addi	s1,sp,60
830034c0:	00f7f713          	andi	a4,a5,15
830034c4:	fff48493          	addi	s1,s1,-1
830034c8:	00812683          	lw	a3,8(sp)
830034cc:	00e68733          	add	a4,a3,a4
830034d0:	00074703          	lbu	a4,0(a4)
830034d4:	00e48023          	sb	a4,0(s1)
830034d8:	0047d793          	srli	a5,a5,0x4
830034dc:	fe0792e3          	bnez	a5,830034c0 <_vfprintf_r+0x5e8>
830034e0:	03c10b93          	addi	s7,sp,60
830034e4:	409b8bb3          	sub	s7,s7,s1
830034e8:	00040c93          	mv	s9,s0
830034ec:	01745463          	bge	s0,s7,830034f4 <_vfprintf_r+0x61c>
830034f0:	000b8c93          	mv	s9,s7
830034f4:	03f14783          	lbu	a5,63(sp)
830034f8:	00078463          	beqz	a5,83003500 <_vfprintf_r+0x628>
830034fc:	001c8c93          	addi	s9,s9,1
83003500:	002afd13          	andi	s10,s5,2
83003504:	000d0463          	beqz	s10,8300350c <_vfprintf_r+0x634>
83003508:	002c8c93          	addi	s9,s9,2
8300350c:	084afd93          	andi	s11,s5,132
83003510:	000d9663          	bnez	s11,8300351c <_vfprintf_r+0x644>
83003514:	419b0c33          	sub	s8,s6,s9
83003518:	0b804463          	bgtz	s8,830035c0 <_vfprintf_r+0x6e8>
8300351c:	03f14783          	lbu	a5,63(sp)
83003520:	0e079e63          	bnez	a5,8300361c <_vfprintf_r+0x744>
83003524:	100d1e63          	bnez	s10,83003640 <_vfprintf_r+0x768>
83003528:	08000793          	li	a5,128
8300352c:	12fd8c63          	beq	s11,a5,83003664 <_vfprintf_r+0x78c>
83003530:	41740433          	sub	s0,s0,s7
83003534:	20805263          	blez	s0,83003738 <_vfprintf_r+0x860>
83003538:	01000793          	li	a5,16
8300353c:	1c87dc63          	bge	a5,s0,83003714 <_vfprintf_r+0x83c>
83003540:	01000693          	li	a3,16
83003544:	0000a617          	auipc	a2,0xa
83003548:	03860613          	addi	a2,a2,56 # 8300d57c <zeroes.0>
8300354c:	00090593          	mv	a1,s2
83003550:	00098513          	mv	a0,s3
83003554:	00001097          	auipc	ra,0x1
83003558:	5f0080e7          	jalr	1520(ra) # 83004b44 <__sfputs_r>
8300355c:	fff00793          	li	a5,-1
83003560:	14f50063          	beq	a0,a5,830036a0 <_vfprintf_r+0x7c8>
83003564:	ff040413          	addi	s0,s0,-16
83003568:	fd1ff06f          	j	83003538 <_vfprintf_r+0x660>
8300356c:	00071e63          	bnez	a4,83003588 <_vfprintf_r+0x6b0>
83003570:	001af793          	andi	a5,s5,1
83003574:	00078e63          	beqz	a5,83003590 <_vfprintf_r+0x6b8>
83003578:	03000793          	li	a5,48
8300357c:	02f10da3          	sb	a5,59(sp)
83003580:	03b10493          	addi	s1,sp,59
83003584:	f5dff06f          	j	830034e0 <_vfprintf_r+0x608>
83003588:	03c10493          	addi	s1,sp,60
8300358c:	f55ff06f          	j	830034e0 <_vfprintf_r+0x608>
83003590:	03c10493          	addi	s1,sp,60
83003594:	f4dff06f          	j	830034e0 <_vfprintf_r+0x608>
83003598:	10070463          	beqz	a4,830036a0 <_vfprintf_r+0x7c8>
8300359c:	00e10a23          	sb	a4,20(sp)
830035a0:	02010fa3          	sb	zero,63(sp)
830035a4:	00100b93          	li	s7,1
830035a8:	00000413          	li	s0,0
830035ac:	01410493          	addi	s1,sp,20
830035b0:	f39ff06f          	j	830034e8 <_vfprintf_r+0x610>
830035b4:	00040b93          	mv	s7,s0
830035b8:	00000413          	li	s0,0
830035bc:	f2dff06f          	j	830034e8 <_vfprintf_r+0x610>
830035c0:	01000793          	li	a5,16
830035c4:	0387d863          	bge	a5,s8,830035f4 <_vfprintf_r+0x71c>
830035c8:	01000693          	li	a3,16
830035cc:	0000a617          	auipc	a2,0xa
830035d0:	fa060613          	addi	a2,a2,-96 # 8300d56c <blanks.1>
830035d4:	00090593          	mv	a1,s2
830035d8:	00098513          	mv	a0,s3
830035dc:	00001097          	auipc	ra,0x1
830035e0:	568080e7          	jalr	1384(ra) # 83004b44 <__sfputs_r>
830035e4:	fff00793          	li	a5,-1
830035e8:	0af50c63          	beq	a0,a5,830036a0 <_vfprintf_r+0x7c8>
830035ec:	ff0c0c13          	addi	s8,s8,-16
830035f0:	fd1ff06f          	j	830035c0 <_vfprintf_r+0x6e8>
830035f4:	000c0693          	mv	a3,s8
830035f8:	0000a617          	auipc	a2,0xa
830035fc:	f7460613          	addi	a2,a2,-140 # 8300d56c <blanks.1>
83003600:	00090593          	mv	a1,s2
83003604:	00098513          	mv	a0,s3
83003608:	00001097          	auipc	ra,0x1
8300360c:	53c080e7          	jalr	1340(ra) # 83004b44 <__sfputs_r>
83003610:	fff00793          	li	a5,-1
83003614:	f0f514e3          	bne	a0,a5,8300351c <_vfprintf_r+0x644>
83003618:	0880006f          	j	830036a0 <_vfprintf_r+0x7c8>
8300361c:	00100693          	li	a3,1
83003620:	03f10613          	addi	a2,sp,63
83003624:	00090593          	mv	a1,s2
83003628:	00098513          	mv	a0,s3
8300362c:	00001097          	auipc	ra,0x1
83003630:	518080e7          	jalr	1304(ra) # 83004b44 <__sfputs_r>
83003634:	fff00793          	li	a5,-1
83003638:	eef516e3          	bne	a0,a5,83003524 <_vfprintf_r+0x64c>
8300363c:	0640006f          	j	830036a0 <_vfprintf_r+0x7c8>
83003640:	00200693          	li	a3,2
83003644:	01010613          	addi	a2,sp,16
83003648:	00090593          	mv	a1,s2
8300364c:	00098513          	mv	a0,s3
83003650:	00001097          	auipc	ra,0x1
83003654:	4f4080e7          	jalr	1268(ra) # 83004b44 <__sfputs_r>
83003658:	fff00793          	li	a5,-1
8300365c:	ecf516e3          	bne	a0,a5,83003528 <_vfprintf_r+0x650>
83003660:	0400006f          	j	830036a0 <_vfprintf_r+0x7c8>
83003664:	419b0c33          	sub	s8,s6,s9
83003668:	ed8054e3          	blez	s8,83003530 <_vfprintf_r+0x658>
8300366c:	0080006f          	j	83003674 <_vfprintf_r+0x79c>
83003670:	ff0c0c13          	addi	s8,s8,-16
83003674:	01000793          	li	a5,16
83003678:	0787da63          	bge	a5,s8,830036ec <_vfprintf_r+0x814>
8300367c:	01000693          	li	a3,16
83003680:	0000a617          	auipc	a2,0xa
83003684:	efc60613          	addi	a2,a2,-260 # 8300d57c <zeroes.0>
83003688:	00090593          	mv	a1,s2
8300368c:	00098513          	mv	a0,s3
83003690:	00001097          	auipc	ra,0x1
83003694:	4b4080e7          	jalr	1204(ra) # 83004b44 <__sfputs_r>
83003698:	fff00793          	li	a5,-1
8300369c:	fcf51ae3          	bne	a0,a5,83003670 <_vfprintf_r+0x798>
830036a0:	00c95783          	lhu	a5,12(s2)
830036a4:	0407f793          	andi	a5,a5,64
830036a8:	12079c63          	bnez	a5,830037e0 <_vfprintf_r+0x908>
830036ac:	00412503          	lw	a0,4(sp)
830036b0:	07c12083          	lw	ra,124(sp)
830036b4:	07812403          	lw	s0,120(sp)
830036b8:	07412483          	lw	s1,116(sp)
830036bc:	07012903          	lw	s2,112(sp)
830036c0:	06c12983          	lw	s3,108(sp)
830036c4:	06812a03          	lw	s4,104(sp)
830036c8:	06412a83          	lw	s5,100(sp)
830036cc:	06012b03          	lw	s6,96(sp)
830036d0:	05c12b83          	lw	s7,92(sp)
830036d4:	05812c03          	lw	s8,88(sp)
830036d8:	05412c83          	lw	s9,84(sp)
830036dc:	05012d03          	lw	s10,80(sp)
830036e0:	04c12d83          	lw	s11,76(sp)
830036e4:	08010113          	addi	sp,sp,128
830036e8:	00008067          	ret
830036ec:	000c0693          	mv	a3,s8
830036f0:	0000a617          	auipc	a2,0xa
830036f4:	e8c60613          	addi	a2,a2,-372 # 8300d57c <zeroes.0>
830036f8:	00090593          	mv	a1,s2
830036fc:	00098513          	mv	a0,s3
83003700:	00001097          	auipc	ra,0x1
83003704:	444080e7          	jalr	1092(ra) # 83004b44 <__sfputs_r>
83003708:	fff00793          	li	a5,-1
8300370c:	e2f512e3          	bne	a0,a5,83003530 <_vfprintf_r+0x658>
83003710:	f91ff06f          	j	830036a0 <_vfprintf_r+0x7c8>
83003714:	00040693          	mv	a3,s0
83003718:	0000a617          	auipc	a2,0xa
8300371c:	e6460613          	addi	a2,a2,-412 # 8300d57c <zeroes.0>
83003720:	00090593          	mv	a1,s2
83003724:	00098513          	mv	a0,s3
83003728:	00001097          	auipc	ra,0x1
8300372c:	41c080e7          	jalr	1052(ra) # 83004b44 <__sfputs_r>
83003730:	fff00793          	li	a5,-1
83003734:	f6f506e3          	beq	a0,a5,830036a0 <_vfprintf_r+0x7c8>
83003738:	000b8693          	mv	a3,s7
8300373c:	00048613          	mv	a2,s1
83003740:	00090593          	mv	a1,s2
83003744:	00098513          	mv	a0,s3
83003748:	00001097          	auipc	ra,0x1
8300374c:	3fc080e7          	jalr	1020(ra) # 83004b44 <__sfputs_r>
83003750:	fff00793          	li	a5,-1
83003754:	f4f506e3          	beq	a0,a5,830036a0 <_vfprintf_r+0x7c8>
83003758:	004afa93          	andi	s5,s5,4
8300375c:	000a8663          	beqz	s5,83003768 <_vfprintf_r+0x890>
83003760:	419b0433          	sub	s0,s6,s9
83003764:	02804063          	bgtz	s0,83003784 <_vfprintf_r+0x8ac>
83003768:	019b5463          	bge	s6,s9,83003770 <_vfprintf_r+0x898>
8300376c:	000c8b13          	mv	s6,s9
83003770:	00412783          	lw	a5,4(sp)
83003774:	016787b3          	add	a5,a5,s6
83003778:	00f12223          	sw	a5,4(sp)
8300377c:	000a0413          	mv	s0,s4
83003780:	ff0ff06f          	j	83002f70 <_vfprintf_r+0x98>
83003784:	01000793          	li	a5,16
83003788:	0287d863          	bge	a5,s0,830037b8 <_vfprintf_r+0x8e0>
8300378c:	01000693          	li	a3,16
83003790:	0000a617          	auipc	a2,0xa
83003794:	ddc60613          	addi	a2,a2,-548 # 8300d56c <blanks.1>
83003798:	00090593          	mv	a1,s2
8300379c:	00098513          	mv	a0,s3
830037a0:	00001097          	auipc	ra,0x1
830037a4:	3a4080e7          	jalr	932(ra) # 83004b44 <__sfputs_r>
830037a8:	fff00793          	li	a5,-1
830037ac:	eef50ae3          	beq	a0,a5,830036a0 <_vfprintf_r+0x7c8>
830037b0:	ff040413          	addi	s0,s0,-16
830037b4:	fd1ff06f          	j	83003784 <_vfprintf_r+0x8ac>
830037b8:	00040693          	mv	a3,s0
830037bc:	0000a617          	auipc	a2,0xa
830037c0:	db060613          	addi	a2,a2,-592 # 8300d56c <blanks.1>
830037c4:	00090593          	mv	a1,s2
830037c8:	00098513          	mv	a0,s3
830037cc:	00001097          	auipc	ra,0x1
830037d0:	378080e7          	jalr	888(ra) # 83004b44 <__sfputs_r>
830037d4:	fff00793          	li	a5,-1
830037d8:	f8f518e3          	bne	a0,a5,83003768 <_vfprintf_r+0x890>
830037dc:	ec5ff06f          	j	830036a0 <_vfprintf_r+0x7c8>
830037e0:	fff00793          	li	a5,-1
830037e4:	00f12223          	sw	a5,4(sp)
830037e8:	ec5ff06f          	j	830036ac <_vfprintf_r+0x7d4>
830037ec:	fff00793          	li	a5,-1
830037f0:	00f12223          	sw	a5,4(sp)
830037f4:	eb9ff06f          	j	830036ac <_vfprintf_r+0x7d4>

830037f8 <vfprintf>:
830037f8:	ff010113          	addi	sp,sp,-16
830037fc:	00112623          	sw	ra,12(sp)
83003800:	00060693          	mv	a3,a2
83003804:	00058613          	mv	a2,a1
83003808:	00050593          	mv	a1,a0
8300380c:	0000c517          	auipc	a0,0xc
83003810:	27452503          	lw	a0,628(a0) # 8300fa80 <_impure_ptr>
83003814:	fffff097          	auipc	ra,0xfffff
83003818:	6c4080e7          	jalr	1732(ra) # 83002ed8 <_vfprintf_r>
8300381c:	00c12083          	lw	ra,12(sp)
83003820:	01010113          	addi	sp,sp,16
83003824:	00008067          	ret

83003828 <lflush>:
83003828:	00c55783          	lhu	a5,12(a0)
8300382c:	0097f793          	andi	a5,a5,9
83003830:	00900713          	li	a4,9
83003834:	00e78663          	beq	a5,a4,83003840 <lflush+0x18>
83003838:	00000513          	li	a0,0
8300383c:	00008067          	ret
83003840:	ff010113          	addi	sp,sp,-16
83003844:	00112623          	sw	ra,12(sp)
83003848:	00000097          	auipc	ra,0x0
8300384c:	474080e7          	jalr	1140(ra) # 83003cbc <fflush>
83003850:	00c12083          	lw	ra,12(sp)
83003854:	01010113          	addi	sp,sp,16
83003858:	00008067          	ret

8300385c <__srefill_r>:
8300385c:	fe010113          	addi	sp,sp,-32
83003860:	00112e23          	sw	ra,28(sp)
83003864:	00812c23          	sw	s0,24(sp)
83003868:	00912a23          	sw	s1,20(sp)
8300386c:	01212823          	sw	s2,16(sp)
83003870:	01312623          	sw	s3,12(sp)
83003874:	00050493          	mv	s1,a0
83003878:	00058413          	mv	s0,a1
8300387c:	00050663          	beqz	a0,83003888 <__srefill_r+0x2c>
83003880:	03852783          	lw	a5,56(a0)
83003884:	08078c63          	beqz	a5,8300391c <__srefill_r+0xc0>
83003888:	00042223          	sw	zero,4(s0)
8300388c:	00c45783          	lhu	a5,12(s0)
83003890:	0207f713          	andi	a4,a5,32
83003894:	18071e63          	bnez	a4,83003a30 <__srefill_r+0x1d4>
83003898:	0047f713          	andi	a4,a5,4
8300389c:	0c071a63          	bnez	a4,83003970 <__srefill_r+0x114>
830038a0:	0107f713          	andi	a4,a5,16
830038a4:	08070263          	beqz	a4,83003928 <__srefill_r+0xcc>
830038a8:	0087f793          	andi	a5,a5,8
830038ac:	08079c63          	bnez	a5,83003944 <__srefill_r+0xe8>
830038b0:	00c45783          	lhu	a5,12(s0)
830038b4:	0047e793          	ori	a5,a5,4
830038b8:	00f41623          	sh	a5,12(s0)
830038bc:	01042783          	lw	a5,16(s0)
830038c0:	0e078663          	beqz	a5,830039ac <__srefill_r+0x150>
830038c4:	00c41903          	lh	s2,12(s0)
830038c8:	01091993          	slli	s3,s2,0x10
830038cc:	0109d993          	srli	s3,s3,0x10
830038d0:	00397793          	andi	a5,s2,3
830038d4:	0e079663          	bnez	a5,830039c0 <__srefill_r+0x164>
830038d8:	01042603          	lw	a2,16(s0)
830038dc:	00c42023          	sw	a2,0(s0)
830038e0:	02042783          	lw	a5,32(s0)
830038e4:	01442683          	lw	a3,20(s0)
830038e8:	01c42583          	lw	a1,28(s0)
830038ec:	00048513          	mv	a0,s1
830038f0:	000780e7          	jalr	a5
830038f4:	00a42223          	sw	a0,4(s0)
830038f8:	10a05663          	blez	a0,83003a04 <__srefill_r+0x1a8>
830038fc:	00000513          	li	a0,0
83003900:	01c12083          	lw	ra,28(sp)
83003904:	01812403          	lw	s0,24(sp)
83003908:	01412483          	lw	s1,20(sp)
8300390c:	01012903          	lw	s2,16(sp)
83003910:	00c12983          	lw	s3,12(sp)
83003914:	02010113          	addi	sp,sp,32
83003918:	00008067          	ret
8300391c:	ffffe097          	auipc	ra,0xffffe
83003920:	c7c080e7          	jalr	-900(ra) # 83001598 <__sinit>
83003924:	f65ff06f          	j	83003888 <__srefill_r+0x2c>
83003928:	00900793          	li	a5,9
8300392c:	00f4a023          	sw	a5,0(s1)
83003930:	00c45783          	lhu	a5,12(s0)
83003934:	0407e793          	ori	a5,a5,64
83003938:	00f41623          	sh	a5,12(s0)
8300393c:	fff00513          	li	a0,-1
83003940:	fc1ff06f          	j	83003900 <__srefill_r+0xa4>
83003944:	00040593          	mv	a1,s0
83003948:	00048513          	mv	a0,s1
8300394c:	00000097          	auipc	ra,0x0
83003950:	30c080e7          	jalr	780(ra) # 83003c58 <_fflush_r>
83003954:	0e051263          	bnez	a0,83003a38 <__srefill_r+0x1dc>
83003958:	00c45783          	lhu	a5,12(s0)
8300395c:	ff77f793          	andi	a5,a5,-9
83003960:	00f41623          	sh	a5,12(s0)
83003964:	00042423          	sw	zero,8(s0)
83003968:	00042c23          	sw	zero,24(s0)
8300396c:	f45ff06f          	j	830038b0 <__srefill_r+0x54>
83003970:	03042583          	lw	a1,48(s0)
83003974:	f40584e3          	beqz	a1,830038bc <__srefill_r+0x60>
83003978:	04040793          	addi	a5,s0,64
8300397c:	00f58863          	beq	a1,a5,8300398c <__srefill_r+0x130>
83003980:	00048513          	mv	a0,s1
83003984:	00004097          	auipc	ra,0x4
83003988:	bf4080e7          	jalr	-1036(ra) # 83007578 <_free_r>
8300398c:	02042823          	sw	zero,48(s0)
83003990:	03c42783          	lw	a5,60(s0)
83003994:	00f42223          	sw	a5,4(s0)
83003998:	f20782e3          	beqz	a5,830038bc <__srefill_r+0x60>
8300399c:	03842783          	lw	a5,56(s0)
830039a0:	00f42023          	sw	a5,0(s0)
830039a4:	00000513          	li	a0,0
830039a8:	f59ff06f          	j	83003900 <__srefill_r+0xa4>
830039ac:	00040593          	mv	a1,s0
830039b0:	00048513          	mv	a0,s1
830039b4:	fffff097          	auipc	ra,0xfffff
830039b8:	218080e7          	jalr	536(ra) # 83002bcc <__smakebuf_r>
830039bc:	f09ff06f          	j	830038c4 <__srefill_r+0x68>
830039c0:	00100793          	li	a5,1
830039c4:	00f41623          	sh	a5,12(s0)
830039c8:	00000597          	auipc	a1,0x0
830039cc:	e6058593          	addi	a1,a1,-416 # 83003828 <lflush>
830039d0:	0000c517          	auipc	a0,0xc
830039d4:	05452503          	lw	a0,84(a0) # 8300fa24 <_global_impure_ptr>
830039d8:	fffff097          	auipc	ra,0xfffff
830039dc:	014080e7          	jalr	20(ra) # 830029ec <_fwalk>
830039e0:	01241623          	sh	s2,12(s0)
830039e4:	0099f993          	andi	s3,s3,9
830039e8:	00900793          	li	a5,9
830039ec:	eef996e3          	bne	s3,a5,830038d8 <__srefill_r+0x7c>
830039f0:	00040593          	mv	a1,s0
830039f4:	00048513          	mv	a0,s1
830039f8:	00000097          	auipc	ra,0x0
830039fc:	048080e7          	jalr	72(ra) # 83003a40 <__sflush_r>
83003a00:	ed9ff06f          	j	830038d8 <__srefill_r+0x7c>
83003a04:	00051c63          	bnez	a0,83003a1c <__srefill_r+0x1c0>
83003a08:	00c45783          	lhu	a5,12(s0)
83003a0c:	0207e793          	ori	a5,a5,32
83003a10:	00f41623          	sh	a5,12(s0)
83003a14:	fff00513          	li	a0,-1
83003a18:	ee9ff06f          	j	83003900 <__srefill_r+0xa4>
83003a1c:	00042223          	sw	zero,4(s0)
83003a20:	00c45783          	lhu	a5,12(s0)
83003a24:	0407e793          	ori	a5,a5,64
83003a28:	00f41623          	sh	a5,12(s0)
83003a2c:	fe9ff06f          	j	83003a14 <__srefill_r+0x1b8>
83003a30:	fff00513          	li	a0,-1
83003a34:	ecdff06f          	j	83003900 <__srefill_r+0xa4>
83003a38:	fff00513          	li	a0,-1
83003a3c:	ec5ff06f          	j	83003900 <__srefill_r+0xa4>

83003a40 <__sflush_r>:
83003a40:	fe010113          	addi	sp,sp,-32
83003a44:	00112e23          	sw	ra,28(sp)
83003a48:	00812c23          	sw	s0,24(sp)
83003a4c:	00912a23          	sw	s1,20(sp)
83003a50:	01212823          	sw	s2,16(sp)
83003a54:	01312623          	sw	s3,12(sp)
83003a58:	00050993          	mv	s3,a0
83003a5c:	00058413          	mv	s0,a1
83003a60:	00c5d783          	lhu	a5,12(a1)
83003a64:	0087f713          	andi	a4,a5,8
83003a68:	16071a63          	bnez	a4,83003bdc <__sflush_r+0x19c>
83003a6c:	0045a783          	lw	a5,4(a1)
83003a70:	0ef05863          	blez	a5,83003b60 <__sflush_r+0x120>
83003a74:	02842783          	lw	a5,40(s0)
83003a78:	0c078463          	beqz	a5,83003b40 <__sflush_r+0x100>
83003a7c:	0009a483          	lw	s1,0(s3)
83003a80:	0009a023          	sw	zero,0(s3)
83003a84:	00c45783          	lhu	a5,12(s0)
83003a88:	00001737          	lui	a4,0x1
83003a8c:	00e7f7b3          	and	a5,a5,a4
83003a90:	0c078e63          	beqz	a5,83003b6c <__sflush_r+0x12c>
83003a94:	05042503          	lw	a0,80(s0)
83003a98:	00c45783          	lhu	a5,12(s0)
83003a9c:	0047f793          	andi	a5,a5,4
83003aa0:	00078e63          	beqz	a5,83003abc <__sflush_r+0x7c>
83003aa4:	00442783          	lw	a5,4(s0)
83003aa8:	40f50533          	sub	a0,a0,a5
83003aac:	03042783          	lw	a5,48(s0)
83003ab0:	00078663          	beqz	a5,83003abc <__sflush_r+0x7c>
83003ab4:	03c42783          	lw	a5,60(s0)
83003ab8:	40f50533          	sub	a0,a0,a5
83003abc:	02842783          	lw	a5,40(s0)
83003ac0:	00000693          	li	a3,0
83003ac4:	00050613          	mv	a2,a0
83003ac8:	01c42583          	lw	a1,28(s0)
83003acc:	00098513          	mv	a0,s3
83003ad0:	000780e7          	jalr	a5
83003ad4:	fff00793          	li	a5,-1
83003ad8:	00f51e63          	bne	a0,a5,83003af4 <__sflush_r+0xb4>
83003adc:	0009a783          	lw	a5,0(s3)
83003ae0:	00078a63          	beqz	a5,83003af4 <__sflush_r+0xb4>
83003ae4:	01d00713          	li	a4,29
83003ae8:	00e78663          	beq	a5,a4,83003af4 <__sflush_r+0xb4>
83003aec:	01600713          	li	a4,22
83003af0:	0ce79e63          	bne	a5,a4,83003bcc <__sflush_r+0x18c>
83003af4:	00042223          	sw	zero,4(s0)
83003af8:	01042783          	lw	a5,16(s0)
83003afc:	00f42023          	sw	a5,0(s0)
83003b00:	00c45783          	lhu	a5,12(s0)
83003b04:	00001737          	lui	a4,0x1
83003b08:	00e7f7b3          	and	a5,a5,a4
83003b0c:	00078863          	beqz	a5,83003b1c <__sflush_r+0xdc>
83003b10:	fff00793          	li	a5,-1
83003b14:	0af50663          	beq	a0,a5,83003bc0 <__sflush_r+0x180>
83003b18:	04a42823          	sw	a0,80(s0)
83003b1c:	0099a023          	sw	s1,0(s3)
83003b20:	03042583          	lw	a1,48(s0)
83003b24:	00058e63          	beqz	a1,83003b40 <__sflush_r+0x100>
83003b28:	04040793          	addi	a5,s0,64
83003b2c:	00f58863          	beq	a1,a5,83003b3c <__sflush_r+0xfc>
83003b30:	00098513          	mv	a0,s3
83003b34:	00004097          	auipc	ra,0x4
83003b38:	a44080e7          	jalr	-1468(ra) # 83007578 <_free_r>
83003b3c:	02042823          	sw	zero,48(s0)
83003b40:	00000513          	li	a0,0
83003b44:	01c12083          	lw	ra,28(sp)
83003b48:	01812403          	lw	s0,24(sp)
83003b4c:	01412483          	lw	s1,20(sp)
83003b50:	01012903          	lw	s2,16(sp)
83003b54:	00c12983          	lw	s3,12(sp)
83003b58:	02010113          	addi	sp,sp,32
83003b5c:	00008067          	ret
83003b60:	03c5a783          	lw	a5,60(a1)
83003b64:	f0f048e3          	bgtz	a5,83003a74 <__sflush_r+0x34>
83003b68:	fd9ff06f          	j	83003b40 <__sflush_r+0x100>
83003b6c:	02842783          	lw	a5,40(s0)
83003b70:	00100693          	li	a3,1
83003b74:	00000613          	li	a2,0
83003b78:	01c42583          	lw	a1,28(s0)
83003b7c:	00098513          	mv	a0,s3
83003b80:	000780e7          	jalr	a5
83003b84:	fff00793          	li	a5,-1
83003b88:	f0f518e3          	bne	a0,a5,83003a98 <__sflush_r+0x58>
83003b8c:	0009a783          	lw	a5,0(s3)
83003b90:	f00784e3          	beqz	a5,83003a98 <__sflush_r+0x58>
83003b94:	01d00713          	li	a4,29
83003b98:	00e78e63          	beq	a5,a4,83003bb4 <__sflush_r+0x174>
83003b9c:	01600713          	li	a4,22
83003ba0:	00e78a63          	beq	a5,a4,83003bb4 <__sflush_r+0x174>
83003ba4:	00c45783          	lhu	a5,12(s0)
83003ba8:	0407e793          	ori	a5,a5,64
83003bac:	00f41623          	sh	a5,12(s0)
83003bb0:	f95ff06f          	j	83003b44 <__sflush_r+0x104>
83003bb4:	0099a023          	sw	s1,0(s3)
83003bb8:	00000513          	li	a0,0
83003bbc:	f89ff06f          	j	83003b44 <__sflush_r+0x104>
83003bc0:	0009a783          	lw	a5,0(s3)
83003bc4:	f4079ce3          	bnez	a5,83003b1c <__sflush_r+0xdc>
83003bc8:	f51ff06f          	j	83003b18 <__sflush_r+0xd8>
83003bcc:	00c45783          	lhu	a5,12(s0)
83003bd0:	0407e793          	ori	a5,a5,64
83003bd4:	00f41623          	sh	a5,12(s0)
83003bd8:	f6dff06f          	j	83003b44 <__sflush_r+0x104>
83003bdc:	0105a903          	lw	s2,16(a1)
83003be0:	06090863          	beqz	s2,83003c50 <__sflush_r+0x210>
83003be4:	0005a483          	lw	s1,0(a1)
83003be8:	412484b3          	sub	s1,s1,s2
83003bec:	0125a023          	sw	s2,0(a1)
83003bf0:	0037f793          	andi	a5,a5,3
83003bf4:	02079c63          	bnez	a5,83003c2c <__sflush_r+0x1ec>
83003bf8:	0145a783          	lw	a5,20(a1)
83003bfc:	00f42423          	sw	a5,8(s0)
83003c00:	04905463          	blez	s1,83003c48 <__sflush_r+0x208>
83003c04:	02442783          	lw	a5,36(s0)
83003c08:	00048693          	mv	a3,s1
83003c0c:	00090613          	mv	a2,s2
83003c10:	01c42583          	lw	a1,28(s0)
83003c14:	00098513          	mv	a0,s3
83003c18:	000780e7          	jalr	a5
83003c1c:	00a05c63          	blez	a0,83003c34 <__sflush_r+0x1f4>
83003c20:	00a90933          	add	s2,s2,a0
83003c24:	40a484b3          	sub	s1,s1,a0
83003c28:	fd9ff06f          	j	83003c00 <__sflush_r+0x1c0>
83003c2c:	00000793          	li	a5,0
83003c30:	fcdff06f          	j	83003bfc <__sflush_r+0x1bc>
83003c34:	00c45783          	lhu	a5,12(s0)
83003c38:	0407e793          	ori	a5,a5,64
83003c3c:	00f41623          	sh	a5,12(s0)
83003c40:	fff00513          	li	a0,-1
83003c44:	f01ff06f          	j	83003b44 <__sflush_r+0x104>
83003c48:	00000513          	li	a0,0
83003c4c:	ef9ff06f          	j	83003b44 <__sflush_r+0x104>
83003c50:	00000513          	li	a0,0
83003c54:	ef1ff06f          	j	83003b44 <__sflush_r+0x104>

83003c58 <_fflush_r>:
83003c58:	ff010113          	addi	sp,sp,-16
83003c5c:	00112623          	sw	ra,12(sp)
83003c60:	00812423          	sw	s0,8(sp)
83003c64:	00912223          	sw	s1,4(sp)
83003c68:	00050413          	mv	s0,a0
83003c6c:	00058493          	mv	s1,a1
83003c70:	00050663          	beqz	a0,83003c7c <_fflush_r+0x24>
83003c74:	03852783          	lw	a5,56(a0)
83003c78:	02078263          	beqz	a5,83003c9c <_fflush_r+0x44>
83003c7c:	00c49783          	lh	a5,12(s1)
83003c80:	02079463          	bnez	a5,83003ca8 <_fflush_r+0x50>
83003c84:	00000513          	li	a0,0
83003c88:	00c12083          	lw	ra,12(sp)
83003c8c:	00812403          	lw	s0,8(sp)
83003c90:	00412483          	lw	s1,4(sp)
83003c94:	01010113          	addi	sp,sp,16
83003c98:	00008067          	ret
83003c9c:	ffffe097          	auipc	ra,0xffffe
83003ca0:	8fc080e7          	jalr	-1796(ra) # 83001598 <__sinit>
83003ca4:	fd9ff06f          	j	83003c7c <_fflush_r+0x24>
83003ca8:	00048593          	mv	a1,s1
83003cac:	00040513          	mv	a0,s0
83003cb0:	00000097          	auipc	ra,0x0
83003cb4:	d90080e7          	jalr	-624(ra) # 83003a40 <__sflush_r>
83003cb8:	fd1ff06f          	j	83003c88 <_fflush_r+0x30>

83003cbc <fflush>:
83003cbc:	ff010113          	addi	sp,sp,-16
83003cc0:	00112623          	sw	ra,12(sp)
83003cc4:	02050263          	beqz	a0,83003ce8 <fflush+0x2c>
83003cc8:	00050593          	mv	a1,a0
83003ccc:	0000c517          	auipc	a0,0xc
83003cd0:	db452503          	lw	a0,-588(a0) # 8300fa80 <_impure_ptr>
83003cd4:	00000097          	auipc	ra,0x0
83003cd8:	f84080e7          	jalr	-124(ra) # 83003c58 <_fflush_r>
83003cdc:	00c12083          	lw	ra,12(sp)
83003ce0:	01010113          	addi	sp,sp,16
83003ce4:	00008067          	ret
83003ce8:	00000597          	auipc	a1,0x0
83003cec:	f7058593          	addi	a1,a1,-144 # 83003c58 <_fflush_r>
83003cf0:	0000c517          	auipc	a0,0xc
83003cf4:	d3452503          	lw	a0,-716(a0) # 8300fa24 <_global_impure_ptr>
83003cf8:	fffff097          	auipc	ra,0xfffff
83003cfc:	d8c080e7          	jalr	-628(ra) # 83002a84 <_fwalk_reent>
83003d00:	fddff06f          	j	83003cdc <fflush+0x20>

83003d04 <__ssvfscanf_r>:
83003d04:	e7010113          	addi	sp,sp,-400
83003d08:	18112623          	sw	ra,396(sp)
83003d0c:	18812423          	sw	s0,392(sp)
83003d10:	18912223          	sw	s1,388(sp)
83003d14:	19212023          	sw	s2,384(sp)
83003d18:	17312e23          	sw	s3,380(sp)
83003d1c:	17412c23          	sw	s4,376(sp)
83003d20:	17512a23          	sw	s5,372(sp)
83003d24:	17612823          	sw	s6,368(sp)
83003d28:	17712623          	sw	s7,364(sp)
83003d2c:	17812423          	sw	s8,360(sp)
83003d30:	17912223          	sw	s9,356(sp)
83003d34:	17a12023          	sw	s10,352(sp)
83003d38:	15b12e23          	sw	s11,348(sp)
83003d3c:	00050a93          	mv	s5,a0
83003d40:	00058413          	mv	s0,a1
83003d44:	00060993          	mv	s3,a2
83003d48:	00d12623          	sw	a3,12(sp)
83003d4c:	00012223          	sw	zero,4(sp)
83003d50:	00000a13          	li	s4,0
83003d54:	00000c13          	li	s8,0
83003d58:	00000493          	li	s1,0
83003d5c:	00000d13          	li	s10,0
83003d60:	0e40006f          	j	83003e44 <__ssvfscanf_r+0x140>
83003d64:	00058993          	mv	s3,a1
83003d68:	0dc0006f          	j	83003e44 <__ssvfscanf_r+0x140>
83003d6c:	00042783          	lw	a5,0(s0)
83003d70:	0007c703          	lbu	a4,0(a5)
83003d74:	0000a697          	auipc	a3,0xa
83003d78:	e8968693          	addi	a3,a3,-375 # 8300dbfd <_ctype_+0x1>
83003d7c:	00d70733          	add	a4,a4,a3
83003d80:	00074703          	lbu	a4,0(a4) # 1000 <_ZL9set_i_maxv-0x82fff0b4>
83003d84:	00877713          	andi	a4,a4,8
83003d88:	0a070e63          	beqz	a4,83003e44 <__ssvfscanf_r+0x140>
83003d8c:	00148493          	addi	s1,s1,1
83003d90:	00442703          	lw	a4,4(s0)
83003d94:	fff70713          	addi	a4,a4,-1
83003d98:	00e42223          	sw	a4,4(s0)
83003d9c:	00178793          	addi	a5,a5,1
83003da0:	00f42023          	sw	a5,0(s0)
83003da4:	00442783          	lw	a5,4(s0)
83003da8:	fcf042e3          	bgtz	a5,83003d6c <__ssvfscanf_r+0x68>
83003dac:	00040593          	mv	a1,s0
83003db0:	000a8513          	mv	a0,s5
83003db4:	00005097          	auipc	ra,0x5
83003db8:	e10080e7          	jalr	-496(ra) # 83008bc4 <__ssrefill_r>
83003dbc:	fa0508e3          	beqz	a0,83003d6c <__ssvfscanf_r+0x68>
83003dc0:	0840006f          	j	83003e44 <__ssvfscanf_r+0x140>
83003dc4:	00058993          	mv	s3,a1
83003dc8:	00004797          	auipc	a5,0x4
83003dcc:	4f078793          	addi	a5,a5,1264 # 830082b8 <_strtoul_r>
83003dd0:	00f12223          	sw	a5,4(sp)
83003dd4:	00800c13          	li	s8,8
83003dd8:	00300b13          	li	s6,3
83003ddc:	00442783          	lw	a5,4(s0)
83003de0:	34f05463          	blez	a5,83004128 <__ssvfscanf_r+0x424>
83003de4:	040bf793          	andi	a5,s7,64
83003de8:	36078663          	beqz	a5,83004154 <__ssvfscanf_r+0x450>
83003dec:	00200793          	li	a5,2
83003df0:	04fb0ce3          	beq	s6,a5,83004648 <__ssvfscanf_r+0x944>
83003df4:	3b67c063          	blt	a5,s6,83004194 <__ssvfscanf_r+0x490>
83003df8:	3a0b0e63          	beqz	s6,830041b4 <__ssvfscanf_r+0x4b0>
83003dfc:	00100793          	li	a5,1
83003e00:	04fb1263          	bne	s6,a5,83003e44 <__ssvfscanf_r+0x140>
83003e04:	00091463          	bnez	s2,83003e0c <__ssvfscanf_r+0x108>
83003e08:	fff00913          	li	s2,-1
83003e0c:	001bfc93          	andi	s9,s7,1
83003e10:	580c9863          	bnez	s9,830043a0 <__ssvfscanf_r+0x69c>
83003e14:	010bfb13          	andi	s6,s7,16
83003e18:	740b1663          	bnez	s6,83004564 <__ssvfscanf_r+0x860>
83003e1c:	00c12783          	lw	a5,12(sp)
83003e20:	00478713          	addi	a4,a5,4
83003e24:	00e12623          	sw	a4,12(sp)
83003e28:	0007ab03          	lw	s6,0(a5)
83003e2c:	000b0693          	mv	a3,s6
83003e30:	7980006f          	j	830045c8 <__ssvfscanf_r+0x8c4>
83003e34:	00058993          	mv	s3,a1
83003e38:	fff98b13          	addi	s6,s3,-1
83003e3c:	00000913          	li	s2,0
83003e40:	07205863          	blez	s2,83003eb0 <__ssvfscanf_r+0x1ac>
83003e44:	0009c783          	lbu	a5,0(s3)
83003e48:	14f12623          	sw	a5,332(sp)
83003e4c:	00198993          	addi	s3,s3,1
83003e50:	0c078063          	beqz	a5,83003f10 <__ssvfscanf_r+0x20c>
83003e54:	0000a717          	auipc	a4,0xa
83003e58:	da970713          	addi	a4,a4,-599 # 8300dbfd <_ctype_+0x1>
83003e5c:	00e78733          	add	a4,a5,a4
83003e60:	00074703          	lbu	a4,0(a4)
83003e64:	00877713          	andi	a4,a4,8
83003e68:	f2071ee3          	bnez	a4,83003da4 <__ssvfscanf_r+0xa0>
83003e6c:	02500713          	li	a4,37
83003e70:	fce794e3          	bne	a5,a4,83003e38 <__ssvfscanf_r+0x134>
83003e74:	00000b93          	li	s7,0
83003e78:	00000913          	li	s2,0
83003e7c:	00198593          	addi	a1,s3,1
83003e80:	0009c703          	lbu	a4,0(s3)
83003e84:	fdb70793          	addi	a5,a4,-37
83003e88:	0ff7f613          	zext.b	a2,a5
83003e8c:	05300693          	li	a3,83
83003e90:	08c6e063          	bltu	a3,a2,83003f10 <__ssvfscanf_r+0x20c>
83003e94:	00261793          	slli	a5,a2,0x2
83003e98:	00009697          	auipc	a3,0x9
83003e9c:	6f468693          	addi	a3,a3,1780 # 8300d58c <zeroes.0+0x10>
83003ea0:	00d787b3          	add	a5,a5,a3
83003ea4:	0007a783          	lw	a5,0(a5)
83003ea8:	00d787b3          	add	a5,a5,a3
83003eac:	00078067          	jr	a5
83003eb0:	00442783          	lw	a5,4(s0)
83003eb4:	02f05c63          	blez	a5,83003eec <__ssvfscanf_r+0x1e8>
83003eb8:	00042783          	lw	a5,0(s0)
83003ebc:	0007c683          	lbu	a3,0(a5)
83003ec0:	000b4703          	lbu	a4,0(s6)
83003ec4:	04e69663          	bne	a3,a4,83003f10 <__ssvfscanf_r+0x20c>
83003ec8:	00442703          	lw	a4,4(s0)
83003ecc:	fff70713          	addi	a4,a4,-1
83003ed0:	00e42223          	sw	a4,4(s0)
83003ed4:	00178793          	addi	a5,a5,1
83003ed8:	00f42023          	sw	a5,0(s0)
83003edc:	00148493          	addi	s1,s1,1
83003ee0:	001b0b13          	addi	s6,s6,1
83003ee4:	00190913          	addi	s2,s2,1
83003ee8:	f59ff06f          	j	83003e40 <__ssvfscanf_r+0x13c>
83003eec:	00040593          	mv	a1,s0
83003ef0:	000a8513          	mv	a0,s5
83003ef4:	00005097          	auipc	ra,0x5
83003ef8:	cd0080e7          	jalr	-816(ra) # 83008bc4 <__ssrefill_r>
83003efc:	fa050ee3          	beqz	a0,83003eb8 <__ssvfscanf_r+0x1b4>
83003f00:	420d0ee3          	beqz	s10,83004b3c <__ssvfscanf_r+0xe38>
83003f04:	00c45783          	lhu	a5,12(s0)
83003f08:	0407f793          	andi	a5,a5,64
83003f0c:	420794e3          	bnez	a5,83004b34 <__ssvfscanf_r+0xe30>
83003f10:	000d0513          	mv	a0,s10
83003f14:	18c12083          	lw	ra,396(sp)
83003f18:	18812403          	lw	s0,392(sp)
83003f1c:	18412483          	lw	s1,388(sp)
83003f20:	18012903          	lw	s2,384(sp)
83003f24:	17c12983          	lw	s3,380(sp)
83003f28:	17812a03          	lw	s4,376(sp)
83003f2c:	17412a83          	lw	s5,372(sp)
83003f30:	17012b03          	lw	s6,368(sp)
83003f34:	16c12b83          	lw	s7,364(sp)
83003f38:	16812c03          	lw	s8,360(sp)
83003f3c:	16412c83          	lw	s9,356(sp)
83003f40:	16012d03          	lw	s10,352(sp)
83003f44:	15c12d83          	lw	s11,348(sp)
83003f48:	19010113          	addi	sp,sp,400
83003f4c:	00008067          	ret
83003f50:	09fbf793          	andi	a5,s7,159
83003f54:	fa079ee3          	bnez	a5,83003f10 <__ssvfscanf_r+0x20c>
83003f58:	fa091ce3          	bnez	s2,83003f10 <__ssvfscanf_r+0x20c>
83003f5c:	010beb93          	ori	s7,s7,16
83003f60:	0100006f          	j	83003f70 <__ssvfscanf_r+0x26c>
83003f64:	00fbf793          	andi	a5,s7,15
83003f68:	fa0794e3          	bnez	a5,83003f10 <__ssvfscanf_r+0x20c>
83003f6c:	001beb93          	ori	s7,s7,1
83003f70:	00058993          	mv	s3,a1
83003f74:	f09ff06f          	j	83003e7c <__ssvfscanf_r+0x178>
83003f78:	00fbf793          	andi	a5,s7,15
83003f7c:	f8079ae3          	bnez	a5,83003f10 <__ssvfscanf_r+0x20c>
83003f80:	002beb93          	ori	s7,s7,2
83003f84:	fedff06f          	j	83003f70 <__ssvfscanf_r+0x26c>
83003f88:	00fbf793          	andi	a5,s7,15
83003f8c:	f80792e3          	bnez	a5,83003f10 <__ssvfscanf_r+0x20c>
83003f90:	004beb93          	ori	s7,s7,4
83003f94:	fddff06f          	j	83003f70 <__ssvfscanf_r+0x26c>
83003f98:	08fbf793          	andi	a5,s7,143
83003f9c:	f6079ae3          	bnez	a5,83003f10 <__ssvfscanf_r+0x20c>
83003fa0:	00291793          	slli	a5,s2,0x2
83003fa4:	012787b3          	add	a5,a5,s2
83003fa8:	00179793          	slli	a5,a5,0x1
83003fac:	00f70733          	add	a4,a4,a5
83003fb0:	fd070913          	addi	s2,a4,-48
83003fb4:	fbdff06f          	j	83003f70 <__ssvfscanf_r+0x26c>
83003fb8:	001beb93          	ori	s7,s7,1
83003fbc:	00058993          	mv	s3,a1
83003fc0:	00003797          	auipc	a5,0x3
83003fc4:	c0878793          	addi	a5,a5,-1016 # 83006bc8 <_strtol_r>
83003fc8:	00f12223          	sw	a5,4(sp)
83003fcc:	00a00c13          	li	s8,10
83003fd0:	00300b13          	li	s6,3
83003fd4:	e09ff06f          	j	83003ddc <__ssvfscanf_r+0xd8>
83003fd8:	001beb93          	ori	s7,s7,1
83003fdc:	00058993          	mv	s3,a1
83003fe0:	00004797          	auipc	a5,0x4
83003fe4:	2d878793          	addi	a5,a5,728 # 830082b8 <_strtoul_r>
83003fe8:	00f12223          	sw	a5,4(sp)
83003fec:	00800c13          	li	s8,8
83003ff0:	00300b13          	li	s6,3
83003ff4:	de9ff06f          	j	83003ddc <__ssvfscanf_r+0xd8>
83003ff8:	00058993          	mv	s3,a1
83003ffc:	00004797          	auipc	a5,0x4
83004000:	2bc78793          	addi	a5,a5,700 # 830082b8 <_strtoul_r>
83004004:	00f12223          	sw	a5,4(sp)
83004008:	00a00c13          	li	s8,10
8300400c:	00300b13          	li	s6,3
83004010:	dcdff06f          	j	83003ddc <__ssvfscanf_r+0xd8>
83004014:	200beb93          	ori	s7,s7,512
83004018:	00058993          	mv	s3,a1
8300401c:	00004797          	auipc	a5,0x4
83004020:	29c78793          	addi	a5,a5,668 # 830082b8 <_strtoul_r>
83004024:	00f12223          	sw	a5,4(sp)
83004028:	01000c13          	li	s8,16
8300402c:	00300b13          	li	s6,3
83004030:	dadff06f          	j	83003ddc <__ssvfscanf_r+0xd8>
83004034:	00058993          	mv	s3,a1
83004038:	00200b13          	li	s6,2
8300403c:	da1ff06f          	j	83003ddc <__ssvfscanf_r+0xd8>
83004040:	04c10513          	addi	a0,sp,76
83004044:	00005097          	auipc	ra,0x5
83004048:	8d4080e7          	jalr	-1836(ra) # 83008918 <__sccl>
8300404c:	00050993          	mv	s3,a0
83004050:	040beb93          	ori	s7,s7,64
83004054:	00100b13          	li	s6,1
83004058:	d85ff06f          	j	83003ddc <__ssvfscanf_r+0xd8>
8300405c:	040beb93          	ori	s7,s7,64
83004060:	00058993          	mv	s3,a1
83004064:	00000b13          	li	s6,0
83004068:	d75ff06f          	j	83003ddc <__ssvfscanf_r+0xd8>
8300406c:	220beb93          	ori	s7,s7,544
83004070:	00058993          	mv	s3,a1
83004074:	00004797          	auipc	a5,0x4
83004078:	24478793          	addi	a5,a5,580 # 830082b8 <_strtoul_r>
8300407c:	00f12223          	sw	a5,4(sp)
83004080:	01000c13          	li	s8,16
83004084:	00300b13          	li	s6,3
83004088:	d55ff06f          	j	83003ddc <__ssvfscanf_r+0xd8>
8300408c:	010bf793          	andi	a5,s7,16
83004090:	cc079ae3          	bnez	a5,83003d64 <__ssvfscanf_r+0x60>
83004094:	004bf793          	andi	a5,s7,4
83004098:	02078063          	beqz	a5,830040b8 <__ssvfscanf_r+0x3b4>
8300409c:	00c12783          	lw	a5,12(sp)
830040a0:	00478713          	addi	a4,a5,4
830040a4:	00e12623          	sw	a4,12(sp)
830040a8:	0007a783          	lw	a5,0(a5)
830040ac:	00979023          	sh	s1,0(a5)
830040b0:	00058993          	mv	s3,a1
830040b4:	d91ff06f          	j	83003e44 <__ssvfscanf_r+0x140>
830040b8:	001bfb13          	andi	s6,s7,1
830040bc:	000b0e63          	beqz	s6,830040d8 <__ssvfscanf_r+0x3d4>
830040c0:	00c12783          	lw	a5,12(sp)
830040c4:	00478713          	addi	a4,a5,4
830040c8:	00e12623          	sw	a4,12(sp)
830040cc:	0007a783          	lw	a5,0(a5)
830040d0:	0097a023          	sw	s1,0(a5)
830040d4:	fddff06f          	j	830040b0 <__ssvfscanf_r+0x3ac>
830040d8:	00c12783          	lw	a5,12(sp)
830040dc:	00478713          	addi	a4,a5,4
830040e0:	00e12623          	sw	a4,12(sp)
830040e4:	0007a783          	lw	a5,0(a5)
830040e8:	0097a023          	sw	s1,0(a5)
830040ec:	fc5ff06f          	j	830040b0 <__ssvfscanf_r+0x3ac>
830040f0:	00058993          	mv	s3,a1
830040f4:	00003797          	auipc	a5,0x3
830040f8:	ad478793          	addi	a5,a5,-1324 # 83006bc8 <_strtol_r>
830040fc:	00f12223          	sw	a5,4(sp)
83004100:	00000c13          	li	s8,0
83004104:	00300b13          	li	s6,3
83004108:	cd5ff06f          	j	83003ddc <__ssvfscanf_r+0xd8>
8300410c:	00058993          	mv	s3,a1
83004110:	00003797          	auipc	a5,0x3
83004114:	ab878793          	addi	a5,a5,-1352 # 83006bc8 <_strtol_r>
83004118:	00f12223          	sw	a5,4(sp)
8300411c:	00a00c13          	li	s8,10
83004120:	00300b13          	li	s6,3
83004124:	cb9ff06f          	j	83003ddc <__ssvfscanf_r+0xd8>
83004128:	00040593          	mv	a1,s0
8300412c:	000a8513          	mv	a0,s5
83004130:	00005097          	auipc	ra,0x5
83004134:	a94080e7          	jalr	-1388(ra) # 83008bc4 <__ssrefill_r>
83004138:	ca0506e3          	beqz	a0,83003de4 <__ssvfscanf_r+0xe0>
8300413c:	dc5ff06f          	j	83003f00 <__ssvfscanf_r+0x1fc>
83004140:	00040593          	mv	a1,s0
83004144:	000a8513          	mv	a0,s5
83004148:	00005097          	auipc	ra,0x5
8300414c:	a7c080e7          	jalr	-1412(ra) # 83008bc4 <__ssrefill_r>
83004150:	da0518e3          	bnez	a0,83003f00 <__ssvfscanf_r+0x1fc>
83004154:	00042703          	lw	a4,0(s0)
83004158:	00074783          	lbu	a5,0(a4)
8300415c:	0000a697          	auipc	a3,0xa
83004160:	aa168693          	addi	a3,a3,-1375 # 8300dbfd <_ctype_+0x1>
83004164:	00d787b3          	add	a5,a5,a3
83004168:	0007c783          	lbu	a5,0(a5)
8300416c:	0087f793          	andi	a5,a5,8
83004170:	c6078ee3          	beqz	a5,83003dec <__ssvfscanf_r+0xe8>
83004174:	00148493          	addi	s1,s1,1
83004178:	00442783          	lw	a5,4(s0)
8300417c:	fff78793          	addi	a5,a5,-1
83004180:	00f42223          	sw	a5,4(s0)
83004184:	faf05ee3          	blez	a5,83004140 <__ssvfscanf_r+0x43c>
83004188:	00170713          	addi	a4,a4,1
8300418c:	00e42023          	sw	a4,0(s0)
83004190:	fc5ff06f          	j	83004154 <__ssvfscanf_r+0x450>
83004194:	00300793          	li	a5,3
83004198:	cafb16e3          	bne	s6,a5,83003e44 <__ssvfscanf_r+0x140>
8300419c:	fff90793          	addi	a5,s2,-1
830041a0:	02600713          	li	a4,38
830041a4:	74f77263          	bgeu	a4,a5,830048e8 <__ssvfscanf_r+0xbe4>
830041a8:	fd990d93          	addi	s11,s2,-39
830041ac:	02700913          	li	s2,39
830041b0:	73c0006f          	j	830048ec <__ssvfscanf_r+0xbe8>
830041b4:	00091463          	bnez	s2,830041bc <__ssvfscanf_r+0x4b8>
830041b8:	00100913          	li	s2,1
830041bc:	001bf793          	andi	a5,s7,1
830041c0:	04079263          	bnez	a5,83004204 <__ssvfscanf_r+0x500>
830041c4:	010bfb13          	andi	s6,s7,16
830041c8:	160b1e63          	bnez	s6,83004344 <__ssvfscanf_r+0x640>
830041cc:	00c12783          	lw	a5,12(sp)
830041d0:	00478713          	addi	a4,a5,4
830041d4:	00e12623          	sw	a4,12(sp)
830041d8:	00040713          	mv	a4,s0
830041dc:	00090693          	mv	a3,s2
830041e0:	00100613          	li	a2,1
830041e4:	0007a583          	lw	a1,0(a5)
830041e8:	000a8513          	mv	a0,s5
830041ec:	00005097          	auipc	ra,0x5
830041f0:	a4c080e7          	jalr	-1460(ra) # 83008c38 <_sfread_r>
830041f4:	d00506e3          	beqz	a0,83003f00 <__ssvfscanf_r+0x1fc>
830041f8:	00a484b3          	add	s1,s1,a0
830041fc:	001d0d13          	addi	s10,s10,1
83004200:	c45ff06f          	j	83003e44 <__ssvfscanf_r+0x140>
83004204:	010bf793          	andi	a5,s7,16
83004208:	00f12423          	sw	a5,8(sp)
8300420c:	12079663          	bnez	a5,83004338 <__ssvfscanf_r+0x634>
83004210:	00c12783          	lw	a5,12(sp)
83004214:	00478713          	addi	a4,a5,4
83004218:	00e12623          	sw	a4,12(sp)
8300421c:	0007ad83          	lw	s11,0(a5)
83004220:	11c0006f          	j	8300433c <__ssvfscanf_r+0x638>
83004224:	01c12703          	lw	a4,28(sp)
83004228:	00400793          	li	a5,4
8300422c:	0cf71263          	bne	a4,a5,830042f0 <__ssvfscanf_r+0x5ec>
83004230:	0c40006f          	j	830042f4 <__ssvfscanf_r+0x5f0>
83004234:	000c8b93          	mv	s7,s9
83004238:	00442783          	lw	a5,4(s0)
8300423c:	0cf05a63          	blez	a5,83004310 <__ssvfscanf_r+0x60c>
83004240:	0e090463          	beqz	s2,83004328 <__ssvfscanf_r+0x624>
83004244:	00002097          	auipc	ra,0x2
83004248:	718080e7          	jalr	1816(ra) # 8300695c <__locale_mb_cur_max>
8300424c:	cb750ae3          	beq	a0,s7,83003f00 <__ssvfscanf_r+0x1fc>
83004250:	00042783          	lw	a5,0(s0)
83004254:	001b8c93          	addi	s9,s7,1
83004258:	0007c703          	lbu	a4,0(a5)
8300425c:	150b8693          	addi	a3,s7,336
83004260:	00268bb3          	add	s7,a3,sp
83004264:	eceb8a23          	sb	a4,-300(s7)
83004268:	00442703          	lw	a4,4(s0)
8300426c:	fff70713          	addi	a4,a4,-1
83004270:	00e42223          	sw	a4,4(s0)
83004274:	00178793          	addi	a5,a5,1
83004278:	00f42023          	sw	a5,0(s0)
8300427c:	00300793          	li	a5,3
83004280:	00fa1863          	bne	s4,a5,83004290 <__ssvfscanf_r+0x58c>
83004284:	01c12703          	lw	a4,28(sp)
83004288:	00400793          	li	a5,4
8300428c:	00f70c63          	beq	a4,a5,830042a4 <__ssvfscanf_r+0x5a0>
83004290:	00800613          	li	a2,8
83004294:	00000593          	li	a1,0
83004298:	01c10513          	addi	a0,sp,28
8300429c:	ffffd097          	auipc	ra,0xffffd
830042a0:	da0080e7          	jalr	-608(ra) # 8300103c <memset>
830042a4:	01c10713          	addi	a4,sp,28
830042a8:	000c8693          	mv	a3,s9
830042ac:	02410613          	addi	a2,sp,36
830042b0:	000d8593          	mv	a1,s11
830042b4:	000a8513          	mv	a0,s5
830042b8:	00003097          	auipc	ra,0x3
830042bc:	05c080e7          	jalr	92(ra) # 83007314 <_mbrtowc_r>
830042c0:	00050a13          	mv	s4,a0
830042c4:	fff00793          	li	a5,-1
830042c8:	c2f50ce3          	beq	a0,a5,83003f00 <__ssvfscanf_r+0x1fc>
830042cc:	00051863          	bnez	a0,830042dc <__ssvfscanf_r+0x5d8>
830042d0:	00812783          	lw	a5,8(sp)
830042d4:	00079463          	bnez	a5,830042dc <__ssvfscanf_r+0x5d8>
830042d8:	000da023          	sw	zero,0(s11)
830042dc:	ffe00793          	li	a5,-2
830042e0:	f4fa0ae3          	beq	s4,a5,83004234 <__ssvfscanf_r+0x530>
830042e4:	019484b3          	add	s1,s1,s9
830042e8:	00300793          	li	a5,3
830042ec:	f2fa0ce3          	beq	s4,a5,83004224 <__ssvfscanf_r+0x520>
830042f0:	fff90913          	addi	s2,s2,-1
830042f4:	00812783          	lw	a5,8(sp)
830042f8:	00079863          	bnez	a5,83004308 <__ssvfscanf_r+0x604>
830042fc:	004d8d93          	addi	s11,s11,4
83004300:	00078b93          	mv	s7,a5
83004304:	f35ff06f          	j	83004238 <__ssvfscanf_r+0x534>
83004308:	000b0b93          	mv	s7,s6
8300430c:	f2dff06f          	j	83004238 <__ssvfscanf_r+0x534>
83004310:	00040593          	mv	a1,s0
83004314:	000a8513          	mv	a0,s5
83004318:	00005097          	auipc	ra,0x5
8300431c:	8ac080e7          	jalr	-1876(ra) # 83008bc4 <__ssrefill_r>
83004320:	f20500e3          	beqz	a0,83004240 <__ssvfscanf_r+0x53c>
83004324:	bc0b9ee3          	bnez	s7,83003f00 <__ssvfscanf_r+0x1fc>
83004328:	00812783          	lw	a5,8(sp)
8300432c:	b0079ce3          	bnez	a5,83003e44 <__ssvfscanf_r+0x140>
83004330:	001d0d13          	addi	s10,s10,1
83004334:	b11ff06f          	j	83003e44 <__ssvfscanf_r+0x140>
83004338:	00000d93          	li	s11,0
8300433c:	000b0b93          	mv	s7,s6
83004340:	f01ff06f          	j	83004240 <__ssvfscanf_r+0x53c>
83004344:	00000b13          	li	s6,0
83004348:	00442783          	lw	a5,4(s0)
8300434c:	0327da63          	bge	a5,s2,83004380 <__ssvfscanf_r+0x67c>
83004350:	00fb0b33          	add	s6,s6,a5
83004354:	40f90933          	sub	s2,s2,a5
83004358:	00042703          	lw	a4,0(s0)
8300435c:	00f707b3          	add	a5,a4,a5
83004360:	00f42023          	sw	a5,0(s0)
83004364:	00040593          	mv	a1,s0
83004368:	000a8513          	mv	a0,s5
8300436c:	00005097          	auipc	ra,0x5
83004370:	858080e7          	jalr	-1960(ra) # 83008bc4 <__ssrefill_r>
83004374:	fc050ae3          	beqz	a0,83004348 <__ssvfscanf_r+0x644>
83004378:	020b1063          	bnez	s6,83004398 <__ssvfscanf_r+0x694>
8300437c:	b85ff06f          	j	83003f00 <__ssvfscanf_r+0x1fc>
83004380:	012b0b33          	add	s6,s6,s2
83004384:	412787b3          	sub	a5,a5,s2
83004388:	00f42223          	sw	a5,4(s0)
8300438c:	00042783          	lw	a5,0(s0)
83004390:	012787b3          	add	a5,a5,s2
83004394:	00f42023          	sw	a5,0(s0)
83004398:	016484b3          	add	s1,s1,s6
8300439c:	aa9ff06f          	j	83003e44 <__ssvfscanf_r+0x140>
830043a0:	010bfd93          	andi	s11,s7,16
830043a4:	1a0d9a63          	bnez	s11,83004558 <__ssvfscanf_r+0x854>
830043a8:	00c12783          	lw	a5,12(sp)
830043ac:	00478713          	addi	a4,a5,4
830043b0:	00e12623          	sw	a4,12(sp)
830043b4:	0007ac83          	lw	s9,0(a5)
830043b8:	1a40006f          	j	8300455c <__ssvfscanf_r+0x858>
830043bc:	00800613          	li	a2,8
830043c0:	00000593          	li	a1,0
830043c4:	01410513          	addi	a0,sp,20
830043c8:	ffffd097          	auipc	ra,0xffffd
830043cc:	c74080e7          	jalr	-908(ra) # 8300103c <memset>
830043d0:	01410713          	addi	a4,sp,20
830043d4:	000b8693          	mv	a3,s7
830043d8:	02410613          	addi	a2,sp,36
830043dc:	000c8593          	mv	a1,s9
830043e0:	000a8513          	mv	a0,s5
830043e4:	00003097          	auipc	ra,0x3
830043e8:	f30080e7          	jalr	-208(ra) # 83007314 <_mbrtowc_r>
830043ec:	00050a13          	mv	s4,a0
830043f0:	fff00793          	li	a5,-1
830043f4:	b0f506e3          	beq	a0,a5,83003f00 <__ssvfscanf_r+0x1fc>
830043f8:	00051463          	bnez	a0,83004400 <__ssvfscanf_r+0x6fc>
830043fc:	000ca023          	sw	zero,0(s9)
83004400:	ffe00793          	li	a5,-2
83004404:	06fa1263          	bne	s4,a5,83004468 <__ssvfscanf_r+0x764>
83004408:	00442783          	lw	a5,4(s0)
8300440c:	12f05863          	blez	a5,8300453c <__ssvfscanf_r+0x838>
83004410:	000b8b13          	mv	s6,s7
83004414:	10090063          	beqz	s2,83004514 <__ssvfscanf_r+0x810>
83004418:	00002097          	auipc	ra,0x2
8300441c:	544080e7          	jalr	1348(ra) # 8300695c <__locale_mb_cur_max>
83004420:	af6500e3          	beq	a0,s6,83003f00 <__ssvfscanf_r+0x1fc>
83004424:	00042783          	lw	a5,0(s0)
83004428:	001b0b93          	addi	s7,s6,1
8300442c:	0007c703          	lbu	a4,0(a5)
83004430:	150b0693          	addi	a3,s6,336
83004434:	00268b33          	add	s6,a3,sp
83004438:	eceb0a23          	sb	a4,-300(s6)
8300443c:	00442703          	lw	a4,4(s0)
83004440:	fff70713          	addi	a4,a4,-1
83004444:	00e42223          	sw	a4,4(s0)
83004448:	00178793          	addi	a5,a5,1
8300444c:	00f42023          	sw	a5,0(s0)
83004450:	00300793          	li	a5,3
83004454:	f6fa14e3          	bne	s4,a5,830043bc <__ssvfscanf_r+0x6b8>
83004458:	01412703          	lw	a4,20(sp)
8300445c:	00400793          	li	a5,4
83004460:	f4f71ee3          	bne	a4,a5,830043bc <__ssvfscanf_r+0x6b8>
83004464:	f6dff06f          	j	830043d0 <__ssvfscanf_r+0x6cc>
83004468:	000cab03          	lw	s6,0(s9)
8300446c:	fff00793          	li	a5,-1
83004470:	06fb0c63          	beq	s6,a5,830044e8 <__ssvfscanf_r+0x7e4>
83004474:	00800613          	li	a2,8
83004478:	00000593          	li	a1,0
8300447c:	01c10513          	addi	a0,sp,28
83004480:	ffffd097          	auipc	ra,0xffffd
83004484:	bbc080e7          	jalr	-1092(ra) # 8300103c <memset>
83004488:	01c10693          	addi	a3,sp,28
8300448c:	000b0613          	mv	a2,s6
83004490:	01010593          	addi	a1,sp,16
83004494:	000a8513          	mv	a0,s5
83004498:	0000b797          	auipc	a5,0xb
8300449c:	0f87a783          	lw	a5,248(a5) # 8300f590 <__global_locale+0xe0>
830044a0:	000780e7          	jalr	a5
830044a4:	00100793          	li	a5,1
830044a8:	02f50c63          	beq	a0,a5,830044e0 <__ssvfscanf_r+0x7dc>
830044ac:	00000793          	li	a5,0
830044b0:	15078793          	addi	a5,a5,336
830044b4:	002787b3          	add	a5,a5,sp
830044b8:	efc7c783          	lbu	a5,-260(a5)
830044bc:	04078a63          	beqz	a5,83004510 <__ssvfscanf_r+0x80c>
830044c0:	017484b3          	add	s1,s1,s7
830044c4:	00300793          	li	a5,3
830044c8:	04fa0e63          	beq	s4,a5,83004524 <__ssvfscanf_r+0x820>
830044cc:	fff90913          	addi	s2,s2,-1
830044d0:	060d9263          	bnez	s11,83004534 <__ssvfscanf_r+0x830>
830044d4:	004c8c93          	addi	s9,s9,4
830044d8:	000d8b93          	mv	s7,s11
830044dc:	f2dff06f          	j	83004408 <__ssvfscanf_r+0x704>
830044e0:	01014783          	lbu	a5,16(sp)
830044e4:	fcdff06f          	j	830044b0 <__ssvfscanf_r+0x7ac>
830044e8:	fff00793          	li	a5,-1
830044ec:	fc5ff06f          	j	830044b0 <__ssvfscanf_r+0x7ac>
830044f0:	fffb8b93          	addi	s7,s7,-1
830044f4:	150b8793          	addi	a5,s7,336
830044f8:	002787b3          	add	a5,a5,sp
830044fc:	00040613          	mv	a2,s0
83004500:	ed47c583          	lbu	a1,-300(a5)
83004504:	000a8513          	mv	a0,s5
83004508:	00004097          	auipc	ra,0x4
8300450c:	5b4080e7          	jalr	1460(ra) # 83008abc <_sungetc_r>
83004510:	fe0b90e3          	bnez	s7,830044f0 <__ssvfscanf_r+0x7ec>
83004514:	920d98e3          	bnez	s11,83003e44 <__ssvfscanf_r+0x140>
83004518:	000ca023          	sw	zero,0(s9)
8300451c:	001d0d13          	addi	s10,s10,1
83004520:	925ff06f          	j	83003e44 <__ssvfscanf_r+0x140>
83004524:	01412703          	lw	a4,20(sp)
83004528:	00400793          	li	a5,4
8300452c:	faf710e3          	bne	a4,a5,830044cc <__ssvfscanf_r+0x7c8>
83004530:	fa1ff06f          	j	830044d0 <__ssvfscanf_r+0x7cc>
83004534:	00000b93          	li	s7,0
83004538:	ed1ff06f          	j	83004408 <__ssvfscanf_r+0x704>
8300453c:	00040593          	mv	a1,s0
83004540:	000a8513          	mv	a0,s5
83004544:	00004097          	auipc	ra,0x4
83004548:	680080e7          	jalr	1664(ra) # 83008bc4 <__ssrefill_r>
8300454c:	ec0502e3          	beqz	a0,83004410 <__ssvfscanf_r+0x70c>
83004550:	fc0b82e3          	beqz	s7,83004514 <__ssvfscanf_r+0x810>
83004554:	9adff06f          	j	83003f00 <__ssvfscanf_r+0x1fc>
83004558:	14c10c93          	addi	s9,sp,332
8300455c:	00000b13          	li	s6,0
83004560:	eb5ff06f          	j	83004414 <__ssvfscanf_r+0x710>
83004564:	00042783          	lw	a5,0(s0)
83004568:	0007c703          	lbu	a4,0(a5)
8300456c:	15070713          	addi	a4,a4,336
83004570:	00270733          	add	a4,a4,sp
83004574:	efc74703          	lbu	a4,-260(a4)
83004578:	04070063          	beqz	a4,830045b8 <__ssvfscanf_r+0x8b4>
8300457c:	001c8c93          	addi	s9,s9,1
83004580:	00442703          	lw	a4,4(s0)
83004584:	fff70713          	addi	a4,a4,-1
83004588:	00e42223          	sw	a4,4(s0)
8300458c:	00178793          	addi	a5,a5,1
83004590:	00f42023          	sw	a5,0(s0)
83004594:	fff90913          	addi	s2,s2,-1
83004598:	02090063          	beqz	s2,830045b8 <__ssvfscanf_r+0x8b4>
8300459c:	fce044e3          	bgtz	a4,83004564 <__ssvfscanf_r+0x860>
830045a0:	00040593          	mv	a1,s0
830045a4:	000a8513          	mv	a0,s5
830045a8:	00004097          	auipc	ra,0x4
830045ac:	61c080e7          	jalr	1564(ra) # 83008bc4 <__ssrefill_r>
830045b0:	fa050ae3          	beqz	a0,83004564 <__ssvfscanf_r+0x860>
830045b4:	940c86e3          	beqz	s9,83003f00 <__ssvfscanf_r+0x1fc>
830045b8:	940c8ce3          	beqz	s9,83003f10 <__ssvfscanf_r+0x20c>
830045bc:	019484b3          	add	s1,s1,s9
830045c0:	885ff06f          	j	83003e44 <__ssvfscanf_r+0x140>
830045c4:	000b8693          	mv	a3,s7
830045c8:	00042703          	lw	a4,0(s0)
830045cc:	00074783          	lbu	a5,0(a4)
830045d0:	15078793          	addi	a5,a5,336
830045d4:	002787b3          	add	a5,a5,sp
830045d8:	efc7c783          	lbu	a5,-260(a5)
830045dc:	04078863          	beqz	a5,8300462c <__ssvfscanf_r+0x928>
830045e0:	00442783          	lw	a5,4(s0)
830045e4:	fff78793          	addi	a5,a5,-1
830045e8:	00f42223          	sw	a5,4(s0)
830045ec:	00170793          	addi	a5,a4,1
830045f0:	00f42023          	sw	a5,0(s0)
830045f4:	00168b93          	addi	s7,a3,1
830045f8:	00074783          	lbu	a5,0(a4)
830045fc:	00f68023          	sb	a5,0(a3)
83004600:	fff90913          	addi	s2,s2,-1
83004604:	02090663          	beqz	s2,83004630 <__ssvfscanf_r+0x92c>
83004608:	00442783          	lw	a5,4(s0)
8300460c:	faf04ce3          	bgtz	a5,830045c4 <__ssvfscanf_r+0x8c0>
83004610:	00040593          	mv	a1,s0
83004614:	000a8513          	mv	a0,s5
83004618:	00004097          	auipc	ra,0x4
8300461c:	5ac080e7          	jalr	1452(ra) # 83008bc4 <__ssrefill_r>
83004620:	fa0502e3          	beqz	a0,830045c4 <__ssvfscanf_r+0x8c0>
83004624:	017b1663          	bne	s6,s7,83004630 <__ssvfscanf_r+0x92c>
83004628:	8d9ff06f          	j	83003f00 <__ssvfscanf_r+0x1fc>
8300462c:	00068b93          	mv	s7,a3
83004630:	416b87b3          	sub	a5,s7,s6
83004634:	8d6b8ee3          	beq	s7,s6,83003f10 <__ssvfscanf_r+0x20c>
83004638:	000b8023          	sb	zero,0(s7)
8300463c:	001d0d13          	addi	s10,s10,1
83004640:	00f484b3          	add	s1,s1,a5
83004644:	801ff06f          	j	83003e44 <__ssvfscanf_r+0x140>
83004648:	00091463          	bnez	s2,83004650 <__ssvfscanf_r+0x94c>
8300464c:	fff00913          	li	s2,-1
83004650:	001bfc93          	andi	s9,s7,1
83004654:	020c9263          	bnez	s9,83004678 <__ssvfscanf_r+0x974>
83004658:	010bfb13          	andi	s6,s7,16
8300465c:	1a0b1463          	bnez	s6,83004804 <__ssvfscanf_r+0xb00>
83004660:	00c12783          	lw	a5,12(sp)
83004664:	00478713          	addi	a4,a5,4
83004668:	00e12623          	sw	a4,12(sp)
8300466c:	0007ab03          	lw	s6,0(a5)
83004670:	000b0693          	mv	a3,s6
83004674:	1f40006f          	j	83004868 <__ssvfscanf_r+0xb64>
83004678:	010bfb13          	andi	s6,s7,16
8300467c:	180b1063          	bnez	s6,830047fc <__ssvfscanf_r+0xaf8>
83004680:	00c12783          	lw	a5,12(sp)
83004684:	00478713          	addi	a4,a5,4
83004688:	00e12623          	sw	a4,12(sp)
8300468c:	0007ac83          	lw	s9,0(a5)
83004690:	00000d93          	li	s11,0
83004694:	00042783          	lw	a5,0(s0)
83004698:	0007c783          	lbu	a5,0(a5)
8300469c:	00009717          	auipc	a4,0x9
830046a0:	56170713          	addi	a4,a4,1377 # 8300dbfd <_ctype_+0x1>
830046a4:	00e787b3          	add	a5,a5,a4
830046a8:	0007c783          	lbu	a5,0(a5)
830046ac:	0087f793          	andi	a5,a5,8
830046b0:	00079463          	bnez	a5,830046b8 <__ssvfscanf_r+0x9b4>
830046b4:	00091a63          	bnez	s2,830046c8 <__ssvfscanf_r+0x9c4>
830046b8:	f80b1663          	bnez	s6,83003e44 <__ssvfscanf_r+0x140>
830046bc:	000ca023          	sw	zero,0(s9)
830046c0:	001d0d13          	addi	s10,s10,1
830046c4:	f80ff06f          	j	83003e44 <__ssvfscanf_r+0x140>
830046c8:	00002097          	auipc	ra,0x2
830046cc:	294080e7          	jalr	660(ra) # 8300695c <__locale_mb_cur_max>
830046d0:	83b508e3          	beq	a0,s11,83003f00 <__ssvfscanf_r+0x1fc>
830046d4:	00042783          	lw	a5,0(s0)
830046d8:	001d8b93          	addi	s7,s11,1
830046dc:	0007c683          	lbu	a3,0(a5)
830046e0:	150d8713          	addi	a4,s11,336
830046e4:	00270733          	add	a4,a4,sp
830046e8:	ecd70a23          	sb	a3,-300(a4)
830046ec:	00442703          	lw	a4,4(s0)
830046f0:	fff70713          	addi	a4,a4,-1
830046f4:	00e42223          	sw	a4,4(s0)
830046f8:	00178793          	addi	a5,a5,1
830046fc:	00f42023          	sw	a5,0(s0)
83004700:	00300793          	li	a5,3
83004704:	00fa1863          	bne	s4,a5,83004714 <__ssvfscanf_r+0xa10>
83004708:	01c12703          	lw	a4,28(sp)
8300470c:	00400793          	li	a5,4
83004710:	00f70c63          	beq	a4,a5,83004728 <__ssvfscanf_r+0xa24>
83004714:	00800613          	li	a2,8
83004718:	00000593          	li	a1,0
8300471c:	01c10513          	addi	a0,sp,28
83004720:	ffffd097          	auipc	ra,0xffffd
83004724:	91c080e7          	jalr	-1764(ra) # 8300103c <memset>
83004728:	01c10713          	addi	a4,sp,28
8300472c:	000b8693          	mv	a3,s7
83004730:	02410613          	addi	a2,sp,36
83004734:	000c8593          	mv	a1,s9
83004738:	000a8513          	mv	a0,s5
8300473c:	00003097          	auipc	ra,0x3
83004740:	bd8080e7          	jalr	-1064(ra) # 83007314 <_mbrtowc_r>
83004744:	00050a13          	mv	s4,a0
83004748:	fff00793          	li	a5,-1
8300474c:	faf50a63          	beq	a0,a5,83003f00 <__ssvfscanf_r+0x1fc>
83004750:	00051463          	bnez	a0,83004758 <__ssvfscanf_r+0xa54>
83004754:	000ca023          	sw	zero,0(s9)
83004758:	ffe00793          	li	a5,-2
8300475c:	00fa1a63          	bne	s4,a5,83004770 <__ssvfscanf_r+0xa6c>
83004760:	00442783          	lw	a5,4(s0)
83004764:	06f05e63          	blez	a5,830047e0 <__ssvfscanf_r+0xadc>
83004768:	000b8d93          	mv	s11,s7
8300476c:	f29ff06f          	j	83004694 <__ssvfscanf_r+0x990>
83004770:	000ca503          	lw	a0,0(s9)
83004774:	00004097          	auipc	ra,0x4
83004778:	c50080e7          	jalr	-944(ra) # 830083c4 <iswspace>
8300477c:	04051263          	bnez	a0,830047c0 <__ssvfscanf_r+0xabc>
83004780:	017484b3          	add	s1,s1,s7
83004784:	00300793          	li	a5,3
83004788:	04fa0063          	beq	s4,a5,830047c8 <__ssvfscanf_r+0xac4>
8300478c:	fff90913          	addi	s2,s2,-1
83004790:	040b1463          	bnez	s6,830047d8 <__ssvfscanf_r+0xad4>
83004794:	004c8c93          	addi	s9,s9,4
83004798:	000b0b93          	mv	s7,s6
8300479c:	fc5ff06f          	j	83004760 <__ssvfscanf_r+0xa5c>
830047a0:	fffb8b93          	addi	s7,s7,-1
830047a4:	150b8793          	addi	a5,s7,336
830047a8:	002787b3          	add	a5,a5,sp
830047ac:	00040613          	mv	a2,s0
830047b0:	ed47c583          	lbu	a1,-300(a5)
830047b4:	000a8513          	mv	a0,s5
830047b8:	00004097          	auipc	ra,0x4
830047bc:	304080e7          	jalr	772(ra) # 83008abc <_sungetc_r>
830047c0:	fe0b90e3          	bnez	s7,830047a0 <__ssvfscanf_r+0xa9c>
830047c4:	ef5ff06f          	j	830046b8 <__ssvfscanf_r+0x9b4>
830047c8:	01c12703          	lw	a4,28(sp)
830047cc:	00400793          	li	a5,4
830047d0:	faf71ee3          	bne	a4,a5,8300478c <__ssvfscanf_r+0xa88>
830047d4:	fbdff06f          	j	83004790 <__ssvfscanf_r+0xa8c>
830047d8:	00050b93          	mv	s7,a0
830047dc:	f85ff06f          	j	83004760 <__ssvfscanf_r+0xa5c>
830047e0:	00040593          	mv	a1,s0
830047e4:	000a8513          	mv	a0,s5
830047e8:	00004097          	auipc	ra,0x4
830047ec:	3dc080e7          	jalr	988(ra) # 83008bc4 <__ssrefill_r>
830047f0:	f6050ce3          	beqz	a0,83004768 <__ssvfscanf_r+0xa64>
830047f4:	f00b9663          	bnez	s7,83003f00 <__ssvfscanf_r+0x1fc>
830047f8:	ec1ff06f          	j	830046b8 <__ssvfscanf_r+0x9b4>
830047fc:	14c10c93          	addi	s9,sp,332
83004800:	e91ff06f          	j	83004690 <__ssvfscanf_r+0x98c>
83004804:	00042783          	lw	a5,0(s0)
83004808:	0007c703          	lbu	a4,0(a5)
8300480c:	00009697          	auipc	a3,0x9
83004810:	3f168693          	addi	a3,a3,1009 # 8300dbfd <_ctype_+0x1>
83004814:	00d70733          	add	a4,a4,a3
83004818:	00074703          	lbu	a4,0(a4)
8300481c:	00877713          	andi	a4,a4,8
83004820:	02071e63          	bnez	a4,8300485c <__ssvfscanf_r+0xb58>
83004824:	001c8c93          	addi	s9,s9,1
83004828:	00442703          	lw	a4,4(s0)
8300482c:	fff70713          	addi	a4,a4,-1
83004830:	00e42223          	sw	a4,4(s0)
83004834:	00178793          	addi	a5,a5,1
83004838:	00f42023          	sw	a5,0(s0)
8300483c:	fff90913          	addi	s2,s2,-1
83004840:	00090e63          	beqz	s2,8300485c <__ssvfscanf_r+0xb58>
83004844:	fce040e3          	bgtz	a4,83004804 <__ssvfscanf_r+0xb00>
83004848:	00040593          	mv	a1,s0
8300484c:	000a8513          	mv	a0,s5
83004850:	00004097          	auipc	ra,0x4
83004854:	374080e7          	jalr	884(ra) # 83008bc4 <__ssrefill_r>
83004858:	fa0506e3          	beqz	a0,83004804 <__ssvfscanf_r+0xb00>
8300485c:	019484b3          	add	s1,s1,s9
83004860:	de4ff06f          	j	83003e44 <__ssvfscanf_r+0x140>
83004864:	000b8693          	mv	a3,s7
83004868:	00042703          	lw	a4,0(s0)
8300486c:	00074783          	lbu	a5,0(a4)
83004870:	00009617          	auipc	a2,0x9
83004874:	38d60613          	addi	a2,a2,909 # 8300dbfd <_ctype_+0x1>
83004878:	00c787b3          	add	a5,a5,a2
8300487c:	0007c783          	lbu	a5,0(a5)
83004880:	0087f793          	andi	a5,a5,8
83004884:	04079663          	bnez	a5,830048d0 <__ssvfscanf_r+0xbcc>
83004888:	00442783          	lw	a5,4(s0)
8300488c:	fff78793          	addi	a5,a5,-1
83004890:	00f42223          	sw	a5,4(s0)
83004894:	00170793          	addi	a5,a4,1
83004898:	00f42023          	sw	a5,0(s0)
8300489c:	00168b93          	addi	s7,a3,1
830048a0:	00074783          	lbu	a5,0(a4)
830048a4:	00f68023          	sb	a5,0(a3)
830048a8:	fff90913          	addi	s2,s2,-1
830048ac:	02090463          	beqz	s2,830048d4 <__ssvfscanf_r+0xbd0>
830048b0:	00442783          	lw	a5,4(s0)
830048b4:	faf048e3          	bgtz	a5,83004864 <__ssvfscanf_r+0xb60>
830048b8:	00040593          	mv	a1,s0
830048bc:	000a8513          	mv	a0,s5
830048c0:	00004097          	auipc	ra,0x4
830048c4:	304080e7          	jalr	772(ra) # 83008bc4 <__ssrefill_r>
830048c8:	f8050ee3          	beqz	a0,83004864 <__ssvfscanf_r+0xb60>
830048cc:	0080006f          	j	830048d4 <__ssvfscanf_r+0xbd0>
830048d0:	00068b93          	mv	s7,a3
830048d4:	000b8023          	sb	zero,0(s7)
830048d8:	416b8bb3          	sub	s7,s7,s6
830048dc:	017484b3          	add	s1,s1,s7
830048e0:	001d0d13          	addi	s10,s10,1
830048e4:	d60ff06f          	j	83003e44 <__ssvfscanf_r+0x140>
830048e8:	00000d93          	li	s11,0
830048ec:	000017b7          	lui	a5,0x1
830048f0:	d8078793          	addi	a5,a5,-640 # d80 <_ZL9set_i_maxv-0x82fff334>
830048f4:	00fbeb33          	or	s6,s7,a5
830048f8:	00000c93          	li	s9,0
830048fc:	02410b93          	addi	s7,sp,36
83004900:	0900006f          	j	83004990 <__ssvfscanf_r+0xc8c>
83004904:	000017b7          	lui	a5,0x1
83004908:	80078793          	addi	a5,a5,-2048 # 800 <_ZL9set_i_maxv-0x82fff8b4>
8300490c:	00fb77b3          	and	a5,s6,a5
83004910:	04078c63          	beqz	a5,83004968 <__ssvfscanf_r+0xc64>
83004914:	000c1663          	bnez	s8,83004920 <__ssvfscanf_r+0xc1c>
83004918:	200b6b13          	ori	s6,s6,512
8300491c:	00800c13          	li	s8,8
83004920:	400b7793          	andi	a5,s6,1024
83004924:	00078663          	beqz	a5,83004930 <__ssvfscanf_r+0xc2c>
83004928:	a7fb7b13          	andi	s6,s6,-1409
8300492c:	03c0006f          	j	83004968 <__ssvfscanf_r+0xc64>
83004930:	c7fb7b13          	andi	s6,s6,-897
83004934:	000d8663          	beqz	s11,83004940 <__ssvfscanf_r+0xc3c>
83004938:	fffd8d93          	addi	s11,s11,-1
8300493c:	00190913          	addi	s2,s2,1
83004940:	001c8c93          	addi	s9,s9,1
83004944:	02c0006f          	j	83004970 <__ssvfscanf_r+0xc6c>
83004948:	001c1c13          	slli	s8,s8,0x1
8300494c:	00009797          	auipc	a5,0x9
83004950:	ec878793          	addi	a5,a5,-312 # 8300d814 <basefix.0>
83004954:	018787b3          	add	a5,a5,s8
83004958:	00079c03          	lh	s8,0(a5)
8300495c:	fffff7b7          	lui	a5,0xfffff
83004960:	47f78793          	addi	a5,a5,1151 # fffff47f <__BSS_END__+0x7cfef977>
83004964:	00fb7b33          	and	s6,s6,a5
83004968:	00eb8023          	sb	a4,0(s7)
8300496c:	001b8b93          	addi	s7,s7,1
83004970:	00442783          	lw	a5,4(s0)
83004974:	fff78793          	addi	a5,a5,-1
83004978:	00f42223          	sw	a5,4(s0)
8300497c:	0af05e63          	blez	a5,83004a38 <__ssvfscanf_r+0xd34>
83004980:	00042783          	lw	a5,0(s0)
83004984:	00178793          	addi	a5,a5,1
83004988:	00f42023          	sw	a5,0(s0)
8300498c:	fff90913          	addi	s2,s2,-1
83004990:	0a090e63          	beqz	s2,83004a4c <__ssvfscanf_r+0xd48>
83004994:	00042783          	lw	a5,0(s0)
83004998:	0007c703          	lbu	a4,0(a5)
8300499c:	fd570793          	addi	a5,a4,-43
830049a0:	0ff7f613          	zext.b	a2,a5
830049a4:	04d00693          	li	a3,77
830049a8:	0ac6e263          	bltu	a3,a2,83004a4c <__ssvfscanf_r+0xd48>
830049ac:	00261793          	slli	a5,a2,0x2
830049b0:	00009697          	auipc	a3,0x9
830049b4:	d2c68693          	addi	a3,a3,-724 # 8300d6dc <zeroes.0+0x160>
830049b8:	00d787b3          	add	a5,a5,a3
830049bc:	0007a783          	lw	a5,0(a5)
830049c0:	00d787b3          	add	a5,a5,a3
830049c4:	00078067          	jr	a5
830049c8:	001c1c13          	slli	s8,s8,0x1
830049cc:	00009797          	auipc	a5,0x9
830049d0:	e4878793          	addi	a5,a5,-440 # 8300d814 <basefix.0>
830049d4:	018787b3          	add	a5,a5,s8
830049d8:	00079c03          	lh	s8,0(a5)
830049dc:	00800793          	li	a5,8
830049e0:	0787d663          	bge	a5,s8,83004a4c <__ssvfscanf_r+0xd48>
830049e4:	fffff7b7          	lui	a5,0xfffff
830049e8:	47f78793          	addi	a5,a5,1151 # fffff47f <__BSS_END__+0x7cfef977>
830049ec:	00fb7b33          	and	s6,s6,a5
830049f0:	f79ff06f          	j	83004968 <__ssvfscanf_r+0xc64>
830049f4:	00a00793          	li	a5,10
830049f8:	0587da63          	bge	a5,s8,83004a4c <__ssvfscanf_r+0xd48>
830049fc:	fffff7b7          	lui	a5,0xfffff
83004a00:	47f78793          	addi	a5,a5,1151 # fffff47f <__BSS_END__+0x7cfef977>
83004a04:	00fb7b33          	and	s6,s6,a5
83004a08:	f61ff06f          	j	83004968 <__ssvfscanf_r+0xc64>
83004a0c:	080b7793          	andi	a5,s6,128
83004a10:	02078e63          	beqz	a5,83004a4c <__ssvfscanf_r+0xd48>
83004a14:	f7fb7b13          	andi	s6,s6,-129
83004a18:	f51ff06f          	j	83004968 <__ssvfscanf_r+0xc64>
83004a1c:	600b7793          	andi	a5,s6,1536
83004a20:	20000693          	li	a3,512
83004a24:	02d79463          	bne	a5,a3,83004a4c <__ssvfscanf_r+0xd48>
83004a28:	dffb7b13          	andi	s6,s6,-513
83004a2c:	500b6b13          	ori	s6,s6,1280
83004a30:	01000c13          	li	s8,16
83004a34:	f35ff06f          	j	83004968 <__ssvfscanf_r+0xc64>
83004a38:	00040593          	mv	a1,s0
83004a3c:	000a8513          	mv	a0,s5
83004a40:	00004097          	auipc	ra,0x4
83004a44:	184080e7          	jalr	388(ra) # 83008bc4 <__ssrefill_r>
83004a48:	f40502e3          	beqz	a0,8300498c <__ssvfscanf_r+0xc88>
83004a4c:	100b7793          	andi	a5,s6,256
83004a50:	00078a63          	beqz	a5,83004a64 <__ssvfscanf_r+0xd60>
83004a54:	02410793          	addi	a5,sp,36
83004a58:	0777e263          	bltu	a5,s7,83004abc <__ssvfscanf_r+0xdb8>
83004a5c:	02410793          	addi	a5,sp,36
83004a60:	cafb8863          	beq	s7,a5,83003f10 <__ssvfscanf_r+0x20c>
83004a64:	010b7793          	andi	a5,s6,16
83004a68:	04079063          	bnez	a5,83004aa8 <__ssvfscanf_r+0xda4>
83004a6c:	000b8023          	sb	zero,0(s7)
83004a70:	000c0693          	mv	a3,s8
83004a74:	00000613          	li	a2,0
83004a78:	02410593          	addi	a1,sp,36
83004a7c:	000a8513          	mv	a0,s5
83004a80:	00412783          	lw	a5,4(sp)
83004a84:	000780e7          	jalr	a5
83004a88:	020b7793          	andi	a5,s6,32
83004a8c:	04078863          	beqz	a5,83004adc <__ssvfscanf_r+0xdd8>
83004a90:	00c12783          	lw	a5,12(sp)
83004a94:	00478713          	addi	a4,a5,4
83004a98:	00e12623          	sw	a4,12(sp)
83004a9c:	0007a783          	lw	a5,0(a5)
83004aa0:	00a7a023          	sw	a0,0(a5)
83004aa4:	001d0d13          	addi	s10,s10,1
83004aa8:	02410793          	addi	a5,sp,36
83004aac:	40fb8bb3          	sub	s7,s7,a5
83004ab0:	019b8bb3          	add	s7,s7,s9
83004ab4:	017484b3          	add	s1,s1,s7
83004ab8:	b8cff06f          	j	83003e44 <__ssvfscanf_r+0x140>
83004abc:	fffb8913          	addi	s2,s7,-1
83004ac0:	00040613          	mv	a2,s0
83004ac4:	fffbc583          	lbu	a1,-1(s7)
83004ac8:	000a8513          	mv	a0,s5
83004acc:	00004097          	auipc	ra,0x4
83004ad0:	ff0080e7          	jalr	-16(ra) # 83008abc <_sungetc_r>
83004ad4:	00090b93          	mv	s7,s2
83004ad8:	f85ff06f          	j	83004a5c <__ssvfscanf_r+0xd58>
83004adc:	004b7793          	andi	a5,s6,4
83004ae0:	00078e63          	beqz	a5,83004afc <__ssvfscanf_r+0xdf8>
83004ae4:	00c12783          	lw	a5,12(sp)
83004ae8:	00478713          	addi	a4,a5,4
83004aec:	00e12623          	sw	a4,12(sp)
83004af0:	0007a783          	lw	a5,0(a5)
83004af4:	00a79023          	sh	a0,0(a5)
83004af8:	fadff06f          	j	83004aa4 <__ssvfscanf_r+0xda0>
83004afc:	001b7b13          	andi	s6,s6,1
83004b00:	000b0e63          	beqz	s6,83004b1c <__ssvfscanf_r+0xe18>
83004b04:	00c12783          	lw	a5,12(sp)
83004b08:	00478713          	addi	a4,a5,4
83004b0c:	00e12623          	sw	a4,12(sp)
83004b10:	0007a783          	lw	a5,0(a5)
83004b14:	00a7a023          	sw	a0,0(a5)
83004b18:	f8dff06f          	j	83004aa4 <__ssvfscanf_r+0xda0>
83004b1c:	00c12783          	lw	a5,12(sp)
83004b20:	00478713          	addi	a4,a5,4
83004b24:	00e12623          	sw	a4,12(sp)
83004b28:	0007a783          	lw	a5,0(a5)
83004b2c:	00a7a023          	sw	a0,0(a5)
83004b30:	f75ff06f          	j	83004aa4 <__ssvfscanf_r+0xda0>
83004b34:	fff00d13          	li	s10,-1
83004b38:	bd8ff06f          	j	83003f10 <__ssvfscanf_r+0x20c>
83004b3c:	fff00d13          	li	s10,-1
83004b40:	bd0ff06f          	j	83003f10 <__ssvfscanf_r+0x20c>

83004b44 <__sfputs_r>:
83004b44:	fe010113          	addi	sp,sp,-32
83004b48:	00112e23          	sw	ra,28(sp)
83004b4c:	00812c23          	sw	s0,24(sp)
83004b50:	00912a23          	sw	s1,20(sp)
83004b54:	01212823          	sw	s2,16(sp)
83004b58:	01312623          	sw	s3,12(sp)
83004b5c:	01412423          	sw	s4,8(sp)
83004b60:	00050a13          	mv	s4,a0
83004b64:	00058993          	mv	s3,a1
83004b68:	00060913          	mv	s2,a2
83004b6c:	00068493          	mv	s1,a3
83004b70:	00000413          	li	s0,0
83004b74:	0080006f          	j	83004b7c <__sfputs_r+0x38>
83004b78:	00140413          	addi	s0,s0,1
83004b7c:	02947463          	bgeu	s0,s1,83004ba4 <__sfputs_r+0x60>
83004b80:	008907b3          	add	a5,s2,s0
83004b84:	00098613          	mv	a2,s3
83004b88:	0007c583          	lbu	a1,0(a5)
83004b8c:	000a0513          	mv	a0,s4
83004b90:	00004097          	auipc	ra,0x4
83004b94:	e5c080e7          	jalr	-420(ra) # 830089ec <_fputc_r>
83004b98:	fff00793          	li	a5,-1
83004b9c:	fcf51ee3          	bne	a0,a5,83004b78 <__sfputs_r+0x34>
83004ba0:	0080006f          	j	83004ba8 <__sfputs_r+0x64>
83004ba4:	00000513          	li	a0,0
83004ba8:	01c12083          	lw	ra,28(sp)
83004bac:	01812403          	lw	s0,24(sp)
83004bb0:	01412483          	lw	s1,20(sp)
83004bb4:	01012903          	lw	s2,16(sp)
83004bb8:	00c12983          	lw	s3,12(sp)
83004bbc:	00812a03          	lw	s4,8(sp)
83004bc0:	02010113          	addi	sp,sp,32
83004bc4:	00008067          	ret

83004bc8 <__sprint_r>:
83004bc8:	ff010113          	addi	sp,sp,-16
83004bcc:	00112623          	sw	ra,12(sp)
83004bd0:	00812423          	sw	s0,8(sp)
83004bd4:	00060413          	mv	s0,a2
83004bd8:	00862783          	lw	a5,8(a2)
83004bdc:	00079e63          	bnez	a5,83004bf8 <__sprint_r+0x30>
83004be0:	00062223          	sw	zero,4(a2)
83004be4:	00000513          	li	a0,0
83004be8:	00c12083          	lw	ra,12(sp)
83004bec:	00812403          	lw	s0,8(sp)
83004bf0:	01010113          	addi	sp,sp,16
83004bf4:	00008067          	ret
83004bf8:	00005097          	auipc	ra,0x5
83004bfc:	f90080e7          	jalr	-112(ra) # 83009b88 <__sfvwrite_r>
83004c00:	00042423          	sw	zero,8(s0)
83004c04:	00042223          	sw	zero,4(s0)
83004c08:	fe1ff06f          	j	83004be8 <__sprint_r+0x20>

83004c0c <_vfiprintf_r>:
83004c0c:	f8010113          	addi	sp,sp,-128
83004c10:	06112e23          	sw	ra,124(sp)
83004c14:	06812c23          	sw	s0,120(sp)
83004c18:	06912a23          	sw	s1,116(sp)
83004c1c:	07212823          	sw	s2,112(sp)
83004c20:	07312623          	sw	s3,108(sp)
83004c24:	07412423          	sw	s4,104(sp)
83004c28:	07512223          	sw	s5,100(sp)
83004c2c:	07612023          	sw	s6,96(sp)
83004c30:	05712e23          	sw	s7,92(sp)
83004c34:	05812c23          	sw	s8,88(sp)
83004c38:	05912a23          	sw	s9,84(sp)
83004c3c:	05a12823          	sw	s10,80(sp)
83004c40:	05b12623          	sw	s11,76(sp)
83004c44:	00050993          	mv	s3,a0
83004c48:	00058913          	mv	s2,a1
83004c4c:	00060a13          	mv	s4,a2
83004c50:	00d12623          	sw	a3,12(sp)
83004c54:	00050663          	beqz	a0,83004c60 <_vfiprintf_r+0x54>
83004c58:	03852783          	lw	a5,56(a0)
83004c5c:	02078c63          	beqz	a5,83004c94 <_vfiprintf_r+0x88>
83004c60:	00c95783          	lhu	a5,12(s2)
83004c64:	0087f793          	andi	a5,a5,8
83004c68:	00078663          	beqz	a5,83004c74 <_vfiprintf_r+0x68>
83004c6c:	01092783          	lw	a5,16(s2)
83004c70:	00079c63          	bnez	a5,83004c88 <_vfiprintf_r+0x7c>
83004c74:	00090593          	mv	a1,s2
83004c78:	00098513          	mv	a0,s3
83004c7c:	ffffe097          	auipc	ra,0xffffe
83004c80:	064080e7          	jalr	100(ra) # 83002ce0 <__swsetup_r>
83004c84:	08051ee3          	bnez	a0,83005520 <_vfiprintf_r+0x914>
83004c88:	00012423          	sw	zero,8(sp)
83004c8c:	00012223          	sw	zero,4(sp)
83004c90:	0210006f          	j	830054b0 <_vfiprintf_r+0x8a4>
83004c94:	ffffd097          	auipc	ra,0xffffd
83004c98:	904080e7          	jalr	-1788(ra) # 83001598 <__sinit>
83004c9c:	fc5ff06f          	j	83004c60 <_vfiprintf_r+0x54>
83004ca0:	00140413          	addi	s0,s0,1
83004ca4:	00044783          	lbu	a5,0(s0)
83004ca8:	00078663          	beqz	a5,83004cb4 <_vfiprintf_r+0xa8>
83004cac:	02500713          	li	a4,37
83004cb0:	fee798e3          	bne	a5,a4,83004ca0 <_vfiprintf_r+0x94>
83004cb4:	414404b3          	sub	s1,s0,s4
83004cb8:	05441863          	bne	s0,s4,83004d08 <_vfiprintf_r+0xfc>
83004cbc:	00044783          	lbu	a5,0(s0)
83004cc0:	70078a63          	beqz	a5,830053d4 <_vfiprintf_r+0x7c8>
83004cc4:	00140793          	addi	a5,s0,1
83004cc8:	02010fa3          	sb	zero,63(sp)
83004ccc:	fff00413          	li	s0,-1
83004cd0:	00000b13          	li	s6,0
83004cd4:	00000a93          	li	s5,0
83004cd8:	00178a13          	addi	s4,a5,1
83004cdc:	0007c703          	lbu	a4,0(a5)
83004ce0:	fe070793          	addi	a5,a4,-32
83004ce4:	05800693          	li	a3,88
83004ce8:	5ef6e263          	bltu	a3,a5,830052cc <_vfiprintf_r+0x6c0>
83004cec:	00279793          	slli	a5,a5,0x2
83004cf0:	00009697          	auipc	a3,0x9
83004cf4:	b4868693          	addi	a3,a3,-1208 # 8300d838 <basefix.0+0x24>
83004cf8:	00d787b3          	add	a5,a5,a3
83004cfc:	0007a783          	lw	a5,0(a5)
83004d00:	00d787b3          	add	a5,a5,a3
83004d04:	00078067          	jr	a5
83004d08:	00048693          	mv	a3,s1
83004d0c:	000a0613          	mv	a2,s4
83004d10:	00090593          	mv	a1,s2
83004d14:	00098513          	mv	a0,s3
83004d18:	00000097          	auipc	ra,0x0
83004d1c:	e2c080e7          	jalr	-468(ra) # 83004b44 <__sfputs_r>
83004d20:	fff00793          	li	a5,-1
83004d24:	6af50863          	beq	a0,a5,830053d4 <_vfiprintf_r+0x7c8>
83004d28:	00412783          	lw	a5,4(sp)
83004d2c:	009787b3          	add	a5,a5,s1
83004d30:	00f12223          	sw	a5,4(sp)
83004d34:	f89ff06f          	j	83004cbc <_vfiprintf_r+0xb0>
83004d38:	00008797          	auipc	a5,0x8
83004d3c:	51478793          	addi	a5,a5,1300 # 8300d24c <__func__.0+0x20>
83004d40:	00f12423          	sw	a5,8(sp)
83004d44:	3b00006f          	j	830050f4 <_vfiprintf_r+0x4e8>
83004d48:	03f14783          	lbu	a5,63(sp)
83004d4c:	02079a63          	bnez	a5,83004d80 <_vfiprintf_r+0x174>
83004d50:	02000793          	li	a5,32
83004d54:	02f10fa3          	sb	a5,63(sp)
83004d58:	0280006f          	j	83004d80 <_vfiprintf_r+0x174>
83004d5c:	001aea93          	ori	s5,s5,1
83004d60:	0200006f          	j	83004d80 <_vfiprintf_r+0x174>
83004d64:	00c12783          	lw	a5,12(sp)
83004d68:	00478713          	addi	a4,a5,4
83004d6c:	00e12623          	sw	a4,12(sp)
83004d70:	0007ab03          	lw	s6,0(a5)
83004d74:	000b5663          	bgez	s6,83004d80 <_vfiprintf_r+0x174>
83004d78:	41600b33          	neg	s6,s6
83004d7c:	004aea93          	ori	s5,s5,4
83004d80:	000a0793          	mv	a5,s4
83004d84:	f55ff06f          	j	83004cd8 <_vfiprintf_r+0xcc>
83004d88:	02b00793          	li	a5,43
83004d8c:	02f10fa3          	sb	a5,63(sp)
83004d90:	ff1ff06f          	j	83004d80 <_vfiprintf_r+0x174>
83004d94:	001a0693          	addi	a3,s4,1
83004d98:	000a4703          	lbu	a4,0(s4)
83004d9c:	02a00793          	li	a5,42
83004da0:	00f70663          	beq	a4,a5,83004dac <_vfiprintf_r+0x1a0>
83004da4:	00000413          	li	s0,0
83004da8:	0400006f          	j	83004de8 <_vfiprintf_r+0x1dc>
83004dac:	00c12783          	lw	a5,12(sp)
83004db0:	00478713          	addi	a4,a5,4
83004db4:	00e12623          	sw	a4,12(sp)
83004db8:	0007a403          	lw	s0,0(a5)
83004dbc:	00044663          	bltz	s0,83004dc8 <_vfiprintf_r+0x1bc>
83004dc0:	00068a13          	mv	s4,a3
83004dc4:	fbdff06f          	j	83004d80 <_vfiprintf_r+0x174>
83004dc8:	fff00413          	li	s0,-1
83004dcc:	ff5ff06f          	j	83004dc0 <_vfiprintf_r+0x1b4>
83004dd0:	00241793          	slli	a5,s0,0x2
83004dd4:	008787b3          	add	a5,a5,s0
83004dd8:	00179793          	slli	a5,a5,0x1
83004ddc:	00c78433          	add	s0,a5,a2
83004de0:	0006c703          	lbu	a4,0(a3)
83004de4:	00168693          	addi	a3,a3,1
83004de8:	fd070613          	addi	a2,a4,-48
83004dec:	00900793          	li	a5,9
83004df0:	fec7f0e3          	bgeu	a5,a2,83004dd0 <_vfiprintf_r+0x1c4>
83004df4:	00044663          	bltz	s0,83004e00 <_vfiprintf_r+0x1f4>
83004df8:	00068a13          	mv	s4,a3
83004dfc:	ee5ff06f          	j	83004ce0 <_vfiprintf_r+0xd4>
83004e00:	fff00413          	li	s0,-1
83004e04:	ff5ff06f          	j	83004df8 <_vfiprintf_r+0x1ec>
83004e08:	080aea93          	ori	s5,s5,128
83004e0c:	f75ff06f          	j	83004d80 <_vfiprintf_r+0x174>
83004e10:	00000b13          	li	s6,0
83004e14:	002b1793          	slli	a5,s6,0x2
83004e18:	016787b3          	add	a5,a5,s6
83004e1c:	00179793          	slli	a5,a5,0x1
83004e20:	fd070713          	addi	a4,a4,-48
83004e24:	00e78b33          	add	s6,a5,a4
83004e28:	000a4703          	lbu	a4,0(s4)
83004e2c:	001a0a13          	addi	s4,s4,1
83004e30:	fd070693          	addi	a3,a4,-48
83004e34:	00900793          	li	a5,9
83004e38:	fcd7fee3          	bgeu	a5,a3,83004e14 <_vfiprintf_r+0x208>
83004e3c:	ea5ff06f          	j	83004ce0 <_vfiprintf_r+0xd4>
83004e40:	040aea93          	ori	s5,s5,64
83004e44:	f3dff06f          	j	83004d80 <_vfiprintf_r+0x174>
83004e48:	010aea93          	ori	s5,s5,16
83004e4c:	f35ff06f          	j	83004d80 <_vfiprintf_r+0x174>
83004e50:	010aea93          	ori	s5,s5,16
83004e54:	f2dff06f          	j	83004d80 <_vfiprintf_r+0x174>
83004e58:	00c12783          	lw	a5,12(sp)
83004e5c:	00478713          	addi	a4,a5,4
83004e60:	00e12623          	sw	a4,12(sp)
83004e64:	0007a783          	lw	a5,0(a5)
83004e68:	00f10a23          	sb	a5,20(sp)
83004e6c:	02010fa3          	sb	zero,63(sp)
83004e70:	00100b93          	li	s7,1
83004e74:	00000413          	li	s0,0
83004e78:	01410493          	addi	s1,sp,20
83004e7c:	3a00006f          	j	8300521c <_vfiprintf_r+0x610>
83004e80:	010aea93          	ori	s5,s5,16
83004e84:	010af793          	andi	a5,s5,16
83004e88:	02078063          	beqz	a5,83004ea8 <_vfiprintf_r+0x29c>
83004e8c:	00c12783          	lw	a5,12(sp)
83004e90:	00478713          	addi	a4,a5,4
83004e94:	00e12623          	sw	a4,12(sp)
83004e98:	0007a783          	lw	a5,0(a5)
83004e9c:	0207ce63          	bltz	a5,83004ed8 <_vfiprintf_r+0x2cc>
83004ea0:	00100713          	li	a4,1
83004ea4:	0cc0006f          	j	83004f70 <_vfiprintf_r+0x364>
83004ea8:	040af793          	andi	a5,s5,64
83004eac:	00078c63          	beqz	a5,83004ec4 <_vfiprintf_r+0x2b8>
83004eb0:	00c12783          	lw	a5,12(sp)
83004eb4:	00478713          	addi	a4,a5,4
83004eb8:	00e12623          	sw	a4,12(sp)
83004ebc:	00079783          	lh	a5,0(a5)
83004ec0:	fddff06f          	j	83004e9c <_vfiprintf_r+0x290>
83004ec4:	00c12783          	lw	a5,12(sp)
83004ec8:	00478713          	addi	a4,a5,4
83004ecc:	00e12623          	sw	a4,12(sp)
83004ed0:	0007a783          	lw	a5,0(a5)
83004ed4:	fc9ff06f          	j	83004e9c <_vfiprintf_r+0x290>
83004ed8:	40f007b3          	neg	a5,a5
83004edc:	02d00713          	li	a4,45
83004ee0:	02e10fa3          	sb	a4,63(sp)
83004ee4:	fbdff06f          	j	83004ea0 <_vfiprintf_r+0x294>
83004ee8:	010af793          	andi	a5,s5,16
83004eec:	02078063          	beqz	a5,83004f0c <_vfiprintf_r+0x300>
83004ef0:	00c12783          	lw	a5,12(sp)
83004ef4:	00478713          	addi	a4,a5,4
83004ef8:	00e12623          	sw	a4,12(sp)
83004efc:	0007a783          	lw	a5,0(a5)
83004f00:	00412703          	lw	a4,4(sp)
83004f04:	00e7a023          	sw	a4,0(a5)
83004f08:	5a80006f          	j	830054b0 <_vfiprintf_r+0x8a4>
83004f0c:	040afa93          	andi	s5,s5,64
83004f10:	020a8063          	beqz	s5,83004f30 <_vfiprintf_r+0x324>
83004f14:	00c12783          	lw	a5,12(sp)
83004f18:	00478713          	addi	a4,a5,4
83004f1c:	00e12623          	sw	a4,12(sp)
83004f20:	0007a783          	lw	a5,0(a5)
83004f24:	00412703          	lw	a4,4(sp)
83004f28:	00e79023          	sh	a4,0(a5)
83004f2c:	5840006f          	j	830054b0 <_vfiprintf_r+0x8a4>
83004f30:	00c12783          	lw	a5,12(sp)
83004f34:	00478713          	addi	a4,a5,4
83004f38:	00e12623          	sw	a4,12(sp)
83004f3c:	0007a783          	lw	a5,0(a5)
83004f40:	00412703          	lw	a4,4(sp)
83004f44:	00e7a023          	sw	a4,0(a5)
83004f48:	5680006f          	j	830054b0 <_vfiprintf_r+0x8a4>
83004f4c:	010aea93          	ori	s5,s5,16
83004f50:	010af793          	andi	a5,s5,16
83004f54:	06078063          	beqz	a5,83004fb4 <_vfiprintf_r+0x3a8>
83004f58:	00c12783          	lw	a5,12(sp)
83004f5c:	00478713          	addi	a4,a5,4
83004f60:	00e12623          	sw	a4,12(sp)
83004f64:	0007a783          	lw	a5,0(a5)
83004f68:	00000713          	li	a4,0
83004f6c:	02010fa3          	sb	zero,63(sp)
83004f70:	00044463          	bltz	s0,83004f78 <_vfiprintf_r+0x36c>
83004f74:	f7fafa93          	andi	s5,s5,-129
83004f78:	00079463          	bnez	a5,83004f80 <_vfiprintf_r+0x374>
83004f7c:	32040263          	beqz	s0,830052a0 <_vfiprintf_r+0x694>
83004f80:	00100693          	li	a3,1
83004f84:	22d70463          	beq	a4,a3,830051ac <_vfiprintf_r+0x5a0>
83004f88:	00200693          	li	a3,2
83004f8c:	26d70263          	beq	a4,a3,830051f0 <_vfiprintf_r+0x5e4>
83004f90:	1e070063          	beqz	a4,83005170 <_vfiprintf_r+0x564>
83004f94:	00008517          	auipc	a0,0x8
83004f98:	2d450513          	addi	a0,a0,724 # 8300d268 <__func__.0+0x3c>
83004f9c:	00003097          	auipc	ra,0x3
83004fa0:	520080e7          	jalr	1312(ra) # 830084bc <strlen>
83004fa4:	00050b93          	mv	s7,a0
83004fa8:	00008497          	auipc	s1,0x8
83004fac:	2c048493          	addi	s1,s1,704 # 8300d268 <__func__.0+0x3c>
83004fb0:	26c0006f          	j	8300521c <_vfiprintf_r+0x610>
83004fb4:	040af793          	andi	a5,s5,64
83004fb8:	00078c63          	beqz	a5,83004fd0 <_vfiprintf_r+0x3c4>
83004fbc:	00c12783          	lw	a5,12(sp)
83004fc0:	00478713          	addi	a4,a5,4
83004fc4:	00e12623          	sw	a4,12(sp)
83004fc8:	0007d783          	lhu	a5,0(a5)
83004fcc:	f9dff06f          	j	83004f68 <_vfiprintf_r+0x35c>
83004fd0:	00c12783          	lw	a5,12(sp)
83004fd4:	00478713          	addi	a4,a5,4
83004fd8:	00e12623          	sw	a4,12(sp)
83004fdc:	0007a783          	lw	a5,0(a5)
83004fe0:	f89ff06f          	j	83004f68 <_vfiprintf_r+0x35c>
83004fe4:	00c12783          	lw	a5,12(sp)
83004fe8:	00478713          	addi	a4,a5,4
83004fec:	00e12623          	sw	a4,12(sp)
83004ff0:	0007a783          	lw	a5,0(a5)
83004ff4:	002aea93          	ori	s5,s5,2
83004ff8:	03000713          	li	a4,48
83004ffc:	00e10823          	sb	a4,16(sp)
83005000:	07800713          	li	a4,120
83005004:	00e108a3          	sb	a4,17(sp)
83005008:	00008717          	auipc	a4,0x8
8300500c:	24470713          	addi	a4,a4,580 # 8300d24c <__func__.0+0x20>
83005010:	00e12423          	sw	a4,8(sp)
83005014:	00200713          	li	a4,2
83005018:	f55ff06f          	j	83004f6c <_vfiprintf_r+0x360>
8300501c:	00c12783          	lw	a5,12(sp)
83005020:	00478713          	addi	a4,a5,4
83005024:	00e12623          	sw	a4,12(sp)
83005028:	0007a483          	lw	s1,0(a5)
8300502c:	02010fa3          	sb	zero,63(sp)
83005030:	02048663          	beqz	s1,8300505c <_vfiprintf_r+0x450>
83005034:	04044463          	bltz	s0,8300507c <_vfiprintf_r+0x470>
83005038:	00040613          	mv	a2,s0
8300503c:	00000593          	li	a1,0
83005040:	00048513          	mv	a0,s1
83005044:	00003097          	auipc	ra,0x3
83005048:	588080e7          	jalr	1416(ra) # 830085cc <memchr>
8300504c:	28050e63          	beqz	a0,830052e8 <_vfiprintf_r+0x6dc>
83005050:	40950bb3          	sub	s7,a0,s1
83005054:	00000413          	li	s0,0
83005058:	1c40006f          	j	8300521c <_vfiprintf_r+0x610>
8300505c:	00040b93          	mv	s7,s0
83005060:	00600793          	li	a5,6
83005064:	0087f463          	bgeu	a5,s0,8300506c <_vfiprintf_r+0x460>
83005068:	00600b93          	li	s7,6
8300506c:	00000413          	li	s0,0
83005070:	00008497          	auipc	s1,0x8
83005074:	1f048493          	addi	s1,s1,496 # 8300d260 <__func__.0+0x34>
83005078:	1a40006f          	j	8300521c <_vfiprintf_r+0x610>
8300507c:	00048513          	mv	a0,s1
83005080:	00003097          	auipc	ra,0x3
83005084:	43c080e7          	jalr	1084(ra) # 830084bc <strlen>
83005088:	00050b93          	mv	s7,a0
8300508c:	00000413          	li	s0,0
83005090:	18c0006f          	j	8300521c <_vfiprintf_r+0x610>
83005094:	010aea93          	ori	s5,s5,16
83005098:	010af793          	andi	a5,s5,16
8300509c:	00078e63          	beqz	a5,830050b8 <_vfiprintf_r+0x4ac>
830050a0:	00c12783          	lw	a5,12(sp)
830050a4:	00478713          	addi	a4,a5,4
830050a8:	00e12623          	sw	a4,12(sp)
830050ac:	0007a783          	lw	a5,0(a5)
830050b0:	00100713          	li	a4,1
830050b4:	eb9ff06f          	j	83004f6c <_vfiprintf_r+0x360>
830050b8:	040af793          	andi	a5,s5,64
830050bc:	00078c63          	beqz	a5,830050d4 <_vfiprintf_r+0x4c8>
830050c0:	00c12783          	lw	a5,12(sp)
830050c4:	00478713          	addi	a4,a5,4
830050c8:	00e12623          	sw	a4,12(sp)
830050cc:	0007d783          	lhu	a5,0(a5)
830050d0:	fe1ff06f          	j	830050b0 <_vfiprintf_r+0x4a4>
830050d4:	00c12783          	lw	a5,12(sp)
830050d8:	00478713          	addi	a4,a5,4
830050dc:	00e12623          	sw	a4,12(sp)
830050e0:	0007a783          	lw	a5,0(a5)
830050e4:	fcdff06f          	j	830050b0 <_vfiprintf_r+0x4a4>
830050e8:	00008797          	auipc	a5,0x8
830050ec:	15078793          	addi	a5,a5,336 # 8300d238 <__func__.0+0xc>
830050f0:	00f12423          	sw	a5,8(sp)
830050f4:	010af793          	andi	a5,s5,16
830050f8:	02078c63          	beqz	a5,83005130 <_vfiprintf_r+0x524>
830050fc:	00c12783          	lw	a5,12(sp)
83005100:	00478693          	addi	a3,a5,4
83005104:	00d12623          	sw	a3,12(sp)
83005108:	0007a783          	lw	a5,0(a5)
8300510c:	001af693          	andi	a3,s5,1
83005110:	04068863          	beqz	a3,83005160 <_vfiprintf_r+0x554>
83005114:	04078a63          	beqz	a5,83005168 <_vfiprintf_r+0x55c>
83005118:	03000693          	li	a3,48
8300511c:	00d10823          	sb	a3,16(sp)
83005120:	00e108a3          	sb	a4,17(sp)
83005124:	002aea93          	ori	s5,s5,2
83005128:	00200713          	li	a4,2
8300512c:	e41ff06f          	j	83004f6c <_vfiprintf_r+0x360>
83005130:	040af793          	andi	a5,s5,64
83005134:	00078c63          	beqz	a5,8300514c <_vfiprintf_r+0x540>
83005138:	00c12783          	lw	a5,12(sp)
8300513c:	00478693          	addi	a3,a5,4
83005140:	00d12623          	sw	a3,12(sp)
83005144:	0007d783          	lhu	a5,0(a5)
83005148:	fc5ff06f          	j	8300510c <_vfiprintf_r+0x500>
8300514c:	00c12783          	lw	a5,12(sp)
83005150:	00478693          	addi	a3,a5,4
83005154:	00d12623          	sw	a3,12(sp)
83005158:	0007a783          	lw	a5,0(a5)
8300515c:	fb1ff06f          	j	8300510c <_vfiprintf_r+0x500>
83005160:	00200713          	li	a4,2
83005164:	e09ff06f          	j	83004f6c <_vfiprintf_r+0x360>
83005168:	00200713          	li	a4,2
8300516c:	e01ff06f          	j	83004f6c <_vfiprintf_r+0x360>
83005170:	03c10493          	addi	s1,sp,60
83005174:	0077f713          	andi	a4,a5,7
83005178:	00048693          	mv	a3,s1
8300517c:	fff48493          	addi	s1,s1,-1
83005180:	03070713          	addi	a4,a4,48
83005184:	00e48023          	sb	a4,0(s1)
83005188:	0037d793          	srli	a5,a5,0x3
8300518c:	fe0794e3          	bnez	a5,83005174 <_vfiprintf_r+0x568>
83005190:	001af793          	andi	a5,s5,1
83005194:	08078063          	beqz	a5,83005214 <_vfiprintf_r+0x608>
83005198:	03000793          	li	a5,48
8300519c:	06f70c63          	beq	a4,a5,83005214 <_vfiprintf_r+0x608>
830051a0:	fef48fa3          	sb	a5,-1(s1)
830051a4:	ffe68493          	addi	s1,a3,-2
830051a8:	06c0006f          	j	83005214 <_vfiprintf_r+0x608>
830051ac:	00900713          	li	a4,9
830051b0:	00f76a63          	bltu	a4,a5,830051c4 <_vfiprintf_r+0x5b8>
830051b4:	03078793          	addi	a5,a5,48
830051b8:	02f10da3          	sb	a5,59(sp)
830051bc:	03b10493          	addi	s1,sp,59
830051c0:	0540006f          	j	83005214 <_vfiprintf_r+0x608>
830051c4:	03c10493          	addi	s1,sp,60
830051c8:	00a00693          	li	a3,10
830051cc:	02d7f733          	remu	a4,a5,a3
830051d0:	fff48493          	addi	s1,s1,-1
830051d4:	03070713          	addi	a4,a4,48
830051d8:	00e48023          	sb	a4,0(s1)
830051dc:	00078613          	mv	a2,a5
830051e0:	02d7d7b3          	divu	a5,a5,a3
830051e4:	00900713          	li	a4,9
830051e8:	fec760e3          	bltu	a4,a2,830051c8 <_vfiprintf_r+0x5bc>
830051ec:	0280006f          	j	83005214 <_vfiprintf_r+0x608>
830051f0:	03c10493          	addi	s1,sp,60
830051f4:	00f7f713          	andi	a4,a5,15
830051f8:	fff48493          	addi	s1,s1,-1
830051fc:	00812683          	lw	a3,8(sp)
83005200:	00e68733          	add	a4,a3,a4
83005204:	00074703          	lbu	a4,0(a4)
83005208:	00e48023          	sb	a4,0(s1)
8300520c:	0047d793          	srli	a5,a5,0x4
83005210:	fe0792e3          	bnez	a5,830051f4 <_vfiprintf_r+0x5e8>
83005214:	03c10b93          	addi	s7,sp,60
83005218:	409b8bb3          	sub	s7,s7,s1
8300521c:	00040c93          	mv	s9,s0
83005220:	01745463          	bge	s0,s7,83005228 <_vfiprintf_r+0x61c>
83005224:	000b8c93          	mv	s9,s7
83005228:	03f14783          	lbu	a5,63(sp)
8300522c:	00078463          	beqz	a5,83005234 <_vfiprintf_r+0x628>
83005230:	001c8c93          	addi	s9,s9,1
83005234:	002afd13          	andi	s10,s5,2
83005238:	000d0463          	beqz	s10,83005240 <_vfiprintf_r+0x634>
8300523c:	002c8c93          	addi	s9,s9,2
83005240:	084afd93          	andi	s11,s5,132
83005244:	000d9663          	bnez	s11,83005250 <_vfiprintf_r+0x644>
83005248:	419b0c33          	sub	s8,s6,s9
8300524c:	0b804463          	bgtz	s8,830052f4 <_vfiprintf_r+0x6e8>
83005250:	03f14783          	lbu	a5,63(sp)
83005254:	0e079e63          	bnez	a5,83005350 <_vfiprintf_r+0x744>
83005258:	100d1e63          	bnez	s10,83005374 <_vfiprintf_r+0x768>
8300525c:	08000793          	li	a5,128
83005260:	12fd8c63          	beq	s11,a5,83005398 <_vfiprintf_r+0x78c>
83005264:	41740433          	sub	s0,s0,s7
83005268:	20805263          	blez	s0,8300546c <_vfiprintf_r+0x860>
8300526c:	01000793          	li	a5,16
83005270:	1c87dc63          	bge	a5,s0,83005448 <_vfiprintf_r+0x83c>
83005274:	01000693          	li	a3,16
83005278:	00008617          	auipc	a2,0x8
8300527c:	73460613          	addi	a2,a2,1844 # 8300d9ac <zeroes.0>
83005280:	00090593          	mv	a1,s2
83005284:	00098513          	mv	a0,s3
83005288:	00000097          	auipc	ra,0x0
8300528c:	8bc080e7          	jalr	-1860(ra) # 83004b44 <__sfputs_r>
83005290:	fff00793          	li	a5,-1
83005294:	14f50063          	beq	a0,a5,830053d4 <_vfiprintf_r+0x7c8>
83005298:	ff040413          	addi	s0,s0,-16
8300529c:	fd1ff06f          	j	8300526c <_vfiprintf_r+0x660>
830052a0:	00071e63          	bnez	a4,830052bc <_vfiprintf_r+0x6b0>
830052a4:	001af793          	andi	a5,s5,1
830052a8:	00078e63          	beqz	a5,830052c4 <_vfiprintf_r+0x6b8>
830052ac:	03000793          	li	a5,48
830052b0:	02f10da3          	sb	a5,59(sp)
830052b4:	03b10493          	addi	s1,sp,59
830052b8:	f5dff06f          	j	83005214 <_vfiprintf_r+0x608>
830052bc:	03c10493          	addi	s1,sp,60
830052c0:	f55ff06f          	j	83005214 <_vfiprintf_r+0x608>
830052c4:	03c10493          	addi	s1,sp,60
830052c8:	f4dff06f          	j	83005214 <_vfiprintf_r+0x608>
830052cc:	10070463          	beqz	a4,830053d4 <_vfiprintf_r+0x7c8>
830052d0:	00e10a23          	sb	a4,20(sp)
830052d4:	02010fa3          	sb	zero,63(sp)
830052d8:	00100b93          	li	s7,1
830052dc:	00000413          	li	s0,0
830052e0:	01410493          	addi	s1,sp,20
830052e4:	f39ff06f          	j	8300521c <_vfiprintf_r+0x610>
830052e8:	00040b93          	mv	s7,s0
830052ec:	00000413          	li	s0,0
830052f0:	f2dff06f          	j	8300521c <_vfiprintf_r+0x610>
830052f4:	01000793          	li	a5,16
830052f8:	0387d863          	bge	a5,s8,83005328 <_vfiprintf_r+0x71c>
830052fc:	01000693          	li	a3,16
83005300:	00008617          	auipc	a2,0x8
83005304:	69c60613          	addi	a2,a2,1692 # 8300d99c <blanks.1>
83005308:	00090593          	mv	a1,s2
8300530c:	00098513          	mv	a0,s3
83005310:	00000097          	auipc	ra,0x0
83005314:	834080e7          	jalr	-1996(ra) # 83004b44 <__sfputs_r>
83005318:	fff00793          	li	a5,-1
8300531c:	0af50c63          	beq	a0,a5,830053d4 <_vfiprintf_r+0x7c8>
83005320:	ff0c0c13          	addi	s8,s8,-16
83005324:	fd1ff06f          	j	830052f4 <_vfiprintf_r+0x6e8>
83005328:	000c0693          	mv	a3,s8
8300532c:	00008617          	auipc	a2,0x8
83005330:	67060613          	addi	a2,a2,1648 # 8300d99c <blanks.1>
83005334:	00090593          	mv	a1,s2
83005338:	00098513          	mv	a0,s3
8300533c:	00000097          	auipc	ra,0x0
83005340:	808080e7          	jalr	-2040(ra) # 83004b44 <__sfputs_r>
83005344:	fff00793          	li	a5,-1
83005348:	f0f514e3          	bne	a0,a5,83005250 <_vfiprintf_r+0x644>
8300534c:	0880006f          	j	830053d4 <_vfiprintf_r+0x7c8>
83005350:	00100693          	li	a3,1
83005354:	03f10613          	addi	a2,sp,63
83005358:	00090593          	mv	a1,s2
8300535c:	00098513          	mv	a0,s3
83005360:	fffff097          	auipc	ra,0xfffff
83005364:	7e4080e7          	jalr	2020(ra) # 83004b44 <__sfputs_r>
83005368:	fff00793          	li	a5,-1
8300536c:	eef516e3          	bne	a0,a5,83005258 <_vfiprintf_r+0x64c>
83005370:	0640006f          	j	830053d4 <_vfiprintf_r+0x7c8>
83005374:	00200693          	li	a3,2
83005378:	01010613          	addi	a2,sp,16
8300537c:	00090593          	mv	a1,s2
83005380:	00098513          	mv	a0,s3
83005384:	fffff097          	auipc	ra,0xfffff
83005388:	7c0080e7          	jalr	1984(ra) # 83004b44 <__sfputs_r>
8300538c:	fff00793          	li	a5,-1
83005390:	ecf516e3          	bne	a0,a5,8300525c <_vfiprintf_r+0x650>
83005394:	0400006f          	j	830053d4 <_vfiprintf_r+0x7c8>
83005398:	419b0c33          	sub	s8,s6,s9
8300539c:	ed8054e3          	blez	s8,83005264 <_vfiprintf_r+0x658>
830053a0:	0080006f          	j	830053a8 <_vfiprintf_r+0x79c>
830053a4:	ff0c0c13          	addi	s8,s8,-16
830053a8:	01000793          	li	a5,16
830053ac:	0787da63          	bge	a5,s8,83005420 <_vfiprintf_r+0x814>
830053b0:	01000693          	li	a3,16
830053b4:	00008617          	auipc	a2,0x8
830053b8:	5f860613          	addi	a2,a2,1528 # 8300d9ac <zeroes.0>
830053bc:	00090593          	mv	a1,s2
830053c0:	00098513          	mv	a0,s3
830053c4:	fffff097          	auipc	ra,0xfffff
830053c8:	780080e7          	jalr	1920(ra) # 83004b44 <__sfputs_r>
830053cc:	fff00793          	li	a5,-1
830053d0:	fcf51ae3          	bne	a0,a5,830053a4 <_vfiprintf_r+0x798>
830053d4:	00c95783          	lhu	a5,12(s2)
830053d8:	0407f793          	andi	a5,a5,64
830053dc:	12079c63          	bnez	a5,83005514 <_vfiprintf_r+0x908>
830053e0:	00412503          	lw	a0,4(sp)
830053e4:	07c12083          	lw	ra,124(sp)
830053e8:	07812403          	lw	s0,120(sp)
830053ec:	07412483          	lw	s1,116(sp)
830053f0:	07012903          	lw	s2,112(sp)
830053f4:	06c12983          	lw	s3,108(sp)
830053f8:	06812a03          	lw	s4,104(sp)
830053fc:	06412a83          	lw	s5,100(sp)
83005400:	06012b03          	lw	s6,96(sp)
83005404:	05c12b83          	lw	s7,92(sp)
83005408:	05812c03          	lw	s8,88(sp)
8300540c:	05412c83          	lw	s9,84(sp)
83005410:	05012d03          	lw	s10,80(sp)
83005414:	04c12d83          	lw	s11,76(sp)
83005418:	08010113          	addi	sp,sp,128
8300541c:	00008067          	ret
83005420:	000c0693          	mv	a3,s8
83005424:	00008617          	auipc	a2,0x8
83005428:	58860613          	addi	a2,a2,1416 # 8300d9ac <zeroes.0>
8300542c:	00090593          	mv	a1,s2
83005430:	00098513          	mv	a0,s3
83005434:	fffff097          	auipc	ra,0xfffff
83005438:	710080e7          	jalr	1808(ra) # 83004b44 <__sfputs_r>
8300543c:	fff00793          	li	a5,-1
83005440:	e2f512e3          	bne	a0,a5,83005264 <_vfiprintf_r+0x658>
83005444:	f91ff06f          	j	830053d4 <_vfiprintf_r+0x7c8>
83005448:	00040693          	mv	a3,s0
8300544c:	00008617          	auipc	a2,0x8
83005450:	56060613          	addi	a2,a2,1376 # 8300d9ac <zeroes.0>
83005454:	00090593          	mv	a1,s2
83005458:	00098513          	mv	a0,s3
8300545c:	fffff097          	auipc	ra,0xfffff
83005460:	6e8080e7          	jalr	1768(ra) # 83004b44 <__sfputs_r>
83005464:	fff00793          	li	a5,-1
83005468:	f6f506e3          	beq	a0,a5,830053d4 <_vfiprintf_r+0x7c8>
8300546c:	000b8693          	mv	a3,s7
83005470:	00048613          	mv	a2,s1
83005474:	00090593          	mv	a1,s2
83005478:	00098513          	mv	a0,s3
8300547c:	fffff097          	auipc	ra,0xfffff
83005480:	6c8080e7          	jalr	1736(ra) # 83004b44 <__sfputs_r>
83005484:	fff00793          	li	a5,-1
83005488:	f4f506e3          	beq	a0,a5,830053d4 <_vfiprintf_r+0x7c8>
8300548c:	004afa93          	andi	s5,s5,4
83005490:	000a8663          	beqz	s5,8300549c <_vfiprintf_r+0x890>
83005494:	419b0433          	sub	s0,s6,s9
83005498:	02804063          	bgtz	s0,830054b8 <_vfiprintf_r+0x8ac>
8300549c:	019b5463          	bge	s6,s9,830054a4 <_vfiprintf_r+0x898>
830054a0:	000c8b13          	mv	s6,s9
830054a4:	00412783          	lw	a5,4(sp)
830054a8:	016787b3          	add	a5,a5,s6
830054ac:	00f12223          	sw	a5,4(sp)
830054b0:	000a0413          	mv	s0,s4
830054b4:	ff0ff06f          	j	83004ca4 <_vfiprintf_r+0x98>
830054b8:	01000793          	li	a5,16
830054bc:	0287d863          	bge	a5,s0,830054ec <_vfiprintf_r+0x8e0>
830054c0:	01000693          	li	a3,16
830054c4:	00008617          	auipc	a2,0x8
830054c8:	4d860613          	addi	a2,a2,1240 # 8300d99c <blanks.1>
830054cc:	00090593          	mv	a1,s2
830054d0:	00098513          	mv	a0,s3
830054d4:	fffff097          	auipc	ra,0xfffff
830054d8:	670080e7          	jalr	1648(ra) # 83004b44 <__sfputs_r>
830054dc:	fff00793          	li	a5,-1
830054e0:	eef50ae3          	beq	a0,a5,830053d4 <_vfiprintf_r+0x7c8>
830054e4:	ff040413          	addi	s0,s0,-16
830054e8:	fd1ff06f          	j	830054b8 <_vfiprintf_r+0x8ac>
830054ec:	00040693          	mv	a3,s0
830054f0:	00008617          	auipc	a2,0x8
830054f4:	4ac60613          	addi	a2,a2,1196 # 8300d99c <blanks.1>
830054f8:	00090593          	mv	a1,s2
830054fc:	00098513          	mv	a0,s3
83005500:	fffff097          	auipc	ra,0xfffff
83005504:	644080e7          	jalr	1604(ra) # 83004b44 <__sfputs_r>
83005508:	fff00793          	li	a5,-1
8300550c:	f8f518e3          	bne	a0,a5,8300549c <_vfiprintf_r+0x890>
83005510:	ec5ff06f          	j	830053d4 <_vfiprintf_r+0x7c8>
83005514:	fff00793          	li	a5,-1
83005518:	00f12223          	sw	a5,4(sp)
8300551c:	ec5ff06f          	j	830053e0 <_vfiprintf_r+0x7d4>
83005520:	fff00793          	li	a5,-1
83005524:	00f12223          	sw	a5,4(sp)
83005528:	eb9ff06f          	j	830053e0 <_vfiprintf_r+0x7d4>

8300552c <vfiprintf>:
8300552c:	ff010113          	addi	sp,sp,-16
83005530:	00112623          	sw	ra,12(sp)
83005534:	00060693          	mv	a3,a2
83005538:	00058613          	mv	a2,a1
8300553c:	00050593          	mv	a1,a0
83005540:	0000a517          	auipc	a0,0xa
83005544:	54052503          	lw	a0,1344(a0) # 8300fa80 <_impure_ptr>
83005548:	fffff097          	auipc	ra,0xfffff
8300554c:	6c4080e7          	jalr	1732(ra) # 83004c0c <_vfiprintf_r>
83005550:	00c12083          	lw	ra,12(sp)
83005554:	01010113          	addi	sp,sp,16
83005558:	00008067          	ret

8300555c <__ssputs_r>:
8300555c:	fe010113          	addi	sp,sp,-32
83005560:	00112e23          	sw	ra,28(sp)
83005564:	00812c23          	sw	s0,24(sp)
83005568:	00912a23          	sw	s1,20(sp)
8300556c:	01212823          	sw	s2,16(sp)
83005570:	01312623          	sw	s3,12(sp)
83005574:	01412423          	sw	s4,8(sp)
83005578:	01512223          	sw	s5,4(sp)
8300557c:	01612023          	sw	s6,0(sp)
83005580:	00058413          	mv	s0,a1
83005584:	00060a13          	mv	s4,a2
83005588:	00068913          	mv	s2,a3
8300558c:	0085a483          	lw	s1,8(a1)
83005590:	0c96ee63          	bltu	a3,s1,8300566c <__ssputs_r+0x110>
83005594:	00050a93          	mv	s5,a0
83005598:	00c5d783          	lhu	a5,12(a1)
8300559c:	4807f713          	andi	a4,a5,1152
830055a0:	0c070663          	beqz	a4,8300566c <__ssputs_r+0x110>
830055a4:	0005ab03          	lw	s6,0(a1)
830055a8:	0105a583          	lw	a1,16(a1)
830055ac:	40bb0b33          	sub	s6,s6,a1
830055b0:	01442683          	lw	a3,20(s0)
830055b4:	00169713          	slli	a4,a3,0x1
830055b8:	00d70733          	add	a4,a4,a3
830055bc:	01f75993          	srli	s3,a4,0x1f
830055c0:	00e989b3          	add	s3,s3,a4
830055c4:	4019d993          	srai	s3,s3,0x1
830055c8:	012b0733          	add	a4,s6,s2
830055cc:	00170713          	addi	a4,a4,1
830055d0:	00e9f463          	bgeu	s3,a4,830055d8 <__ssputs_r+0x7c>
830055d4:	00070993          	mv	s3,a4
830055d8:	4007f793          	andi	a5,a5,1024
830055dc:	04078e63          	beqz	a5,83005638 <__ssputs_r+0xdc>
830055e0:	00098593          	mv	a1,s3
830055e4:	000a8513          	mv	a0,s5
830055e8:	00002097          	auipc	ra,0x2
830055ec:	554080e7          	jalr	1364(ra) # 83007b3c <_malloc_r>
830055f0:	00050493          	mv	s1,a0
830055f4:	02050463          	beqz	a0,8300561c <__ssputs_r+0xc0>
830055f8:	000b0613          	mv	a2,s6
830055fc:	01042583          	lw	a1,16(s0)
83005600:	00003097          	auipc	ra,0x3
83005604:	f28080e7          	jalr	-216(ra) # 83008528 <memcpy>
83005608:	00c41783          	lh	a5,12(s0)
8300560c:	b7f7f793          	andi	a5,a5,-1153
83005610:	0807e793          	ori	a5,a5,128
83005614:	00f41623          	sh	a5,12(s0)
83005618:	0380006f          	j	83005650 <__ssputs_r+0xf4>
8300561c:	00c00793          	li	a5,12
83005620:	00faa023          	sw	a5,0(s5)
83005624:	00c45783          	lhu	a5,12(s0)
83005628:	0407e793          	ori	a5,a5,64
8300562c:	00f41623          	sh	a5,12(s0)
83005630:	fff00513          	li	a0,-1
83005634:	0700006f          	j	830056a4 <__ssputs_r+0x148>
83005638:	00098613          	mv	a2,s3
8300563c:	000a8513          	mv	a0,s5
83005640:	00001097          	auipc	ra,0x1
83005644:	6b8080e7          	jalr	1720(ra) # 83006cf8 <_realloc_r>
83005648:	00050493          	mv	s1,a0
8300564c:	08050063          	beqz	a0,830056cc <__ssputs_r+0x170>
83005650:	00942823          	sw	s1,16(s0)
83005654:	016484b3          	add	s1,s1,s6
83005658:	00942023          	sw	s1,0(s0)
8300565c:	01342a23          	sw	s3,20(s0)
83005660:	00090493          	mv	s1,s2
83005664:	416989b3          	sub	s3,s3,s6
83005668:	01342423          	sw	s3,8(s0)
8300566c:	00997463          	bgeu	s2,s1,83005674 <__ssputs_r+0x118>
83005670:	00090493          	mv	s1,s2
83005674:	00048613          	mv	a2,s1
83005678:	000a0593          	mv	a1,s4
8300567c:	00042503          	lw	a0,0(s0)
83005680:	00003097          	auipc	ra,0x3
83005684:	d64080e7          	jalr	-668(ra) # 830083e4 <memmove>
83005688:	00842783          	lw	a5,8(s0)
8300568c:	409787b3          	sub	a5,a5,s1
83005690:	00f42423          	sw	a5,8(s0)
83005694:	00042783          	lw	a5,0(s0)
83005698:	009787b3          	add	a5,a5,s1
8300569c:	00f42023          	sw	a5,0(s0)
830056a0:	00000513          	li	a0,0
830056a4:	01c12083          	lw	ra,28(sp)
830056a8:	01812403          	lw	s0,24(sp)
830056ac:	01412483          	lw	s1,20(sp)
830056b0:	01012903          	lw	s2,16(sp)
830056b4:	00c12983          	lw	s3,12(sp)
830056b8:	00812a03          	lw	s4,8(sp)
830056bc:	00412a83          	lw	s5,4(sp)
830056c0:	00012b03          	lw	s6,0(sp)
830056c4:	02010113          	addi	sp,sp,32
830056c8:	00008067          	ret
830056cc:	01042583          	lw	a1,16(s0)
830056d0:	000a8513          	mv	a0,s5
830056d4:	00002097          	auipc	ra,0x2
830056d8:	ea4080e7          	jalr	-348(ra) # 83007578 <_free_r>
830056dc:	00c00793          	li	a5,12
830056e0:	00faa023          	sw	a5,0(s5)
830056e4:	f41ff06f          	j	83005624 <__ssputs_r+0xc8>

830056e8 <__ssprint_r>:
830056e8:	fd010113          	addi	sp,sp,-48
830056ec:	02112623          	sw	ra,44(sp)
830056f0:	02812423          	sw	s0,40(sp)
830056f4:	02912223          	sw	s1,36(sp)
830056f8:	03212023          	sw	s2,32(sp)
830056fc:	01312e23          	sw	s3,28(sp)
83005700:	01412c23          	sw	s4,24(sp)
83005704:	01512a23          	sw	s5,20(sp)
83005708:	01612823          	sw	s6,16(sp)
8300570c:	01712623          	sw	s7,12(sp)
83005710:	01812423          	sw	s8,8(sp)
83005714:	00060a93          	mv	s5,a2
83005718:	00062983          	lw	s3,0(a2)
8300571c:	00862783          	lw	a5,8(a2)
83005720:	00078c63          	beqz	a5,83005738 <__ssprint_r+0x50>
83005724:	00050b13          	mv	s6,a0
83005728:	00058493          	mv	s1,a1
8300572c:	00000a13          	li	s4,0
83005730:	00000413          	li	s0,0
83005734:	01c0006f          	j	83005750 <__ssprint_r+0x68>
83005738:	00062223          	sw	zero,4(a2)
8300573c:	00000513          	li	a0,0
83005740:	16c0006f          	j	830058ac <__ssprint_r+0x1c4>
83005744:	0009aa03          	lw	s4,0(s3)
83005748:	0049a403          	lw	s0,4(s3)
8300574c:	00898993          	addi	s3,s3,8
83005750:	fe040ae3          	beqz	s0,83005744 <__ssprint_r+0x5c>
83005754:	0084a903          	lw	s2,8(s1)
83005758:	0b246063          	bltu	s0,s2,830057f8 <__ssprint_r+0x110>
8300575c:	00c4d783          	lhu	a5,12(s1)
83005760:	4807f713          	andi	a4,a5,1152
83005764:	08070a63          	beqz	a4,830057f8 <__ssprint_r+0x110>
83005768:	0004ac03          	lw	s8,0(s1)
8300576c:	0104a583          	lw	a1,16(s1)
83005770:	40bc0c33          	sub	s8,s8,a1
83005774:	0144a683          	lw	a3,20(s1)
83005778:	00169713          	slli	a4,a3,0x1
8300577c:	00d70733          	add	a4,a4,a3
83005780:	01f75b93          	srli	s7,a4,0x1f
83005784:	00eb8bb3          	add	s7,s7,a4
83005788:	401bdb93          	srai	s7,s7,0x1
8300578c:	008c0733          	add	a4,s8,s0
83005790:	00170713          	addi	a4,a4,1
83005794:	00ebf463          	bgeu	s7,a4,8300579c <__ssprint_r+0xb4>
83005798:	00070b93          	mv	s7,a4
8300579c:	4007f793          	andi	a5,a5,1024
830057a0:	0c078663          	beqz	a5,8300586c <__ssprint_r+0x184>
830057a4:	000b8593          	mv	a1,s7
830057a8:	000b0513          	mv	a0,s6
830057ac:	00002097          	auipc	ra,0x2
830057b0:	390080e7          	jalr	912(ra) # 83007b3c <_malloc_r>
830057b4:	00050913          	mv	s2,a0
830057b8:	08050863          	beqz	a0,83005848 <__ssprint_r+0x160>
830057bc:	000c0613          	mv	a2,s8
830057c0:	0104a583          	lw	a1,16(s1)
830057c4:	00003097          	auipc	ra,0x3
830057c8:	d64080e7          	jalr	-668(ra) # 83008528 <memcpy>
830057cc:	00c49783          	lh	a5,12(s1)
830057d0:	b7f7f793          	andi	a5,a5,-1153
830057d4:	0807e793          	ori	a5,a5,128
830057d8:	00f49623          	sh	a5,12(s1)
830057dc:	0124a823          	sw	s2,16(s1)
830057e0:	01890933          	add	s2,s2,s8
830057e4:	0124a023          	sw	s2,0(s1)
830057e8:	0174aa23          	sw	s7,20(s1)
830057ec:	00040913          	mv	s2,s0
830057f0:	418b8bb3          	sub	s7,s7,s8
830057f4:	0174a423          	sw	s7,8(s1)
830057f8:	01247463          	bgeu	s0,s2,83005800 <__ssprint_r+0x118>
830057fc:	00040913          	mv	s2,s0
83005800:	00090613          	mv	a2,s2
83005804:	000a0593          	mv	a1,s4
83005808:	0004a503          	lw	a0,0(s1)
8300580c:	00003097          	auipc	ra,0x3
83005810:	bd8080e7          	jalr	-1064(ra) # 830083e4 <memmove>
83005814:	0084a783          	lw	a5,8(s1)
83005818:	412787b3          	sub	a5,a5,s2
8300581c:	00f4a423          	sw	a5,8(s1)
83005820:	0004a783          	lw	a5,0(s1)
83005824:	012787b3          	add	a5,a5,s2
83005828:	00f4a023          	sw	a5,0(s1)
8300582c:	008a0a33          	add	s4,s4,s0
83005830:	008aa783          	lw	a5,8(s5)
83005834:	408787b3          	sub	a5,a5,s0
83005838:	00faa423          	sw	a5,8(s5)
8300583c:	06078263          	beqz	a5,830058a0 <__ssprint_r+0x1b8>
83005840:	00000413          	li	s0,0
83005844:	f0dff06f          	j	83005750 <__ssprint_r+0x68>
83005848:	00c00793          	li	a5,12
8300584c:	00fb2023          	sw	a5,0(s6)
83005850:	00c4d783          	lhu	a5,12(s1)
83005854:	0407e793          	ori	a5,a5,64
83005858:	00f49623          	sh	a5,12(s1)
8300585c:	000aa423          	sw	zero,8(s5)
83005860:	000aa223          	sw	zero,4(s5)
83005864:	fff00513          	li	a0,-1
83005868:	0440006f          	j	830058ac <__ssprint_r+0x1c4>
8300586c:	000b8613          	mv	a2,s7
83005870:	000b0513          	mv	a0,s6
83005874:	00001097          	auipc	ra,0x1
83005878:	484080e7          	jalr	1156(ra) # 83006cf8 <_realloc_r>
8300587c:	00050913          	mv	s2,a0
83005880:	f4051ee3          	bnez	a0,830057dc <__ssprint_r+0xf4>
83005884:	0104a583          	lw	a1,16(s1)
83005888:	000b0513          	mv	a0,s6
8300588c:	00002097          	auipc	ra,0x2
83005890:	cec080e7          	jalr	-788(ra) # 83007578 <_free_r>
83005894:	00c00793          	li	a5,12
83005898:	00fb2023          	sw	a5,0(s6)
8300589c:	fb5ff06f          	j	83005850 <__ssprint_r+0x168>
830058a0:	000aa423          	sw	zero,8(s5)
830058a4:	000aa223          	sw	zero,4(s5)
830058a8:	00000513          	li	a0,0
830058ac:	02c12083          	lw	ra,44(sp)
830058b0:	02812403          	lw	s0,40(sp)
830058b4:	02412483          	lw	s1,36(sp)
830058b8:	02012903          	lw	s2,32(sp)
830058bc:	01c12983          	lw	s3,28(sp)
830058c0:	01812a03          	lw	s4,24(sp)
830058c4:	01412a83          	lw	s5,20(sp)
830058c8:	01012b03          	lw	s6,16(sp)
830058cc:	00c12b83          	lw	s7,12(sp)
830058d0:	00812c03          	lw	s8,8(sp)
830058d4:	03010113          	addi	sp,sp,48
830058d8:	00008067          	ret

830058dc <_svfiprintf_r>:
830058dc:	f8010113          	addi	sp,sp,-128
830058e0:	06112e23          	sw	ra,124(sp)
830058e4:	06812c23          	sw	s0,120(sp)
830058e8:	06912a23          	sw	s1,116(sp)
830058ec:	07212823          	sw	s2,112(sp)
830058f0:	07312623          	sw	s3,108(sp)
830058f4:	07412423          	sw	s4,104(sp)
830058f8:	07512223          	sw	s5,100(sp)
830058fc:	07612023          	sw	s6,96(sp)
83005900:	05712e23          	sw	s7,92(sp)
83005904:	05812c23          	sw	s8,88(sp)
83005908:	05912a23          	sw	s9,84(sp)
8300590c:	05a12823          	sw	s10,80(sp)
83005910:	05b12623          	sw	s11,76(sp)
83005914:	00050993          	mv	s3,a0
83005918:	00058913          	mv	s2,a1
8300591c:	00060a13          	mv	s4,a2
83005920:	00d12623          	sw	a3,12(sp)
83005924:	00c5d783          	lhu	a5,12(a1)
83005928:	0807f793          	andi	a5,a5,128
8300592c:	00078663          	beqz	a5,83005938 <_svfiprintf_r+0x5c>
83005930:	0105a783          	lw	a5,16(a1)
83005934:	00078863          	beqz	a5,83005944 <_svfiprintf_r+0x68>
83005938:	00012423          	sw	zero,8(sp)
8300593c:	00012223          	sw	zero,4(sp)
83005940:	64c0006f          	j	83005f8c <_svfiprintf_r+0x6b0>
83005944:	04000593          	li	a1,64
83005948:	00002097          	auipc	ra,0x2
8300594c:	1f4080e7          	jalr	500(ra) # 83007b3c <_malloc_r>
83005950:	00a92023          	sw	a0,0(s2)
83005954:	00a92823          	sw	a0,16(s2)
83005958:	00050863          	beqz	a0,83005968 <_svfiprintf_r+0x8c>
8300595c:	04000793          	li	a5,64
83005960:	00f92a23          	sw	a5,20(s2)
83005964:	fd5ff06f          	j	83005938 <_svfiprintf_r+0x5c>
83005968:	00c00793          	li	a5,12
8300596c:	00f9a023          	sw	a5,0(s3)
83005970:	fff00793          	li	a5,-1
83005974:	00f12223          	sw	a5,4(sp)
83005978:	7b80006f          	j	83006130 <_svfiprintf_r+0x854>
8300597c:	00140413          	addi	s0,s0,1
83005980:	00044783          	lbu	a5,0(s0)
83005984:	00078663          	beqz	a5,83005990 <_svfiprintf_r+0xb4>
83005988:	02500713          	li	a4,37
8300598c:	fee798e3          	bne	a5,a4,8300597c <_svfiprintf_r+0xa0>
83005990:	414404b3          	sub	s1,s0,s4
83005994:	05441863          	bne	s0,s4,830059e4 <_svfiprintf_r+0x108>
83005998:	00044783          	lbu	a5,0(s0)
8300599c:	78078463          	beqz	a5,83006124 <_svfiprintf_r+0x848>
830059a0:	00140793          	addi	a5,s0,1
830059a4:	02010fa3          	sb	zero,63(sp)
830059a8:	fff00413          	li	s0,-1
830059ac:	00000b13          	li	s6,0
830059b0:	00000a93          	li	s5,0
830059b4:	00178a13          	addi	s4,a5,1
830059b8:	0007c703          	lbu	a4,0(a5)
830059bc:	fe070793          	addi	a5,a4,-32
830059c0:	05800693          	li	a3,88
830059c4:	5ef6ee63          	bltu	a3,a5,83005fc0 <_svfiprintf_r+0x6e4>
830059c8:	00279793          	slli	a5,a5,0x2
830059cc:	00008697          	auipc	a3,0x8
830059d0:	ff068693          	addi	a3,a3,-16 # 8300d9bc <zeroes.0+0x10>
830059d4:	00d787b3          	add	a5,a5,a3
830059d8:	0007a783          	lw	a5,0(a5)
830059dc:	00d787b3          	add	a5,a5,a3
830059e0:	00078067          	jr	a5
830059e4:	00048693          	mv	a3,s1
830059e8:	000a0613          	mv	a2,s4
830059ec:	00090593          	mv	a1,s2
830059f0:	00098513          	mv	a0,s3
830059f4:	00000097          	auipc	ra,0x0
830059f8:	b68080e7          	jalr	-1176(ra) # 8300555c <__ssputs_r>
830059fc:	fff00793          	li	a5,-1
83005a00:	72f50263          	beq	a0,a5,83006124 <_svfiprintf_r+0x848>
83005a04:	00412783          	lw	a5,4(sp)
83005a08:	009787b3          	add	a5,a5,s1
83005a0c:	00f12223          	sw	a5,4(sp)
83005a10:	f89ff06f          	j	83005998 <_svfiprintf_r+0xbc>
83005a14:	00008797          	auipc	a5,0x8
83005a18:	83878793          	addi	a5,a5,-1992 # 8300d24c <__func__.0+0x20>
83005a1c:	00f12423          	sw	a5,8(sp)
83005a20:	3b00006f          	j	83005dd0 <_svfiprintf_r+0x4f4>
83005a24:	03f14783          	lbu	a5,63(sp)
83005a28:	02079a63          	bnez	a5,83005a5c <_svfiprintf_r+0x180>
83005a2c:	02000793          	li	a5,32
83005a30:	02f10fa3          	sb	a5,63(sp)
83005a34:	0280006f          	j	83005a5c <_svfiprintf_r+0x180>
83005a38:	001aea93          	ori	s5,s5,1
83005a3c:	0200006f          	j	83005a5c <_svfiprintf_r+0x180>
83005a40:	00c12783          	lw	a5,12(sp)
83005a44:	00478713          	addi	a4,a5,4
83005a48:	00e12623          	sw	a4,12(sp)
83005a4c:	0007ab03          	lw	s6,0(a5)
83005a50:	000b5663          	bgez	s6,83005a5c <_svfiprintf_r+0x180>
83005a54:	41600b33          	neg	s6,s6
83005a58:	004aea93          	ori	s5,s5,4
83005a5c:	000a0793          	mv	a5,s4
83005a60:	f55ff06f          	j	830059b4 <_svfiprintf_r+0xd8>
83005a64:	02b00793          	li	a5,43
83005a68:	02f10fa3          	sb	a5,63(sp)
83005a6c:	ff1ff06f          	j	83005a5c <_svfiprintf_r+0x180>
83005a70:	001a0693          	addi	a3,s4,1
83005a74:	000a4703          	lbu	a4,0(s4)
83005a78:	02a00793          	li	a5,42
83005a7c:	00f70663          	beq	a4,a5,83005a88 <_svfiprintf_r+0x1ac>
83005a80:	00000413          	li	s0,0
83005a84:	0400006f          	j	83005ac4 <_svfiprintf_r+0x1e8>
83005a88:	00c12783          	lw	a5,12(sp)
83005a8c:	00478713          	addi	a4,a5,4
83005a90:	00e12623          	sw	a4,12(sp)
83005a94:	0007a403          	lw	s0,0(a5)
83005a98:	00044663          	bltz	s0,83005aa4 <_svfiprintf_r+0x1c8>
83005a9c:	00068a13          	mv	s4,a3
83005aa0:	fbdff06f          	j	83005a5c <_svfiprintf_r+0x180>
83005aa4:	fff00413          	li	s0,-1
83005aa8:	ff5ff06f          	j	83005a9c <_svfiprintf_r+0x1c0>
83005aac:	00241793          	slli	a5,s0,0x2
83005ab0:	008787b3          	add	a5,a5,s0
83005ab4:	00179793          	slli	a5,a5,0x1
83005ab8:	00c78433          	add	s0,a5,a2
83005abc:	0006c703          	lbu	a4,0(a3)
83005ac0:	00168693          	addi	a3,a3,1
83005ac4:	fd070613          	addi	a2,a4,-48
83005ac8:	00900793          	li	a5,9
83005acc:	fec7f0e3          	bgeu	a5,a2,83005aac <_svfiprintf_r+0x1d0>
83005ad0:	00044663          	bltz	s0,83005adc <_svfiprintf_r+0x200>
83005ad4:	00068a13          	mv	s4,a3
83005ad8:	ee5ff06f          	j	830059bc <_svfiprintf_r+0xe0>
83005adc:	fff00413          	li	s0,-1
83005ae0:	ff5ff06f          	j	83005ad4 <_svfiprintf_r+0x1f8>
83005ae4:	080aea93          	ori	s5,s5,128
83005ae8:	f75ff06f          	j	83005a5c <_svfiprintf_r+0x180>
83005aec:	00000b13          	li	s6,0
83005af0:	002b1793          	slli	a5,s6,0x2
83005af4:	016787b3          	add	a5,a5,s6
83005af8:	00179793          	slli	a5,a5,0x1
83005afc:	fd070713          	addi	a4,a4,-48
83005b00:	00e78b33          	add	s6,a5,a4
83005b04:	000a4703          	lbu	a4,0(s4)
83005b08:	001a0a13          	addi	s4,s4,1
83005b0c:	fd070693          	addi	a3,a4,-48
83005b10:	00900793          	li	a5,9
83005b14:	fcd7fee3          	bgeu	a5,a3,83005af0 <_svfiprintf_r+0x214>
83005b18:	ea5ff06f          	j	830059bc <_svfiprintf_r+0xe0>
83005b1c:	040aea93          	ori	s5,s5,64
83005b20:	f3dff06f          	j	83005a5c <_svfiprintf_r+0x180>
83005b24:	010aea93          	ori	s5,s5,16
83005b28:	f35ff06f          	j	83005a5c <_svfiprintf_r+0x180>
83005b2c:	010aea93          	ori	s5,s5,16
83005b30:	f2dff06f          	j	83005a5c <_svfiprintf_r+0x180>
83005b34:	00c12783          	lw	a5,12(sp)
83005b38:	00478713          	addi	a4,a5,4
83005b3c:	00e12623          	sw	a4,12(sp)
83005b40:	0007a783          	lw	a5,0(a5)
83005b44:	00f10a23          	sb	a5,20(sp)
83005b48:	02010fa3          	sb	zero,63(sp)
83005b4c:	00100b93          	li	s7,1
83005b50:	00000413          	li	s0,0
83005b54:	01410493          	addi	s1,sp,20
83005b58:	3a00006f          	j	83005ef8 <_svfiprintf_r+0x61c>
83005b5c:	010aea93          	ori	s5,s5,16
83005b60:	010af793          	andi	a5,s5,16
83005b64:	02078063          	beqz	a5,83005b84 <_svfiprintf_r+0x2a8>
83005b68:	00c12783          	lw	a5,12(sp)
83005b6c:	00478713          	addi	a4,a5,4
83005b70:	00e12623          	sw	a4,12(sp)
83005b74:	0007a783          	lw	a5,0(a5)
83005b78:	0207ce63          	bltz	a5,83005bb4 <_svfiprintf_r+0x2d8>
83005b7c:	00100713          	li	a4,1
83005b80:	0cc0006f          	j	83005c4c <_svfiprintf_r+0x370>
83005b84:	040af793          	andi	a5,s5,64
83005b88:	00078c63          	beqz	a5,83005ba0 <_svfiprintf_r+0x2c4>
83005b8c:	00c12783          	lw	a5,12(sp)
83005b90:	00478713          	addi	a4,a5,4
83005b94:	00e12623          	sw	a4,12(sp)
83005b98:	00079783          	lh	a5,0(a5)
83005b9c:	fddff06f          	j	83005b78 <_svfiprintf_r+0x29c>
83005ba0:	00c12783          	lw	a5,12(sp)
83005ba4:	00478713          	addi	a4,a5,4
83005ba8:	00e12623          	sw	a4,12(sp)
83005bac:	0007a783          	lw	a5,0(a5)
83005bb0:	fc9ff06f          	j	83005b78 <_svfiprintf_r+0x29c>
83005bb4:	40f007b3          	neg	a5,a5
83005bb8:	02d00713          	li	a4,45
83005bbc:	02e10fa3          	sb	a4,63(sp)
83005bc0:	fbdff06f          	j	83005b7c <_svfiprintf_r+0x2a0>
83005bc4:	010af793          	andi	a5,s5,16
83005bc8:	02078063          	beqz	a5,83005be8 <_svfiprintf_r+0x30c>
83005bcc:	00c12783          	lw	a5,12(sp)
83005bd0:	00478713          	addi	a4,a5,4
83005bd4:	00e12623          	sw	a4,12(sp)
83005bd8:	0007a783          	lw	a5,0(a5)
83005bdc:	00412703          	lw	a4,4(sp)
83005be0:	00e7a023          	sw	a4,0(a5)
83005be4:	3a80006f          	j	83005f8c <_svfiprintf_r+0x6b0>
83005be8:	040afa93          	andi	s5,s5,64
83005bec:	020a8063          	beqz	s5,83005c0c <_svfiprintf_r+0x330>
83005bf0:	00c12783          	lw	a5,12(sp)
83005bf4:	00478713          	addi	a4,a5,4
83005bf8:	00e12623          	sw	a4,12(sp)
83005bfc:	0007a783          	lw	a5,0(a5)
83005c00:	00412703          	lw	a4,4(sp)
83005c04:	00e79023          	sh	a4,0(a5)
83005c08:	3840006f          	j	83005f8c <_svfiprintf_r+0x6b0>
83005c0c:	00c12783          	lw	a5,12(sp)
83005c10:	00478713          	addi	a4,a5,4
83005c14:	00e12623          	sw	a4,12(sp)
83005c18:	0007a783          	lw	a5,0(a5)
83005c1c:	00412703          	lw	a4,4(sp)
83005c20:	00e7a023          	sw	a4,0(a5)
83005c24:	3680006f          	j	83005f8c <_svfiprintf_r+0x6b0>
83005c28:	010aea93          	ori	s5,s5,16
83005c2c:	010af793          	andi	a5,s5,16
83005c30:	06078063          	beqz	a5,83005c90 <_svfiprintf_r+0x3b4>
83005c34:	00c12783          	lw	a5,12(sp)
83005c38:	00478713          	addi	a4,a5,4
83005c3c:	00e12623          	sw	a4,12(sp)
83005c40:	0007a783          	lw	a5,0(a5)
83005c44:	00000713          	li	a4,0
83005c48:	02010fa3          	sb	zero,63(sp)
83005c4c:	00044463          	bltz	s0,83005c54 <_svfiprintf_r+0x378>
83005c50:	f7fafa93          	andi	s5,s5,-129
83005c54:	00079463          	bnez	a5,83005c5c <_svfiprintf_r+0x380>
83005c58:	32040e63          	beqz	s0,83005f94 <_svfiprintf_r+0x6b8>
83005c5c:	00100693          	li	a3,1
83005c60:	22d70463          	beq	a4,a3,83005e88 <_svfiprintf_r+0x5ac>
83005c64:	00200693          	li	a3,2
83005c68:	26d70263          	beq	a4,a3,83005ecc <_svfiprintf_r+0x5f0>
83005c6c:	1e070063          	beqz	a4,83005e4c <_svfiprintf_r+0x570>
83005c70:	00007517          	auipc	a0,0x7
83005c74:	5f850513          	addi	a0,a0,1528 # 8300d268 <__func__.0+0x3c>
83005c78:	00003097          	auipc	ra,0x3
83005c7c:	844080e7          	jalr	-1980(ra) # 830084bc <strlen>
83005c80:	00050b93          	mv	s7,a0
83005c84:	00007497          	auipc	s1,0x7
83005c88:	5e448493          	addi	s1,s1,1508 # 8300d268 <__func__.0+0x3c>
83005c8c:	26c0006f          	j	83005ef8 <_svfiprintf_r+0x61c>
83005c90:	040af793          	andi	a5,s5,64
83005c94:	00078c63          	beqz	a5,83005cac <_svfiprintf_r+0x3d0>
83005c98:	00c12783          	lw	a5,12(sp)
83005c9c:	00478713          	addi	a4,a5,4
83005ca0:	00e12623          	sw	a4,12(sp)
83005ca4:	0007d783          	lhu	a5,0(a5)
83005ca8:	f9dff06f          	j	83005c44 <_svfiprintf_r+0x368>
83005cac:	00c12783          	lw	a5,12(sp)
83005cb0:	00478713          	addi	a4,a5,4
83005cb4:	00e12623          	sw	a4,12(sp)
83005cb8:	0007a783          	lw	a5,0(a5)
83005cbc:	f89ff06f          	j	83005c44 <_svfiprintf_r+0x368>
83005cc0:	00c12783          	lw	a5,12(sp)
83005cc4:	00478713          	addi	a4,a5,4
83005cc8:	00e12623          	sw	a4,12(sp)
83005ccc:	0007a783          	lw	a5,0(a5)
83005cd0:	002aea93          	ori	s5,s5,2
83005cd4:	03000713          	li	a4,48
83005cd8:	00e10823          	sb	a4,16(sp)
83005cdc:	07800713          	li	a4,120
83005ce0:	00e108a3          	sb	a4,17(sp)
83005ce4:	00007717          	auipc	a4,0x7
83005ce8:	56870713          	addi	a4,a4,1384 # 8300d24c <__func__.0+0x20>
83005cec:	00e12423          	sw	a4,8(sp)
83005cf0:	00200713          	li	a4,2
83005cf4:	f55ff06f          	j	83005c48 <_svfiprintf_r+0x36c>
83005cf8:	00c12783          	lw	a5,12(sp)
83005cfc:	00478713          	addi	a4,a5,4
83005d00:	00e12623          	sw	a4,12(sp)
83005d04:	0007a483          	lw	s1,0(a5)
83005d08:	02010fa3          	sb	zero,63(sp)
83005d0c:	02048663          	beqz	s1,83005d38 <_svfiprintf_r+0x45c>
83005d10:	04044463          	bltz	s0,83005d58 <_svfiprintf_r+0x47c>
83005d14:	00040613          	mv	a2,s0
83005d18:	00000593          	li	a1,0
83005d1c:	00048513          	mv	a0,s1
83005d20:	00003097          	auipc	ra,0x3
83005d24:	8ac080e7          	jalr	-1876(ra) # 830085cc <memchr>
83005d28:	2a050a63          	beqz	a0,83005fdc <_svfiprintf_r+0x700>
83005d2c:	40950bb3          	sub	s7,a0,s1
83005d30:	00000413          	li	s0,0
83005d34:	1c40006f          	j	83005ef8 <_svfiprintf_r+0x61c>
83005d38:	00040b93          	mv	s7,s0
83005d3c:	00600793          	li	a5,6
83005d40:	0087f463          	bgeu	a5,s0,83005d48 <_svfiprintf_r+0x46c>
83005d44:	00600b93          	li	s7,6
83005d48:	00000413          	li	s0,0
83005d4c:	00007497          	auipc	s1,0x7
83005d50:	51448493          	addi	s1,s1,1300 # 8300d260 <__func__.0+0x34>
83005d54:	1a40006f          	j	83005ef8 <_svfiprintf_r+0x61c>
83005d58:	00048513          	mv	a0,s1
83005d5c:	00002097          	auipc	ra,0x2
83005d60:	760080e7          	jalr	1888(ra) # 830084bc <strlen>
83005d64:	00050b93          	mv	s7,a0
83005d68:	00000413          	li	s0,0
83005d6c:	18c0006f          	j	83005ef8 <_svfiprintf_r+0x61c>
83005d70:	010aea93          	ori	s5,s5,16
83005d74:	010af793          	andi	a5,s5,16
83005d78:	00078e63          	beqz	a5,83005d94 <_svfiprintf_r+0x4b8>
83005d7c:	00c12783          	lw	a5,12(sp)
83005d80:	00478713          	addi	a4,a5,4
83005d84:	00e12623          	sw	a4,12(sp)
83005d88:	0007a783          	lw	a5,0(a5)
83005d8c:	00100713          	li	a4,1
83005d90:	eb9ff06f          	j	83005c48 <_svfiprintf_r+0x36c>
83005d94:	040af793          	andi	a5,s5,64
83005d98:	00078c63          	beqz	a5,83005db0 <_svfiprintf_r+0x4d4>
83005d9c:	00c12783          	lw	a5,12(sp)
83005da0:	00478713          	addi	a4,a5,4
83005da4:	00e12623          	sw	a4,12(sp)
83005da8:	0007d783          	lhu	a5,0(a5)
83005dac:	fe1ff06f          	j	83005d8c <_svfiprintf_r+0x4b0>
83005db0:	00c12783          	lw	a5,12(sp)
83005db4:	00478713          	addi	a4,a5,4
83005db8:	00e12623          	sw	a4,12(sp)
83005dbc:	0007a783          	lw	a5,0(a5)
83005dc0:	fcdff06f          	j	83005d8c <_svfiprintf_r+0x4b0>
83005dc4:	00007797          	auipc	a5,0x7
83005dc8:	47478793          	addi	a5,a5,1140 # 8300d238 <__func__.0+0xc>
83005dcc:	00f12423          	sw	a5,8(sp)
83005dd0:	010af793          	andi	a5,s5,16
83005dd4:	02078c63          	beqz	a5,83005e0c <_svfiprintf_r+0x530>
83005dd8:	00c12783          	lw	a5,12(sp)
83005ddc:	00478693          	addi	a3,a5,4
83005de0:	00d12623          	sw	a3,12(sp)
83005de4:	0007a783          	lw	a5,0(a5)
83005de8:	001af693          	andi	a3,s5,1
83005dec:	04068863          	beqz	a3,83005e3c <_svfiprintf_r+0x560>
83005df0:	04078a63          	beqz	a5,83005e44 <_svfiprintf_r+0x568>
83005df4:	03000693          	li	a3,48
83005df8:	00d10823          	sb	a3,16(sp)
83005dfc:	00e108a3          	sb	a4,17(sp)
83005e00:	002aea93          	ori	s5,s5,2
83005e04:	00200713          	li	a4,2
83005e08:	e41ff06f          	j	83005c48 <_svfiprintf_r+0x36c>
83005e0c:	040af793          	andi	a5,s5,64
83005e10:	00078c63          	beqz	a5,83005e28 <_svfiprintf_r+0x54c>
83005e14:	00c12783          	lw	a5,12(sp)
83005e18:	00478693          	addi	a3,a5,4
83005e1c:	00d12623          	sw	a3,12(sp)
83005e20:	0007d783          	lhu	a5,0(a5)
83005e24:	fc5ff06f          	j	83005de8 <_svfiprintf_r+0x50c>
83005e28:	00c12783          	lw	a5,12(sp)
83005e2c:	00478693          	addi	a3,a5,4
83005e30:	00d12623          	sw	a3,12(sp)
83005e34:	0007a783          	lw	a5,0(a5)
83005e38:	fb1ff06f          	j	83005de8 <_svfiprintf_r+0x50c>
83005e3c:	00200713          	li	a4,2
83005e40:	e09ff06f          	j	83005c48 <_svfiprintf_r+0x36c>
83005e44:	00200713          	li	a4,2
83005e48:	e01ff06f          	j	83005c48 <_svfiprintf_r+0x36c>
83005e4c:	03c10493          	addi	s1,sp,60
83005e50:	0077f713          	andi	a4,a5,7
83005e54:	00048693          	mv	a3,s1
83005e58:	fff48493          	addi	s1,s1,-1
83005e5c:	03070713          	addi	a4,a4,48
83005e60:	00e48023          	sb	a4,0(s1)
83005e64:	0037d793          	srli	a5,a5,0x3
83005e68:	fe0794e3          	bnez	a5,83005e50 <_svfiprintf_r+0x574>
83005e6c:	001af793          	andi	a5,s5,1
83005e70:	08078063          	beqz	a5,83005ef0 <_svfiprintf_r+0x614>
83005e74:	03000793          	li	a5,48
83005e78:	06f70c63          	beq	a4,a5,83005ef0 <_svfiprintf_r+0x614>
83005e7c:	fef48fa3          	sb	a5,-1(s1)
83005e80:	ffe68493          	addi	s1,a3,-2
83005e84:	06c0006f          	j	83005ef0 <_svfiprintf_r+0x614>
83005e88:	00900713          	li	a4,9
83005e8c:	00f76a63          	bltu	a4,a5,83005ea0 <_svfiprintf_r+0x5c4>
83005e90:	03078793          	addi	a5,a5,48
83005e94:	02f10da3          	sb	a5,59(sp)
83005e98:	03b10493          	addi	s1,sp,59
83005e9c:	0540006f          	j	83005ef0 <_svfiprintf_r+0x614>
83005ea0:	03c10493          	addi	s1,sp,60
83005ea4:	00a00693          	li	a3,10
83005ea8:	02d7f733          	remu	a4,a5,a3
83005eac:	fff48493          	addi	s1,s1,-1
83005eb0:	03070713          	addi	a4,a4,48
83005eb4:	00e48023          	sb	a4,0(s1)
83005eb8:	00078613          	mv	a2,a5
83005ebc:	02d7d7b3          	divu	a5,a5,a3
83005ec0:	00900713          	li	a4,9
83005ec4:	fec760e3          	bltu	a4,a2,83005ea4 <_svfiprintf_r+0x5c8>
83005ec8:	0280006f          	j	83005ef0 <_svfiprintf_r+0x614>
83005ecc:	03c10493          	addi	s1,sp,60
83005ed0:	00f7f713          	andi	a4,a5,15
83005ed4:	fff48493          	addi	s1,s1,-1
83005ed8:	00812683          	lw	a3,8(sp)
83005edc:	00e68733          	add	a4,a3,a4
83005ee0:	00074703          	lbu	a4,0(a4)
83005ee4:	00e48023          	sb	a4,0(s1)
83005ee8:	0047d793          	srli	a5,a5,0x4
83005eec:	fe0792e3          	bnez	a5,83005ed0 <_svfiprintf_r+0x5f4>
83005ef0:	03c10b93          	addi	s7,sp,60
83005ef4:	409b8bb3          	sub	s7,s7,s1
83005ef8:	00040c93          	mv	s9,s0
83005efc:	01745463          	bge	s0,s7,83005f04 <_svfiprintf_r+0x628>
83005f00:	000b8c93          	mv	s9,s7
83005f04:	03f14783          	lbu	a5,63(sp)
83005f08:	00078463          	beqz	a5,83005f10 <_svfiprintf_r+0x634>
83005f0c:	001c8c93          	addi	s9,s9,1
83005f10:	002afd13          	andi	s10,s5,2
83005f14:	000d0463          	beqz	s10,83005f1c <_svfiprintf_r+0x640>
83005f18:	002c8c93          	addi	s9,s9,2
83005f1c:	084afd93          	andi	s11,s5,132
83005f20:	000d9663          	bnez	s11,83005f2c <_svfiprintf_r+0x650>
83005f24:	419b0c33          	sub	s8,s6,s9
83005f28:	0d804063          	bgtz	s8,83005fe8 <_svfiprintf_r+0x70c>
83005f2c:	03f14783          	lbu	a5,63(sp)
83005f30:	10079a63          	bnez	a5,83006044 <_svfiprintf_r+0x768>
83005f34:	120d1a63          	bnez	s10,83006068 <_svfiprintf_r+0x78c>
83005f38:	08000793          	li	a5,128
83005f3c:	14fd8863          	beq	s11,a5,8300608c <_svfiprintf_r+0x7b0>
83005f40:	41740433          	sub	s0,s0,s7
83005f44:	1a804a63          	bgtz	s0,830060f8 <_svfiprintf_r+0x81c>
83005f48:	000b8693          	mv	a3,s7
83005f4c:	00048613          	mv	a2,s1
83005f50:	00090593          	mv	a1,s2
83005f54:	00098513          	mv	a0,s3
83005f58:	fffff097          	auipc	ra,0xfffff
83005f5c:	604080e7          	jalr	1540(ra) # 8300555c <__ssputs_r>
83005f60:	fff00793          	li	a5,-1
83005f64:	1cf50063          	beq	a0,a5,83006124 <_svfiprintf_r+0x848>
83005f68:	004afa93          	andi	s5,s5,4
83005f6c:	000a8663          	beqz	s5,83005f78 <_svfiprintf_r+0x69c>
83005f70:	419b0433          	sub	s0,s6,s9
83005f74:	22804263          	bgtz	s0,83006198 <_svfiprintf_r+0x8bc>
83005f78:	019b5463          	bge	s6,s9,83005f80 <_svfiprintf_r+0x6a4>
83005f7c:	000c8b13          	mv	s6,s9
83005f80:	00412783          	lw	a5,4(sp)
83005f84:	016787b3          	add	a5,a5,s6
83005f88:	00f12223          	sw	a5,4(sp)
83005f8c:	000a0413          	mv	s0,s4
83005f90:	9f1ff06f          	j	83005980 <_svfiprintf_r+0xa4>
83005f94:	00071e63          	bnez	a4,83005fb0 <_svfiprintf_r+0x6d4>
83005f98:	001af793          	andi	a5,s5,1
83005f9c:	00078e63          	beqz	a5,83005fb8 <_svfiprintf_r+0x6dc>
83005fa0:	03000793          	li	a5,48
83005fa4:	02f10da3          	sb	a5,59(sp)
83005fa8:	03b10493          	addi	s1,sp,59
83005fac:	f45ff06f          	j	83005ef0 <_svfiprintf_r+0x614>
83005fb0:	03c10493          	addi	s1,sp,60
83005fb4:	f3dff06f          	j	83005ef0 <_svfiprintf_r+0x614>
83005fb8:	03c10493          	addi	s1,sp,60
83005fbc:	f35ff06f          	j	83005ef0 <_svfiprintf_r+0x614>
83005fc0:	16070263          	beqz	a4,83006124 <_svfiprintf_r+0x848>
83005fc4:	00e10a23          	sb	a4,20(sp)
83005fc8:	02010fa3          	sb	zero,63(sp)
83005fcc:	00100b93          	li	s7,1
83005fd0:	00000413          	li	s0,0
83005fd4:	01410493          	addi	s1,sp,20
83005fd8:	f21ff06f          	j	83005ef8 <_svfiprintf_r+0x61c>
83005fdc:	00040b93          	mv	s7,s0
83005fe0:	00000413          	li	s0,0
83005fe4:	f15ff06f          	j	83005ef8 <_svfiprintf_r+0x61c>
83005fe8:	01000793          	li	a5,16
83005fec:	0387d863          	bge	a5,s8,8300601c <_svfiprintf_r+0x740>
83005ff0:	01000693          	li	a3,16
83005ff4:	00008617          	auipc	a2,0x8
83005ff8:	b2c60613          	addi	a2,a2,-1236 # 8300db20 <blanks.1>
83005ffc:	00090593          	mv	a1,s2
83006000:	00098513          	mv	a0,s3
83006004:	fffff097          	auipc	ra,0xfffff
83006008:	558080e7          	jalr	1368(ra) # 8300555c <__ssputs_r>
8300600c:	fff00793          	li	a5,-1
83006010:	10f50a63          	beq	a0,a5,83006124 <_svfiprintf_r+0x848>
83006014:	ff0c0c13          	addi	s8,s8,-16
83006018:	fd1ff06f          	j	83005fe8 <_svfiprintf_r+0x70c>
8300601c:	000c0693          	mv	a3,s8
83006020:	00008617          	auipc	a2,0x8
83006024:	b0060613          	addi	a2,a2,-1280 # 8300db20 <blanks.1>
83006028:	00090593          	mv	a1,s2
8300602c:	00098513          	mv	a0,s3
83006030:	fffff097          	auipc	ra,0xfffff
83006034:	52c080e7          	jalr	1324(ra) # 8300555c <__ssputs_r>
83006038:	fff00793          	li	a5,-1
8300603c:	eef518e3          	bne	a0,a5,83005f2c <_svfiprintf_r+0x650>
83006040:	0e40006f          	j	83006124 <_svfiprintf_r+0x848>
83006044:	00100693          	li	a3,1
83006048:	03f10613          	addi	a2,sp,63
8300604c:	00090593          	mv	a1,s2
83006050:	00098513          	mv	a0,s3
83006054:	fffff097          	auipc	ra,0xfffff
83006058:	508080e7          	jalr	1288(ra) # 8300555c <__ssputs_r>
8300605c:	fff00793          	li	a5,-1
83006060:	ecf51ae3          	bne	a0,a5,83005f34 <_svfiprintf_r+0x658>
83006064:	0c00006f          	j	83006124 <_svfiprintf_r+0x848>
83006068:	00200693          	li	a3,2
8300606c:	01010613          	addi	a2,sp,16
83006070:	00090593          	mv	a1,s2
83006074:	00098513          	mv	a0,s3
83006078:	fffff097          	auipc	ra,0xfffff
8300607c:	4e4080e7          	jalr	1252(ra) # 8300555c <__ssputs_r>
83006080:	fff00793          	li	a5,-1
83006084:	eaf51ae3          	bne	a0,a5,83005f38 <_svfiprintf_r+0x65c>
83006088:	09c0006f          	j	83006124 <_svfiprintf_r+0x848>
8300608c:	419b0c33          	sub	s8,s6,s9
83006090:	eb8058e3          	blez	s8,83005f40 <_svfiprintf_r+0x664>
83006094:	0080006f          	j	8300609c <_svfiprintf_r+0x7c0>
83006098:	ff0c0c13          	addi	s8,s8,-16
8300609c:	01000793          	li	a5,16
830060a0:	0387d663          	bge	a5,s8,830060cc <_svfiprintf_r+0x7f0>
830060a4:	01000693          	li	a3,16
830060a8:	00008617          	auipc	a2,0x8
830060ac:	a8860613          	addi	a2,a2,-1400 # 8300db30 <zeroes.0>
830060b0:	00090593          	mv	a1,s2
830060b4:	00098513          	mv	a0,s3
830060b8:	fffff097          	auipc	ra,0xfffff
830060bc:	4a4080e7          	jalr	1188(ra) # 8300555c <__ssputs_r>
830060c0:	fff00793          	li	a5,-1
830060c4:	fcf51ae3          	bne	a0,a5,83006098 <_svfiprintf_r+0x7bc>
830060c8:	05c0006f          	j	83006124 <_svfiprintf_r+0x848>
830060cc:	000c0693          	mv	a3,s8
830060d0:	00008617          	auipc	a2,0x8
830060d4:	a6060613          	addi	a2,a2,-1440 # 8300db30 <zeroes.0>
830060d8:	00090593          	mv	a1,s2
830060dc:	00098513          	mv	a0,s3
830060e0:	fffff097          	auipc	ra,0xfffff
830060e4:	47c080e7          	jalr	1148(ra) # 8300555c <__ssputs_r>
830060e8:	fff00793          	li	a5,-1
830060ec:	e4f51ae3          	bne	a0,a5,83005f40 <_svfiprintf_r+0x664>
830060f0:	0340006f          	j	83006124 <_svfiprintf_r+0x848>
830060f4:	ff040413          	addi	s0,s0,-16
830060f8:	01000793          	li	a5,16
830060fc:	0687da63          	bge	a5,s0,83006170 <_svfiprintf_r+0x894>
83006100:	01000693          	li	a3,16
83006104:	00008617          	auipc	a2,0x8
83006108:	a2c60613          	addi	a2,a2,-1492 # 8300db30 <zeroes.0>
8300610c:	00090593          	mv	a1,s2
83006110:	00098513          	mv	a0,s3
83006114:	fffff097          	auipc	ra,0xfffff
83006118:	448080e7          	jalr	1096(ra) # 8300555c <__ssputs_r>
8300611c:	fff00793          	li	a5,-1
83006120:	fcf51ae3          	bne	a0,a5,830060f4 <_svfiprintf_r+0x818>
83006124:	00c95783          	lhu	a5,12(s2)
83006128:	0407f793          	andi	a5,a5,64
8300612c:	0c079463          	bnez	a5,830061f4 <_svfiprintf_r+0x918>
83006130:	00412503          	lw	a0,4(sp)
83006134:	07c12083          	lw	ra,124(sp)
83006138:	07812403          	lw	s0,120(sp)
8300613c:	07412483          	lw	s1,116(sp)
83006140:	07012903          	lw	s2,112(sp)
83006144:	06c12983          	lw	s3,108(sp)
83006148:	06812a03          	lw	s4,104(sp)
8300614c:	06412a83          	lw	s5,100(sp)
83006150:	06012b03          	lw	s6,96(sp)
83006154:	05c12b83          	lw	s7,92(sp)
83006158:	05812c03          	lw	s8,88(sp)
8300615c:	05412c83          	lw	s9,84(sp)
83006160:	05012d03          	lw	s10,80(sp)
83006164:	04c12d83          	lw	s11,76(sp)
83006168:	08010113          	addi	sp,sp,128
8300616c:	00008067          	ret
83006170:	00040693          	mv	a3,s0
83006174:	00008617          	auipc	a2,0x8
83006178:	9bc60613          	addi	a2,a2,-1604 # 8300db30 <zeroes.0>
8300617c:	00090593          	mv	a1,s2
83006180:	00098513          	mv	a0,s3
83006184:	fffff097          	auipc	ra,0xfffff
83006188:	3d8080e7          	jalr	984(ra) # 8300555c <__ssputs_r>
8300618c:	fff00793          	li	a5,-1
83006190:	daf51ce3          	bne	a0,a5,83005f48 <_svfiprintf_r+0x66c>
83006194:	f91ff06f          	j	83006124 <_svfiprintf_r+0x848>
83006198:	01000793          	li	a5,16
8300619c:	0287d863          	bge	a5,s0,830061cc <_svfiprintf_r+0x8f0>
830061a0:	01000693          	li	a3,16
830061a4:	00008617          	auipc	a2,0x8
830061a8:	97c60613          	addi	a2,a2,-1668 # 8300db20 <blanks.1>
830061ac:	00090593          	mv	a1,s2
830061b0:	00098513          	mv	a0,s3
830061b4:	fffff097          	auipc	ra,0xfffff
830061b8:	3a8080e7          	jalr	936(ra) # 8300555c <__ssputs_r>
830061bc:	fff00793          	li	a5,-1
830061c0:	f6f502e3          	beq	a0,a5,83006124 <_svfiprintf_r+0x848>
830061c4:	ff040413          	addi	s0,s0,-16
830061c8:	fd1ff06f          	j	83006198 <_svfiprintf_r+0x8bc>
830061cc:	00040693          	mv	a3,s0
830061d0:	00008617          	auipc	a2,0x8
830061d4:	95060613          	addi	a2,a2,-1712 # 8300db20 <blanks.1>
830061d8:	00090593          	mv	a1,s2
830061dc:	00098513          	mv	a0,s3
830061e0:	fffff097          	auipc	ra,0xfffff
830061e4:	37c080e7          	jalr	892(ra) # 8300555c <__ssputs_r>
830061e8:	fff00793          	li	a5,-1
830061ec:	d8f516e3          	bne	a0,a5,83005f78 <_svfiprintf_r+0x69c>
830061f0:	f35ff06f          	j	83006124 <_svfiprintf_r+0x848>
830061f4:	fff00793          	li	a5,-1
830061f8:	00f12223          	sw	a5,4(sp)
830061fc:	f35ff06f          	j	83006130 <_svfiprintf_r+0x854>

83006200 <_fopen_r>:
83006200:	fd010113          	addi	sp,sp,-48
83006204:	02112623          	sw	ra,44(sp)
83006208:	02812423          	sw	s0,40(sp)
8300620c:	02912223          	sw	s1,36(sp)
83006210:	03212023          	sw	s2,32(sp)
83006214:	01312e23          	sw	s3,28(sp)
83006218:	00050913          	mv	s2,a0
8300621c:	00058993          	mv	s3,a1
83006220:	00060593          	mv	a1,a2
83006224:	00c10613          	addi	a2,sp,12
83006228:	00004097          	auipc	ra,0x4
8300622c:	e0c080e7          	jalr	-500(ra) # 8300a034 <__sflags>
83006230:	0c050e63          	beqz	a0,8300630c <_fopen_r+0x10c>
83006234:	00050493          	mv	s1,a0
83006238:	00090513          	mv	a0,s2
8300623c:	ffffb097          	auipc	ra,0xffffb
83006240:	3ec080e7          	jalr	1004(ra) # 83001628 <__sfp>
83006244:	00050413          	mv	s0,a0
83006248:	06050663          	beqz	a0,830062b4 <_fopen_r+0xb4>
8300624c:	1b600693          	li	a3,438
83006250:	00c12603          	lw	a2,12(sp)
83006254:	00098593          	mv	a1,s3
83006258:	00090513          	mv	a0,s2
8300625c:	00000097          	auipc	ra,0x0
83006260:	440080e7          	jalr	1088(ra) # 8300669c <_open_r>
83006264:	06054863          	bltz	a0,830062d4 <_fopen_r+0xd4>
83006268:	00a41723          	sh	a0,14(s0)
8300626c:	01049493          	slli	s1,s1,0x10
83006270:	4104d493          	srai	s1,s1,0x10
83006274:	00941623          	sh	s1,12(s0)
83006278:	00842e23          	sw	s0,28(s0)
8300627c:	ffffc797          	auipc	a5,0xffffc
83006280:	cdc78793          	addi	a5,a5,-804 # 83001f58 <__sread>
83006284:	02f42023          	sw	a5,32(s0)
83006288:	ffffc797          	auipc	a5,0xffffc
8300628c:	d2c78793          	addi	a5,a5,-724 # 83001fb4 <__swrite>
83006290:	02f42223          	sw	a5,36(s0)
83006294:	ffffc797          	auipc	a5,0xffffc
83006298:	db478793          	addi	a5,a5,-588 # 83002048 <__sseek>
8300629c:	02f42423          	sw	a5,40(s0)
830062a0:	ffffc797          	auipc	a5,0xffffc
830062a4:	e0878793          	addi	a5,a5,-504 # 830020a8 <__sclose>
830062a8:	02f42623          	sw	a5,44(s0)
830062ac:	1004f493          	andi	s1,s1,256
830062b0:	04049063          	bnez	s1,830062f0 <_fopen_r+0xf0>
830062b4:	00040513          	mv	a0,s0
830062b8:	02c12083          	lw	ra,44(sp)
830062bc:	02812403          	lw	s0,40(sp)
830062c0:	02412483          	lw	s1,36(sp)
830062c4:	02012903          	lw	s2,32(sp)
830062c8:	01c12983          	lw	s3,28(sp)
830062cc:	03010113          	addi	sp,sp,48
830062d0:	00008067          	ret
830062d4:	ffffb097          	auipc	ra,0xffffb
830062d8:	454080e7          	jalr	1108(ra) # 83001728 <__sfp_lock_acquire>
830062dc:	00041623          	sh	zero,12(s0)
830062e0:	ffffb097          	auipc	ra,0xffffb
830062e4:	44c080e7          	jalr	1100(ra) # 8300172c <__sfp_lock_release>
830062e8:	00000413          	li	s0,0
830062ec:	fc9ff06f          	j	830062b4 <_fopen_r+0xb4>
830062f0:	00200693          	li	a3,2
830062f4:	00000613          	li	a2,0
830062f8:	00040593          	mv	a1,s0
830062fc:	00090513          	mv	a0,s2
83006300:	ffffb097          	auipc	ra,0xffffb
83006304:	490080e7          	jalr	1168(ra) # 83001790 <_fseek_r>
83006308:	fadff06f          	j	830062b4 <_fopen_r+0xb4>
8300630c:	00000413          	li	s0,0
83006310:	fa5ff06f          	j	830062b4 <_fopen_r+0xb4>

83006314 <fopen>:
83006314:	ff010113          	addi	sp,sp,-16
83006318:	00112623          	sw	ra,12(sp)
8300631c:	00058613          	mv	a2,a1
83006320:	00050593          	mv	a1,a0
83006324:	00009517          	auipc	a0,0x9
83006328:	75c52503          	lw	a0,1884(a0) # 8300fa80 <_impure_ptr>
8300632c:	00000097          	auipc	ra,0x0
83006330:	ed4080e7          	jalr	-300(ra) # 83006200 <_fopen_r>
83006334:	00c12083          	lw	ra,12(sp)
83006338:	01010113          	addi	sp,sp,16
8300633c:	00008067          	ret

83006340 <_close_r>:
83006340:	ff010113          	addi	sp,sp,-16
83006344:	00112623          	sw	ra,12(sp)
83006348:	00812423          	sw	s0,8(sp)
8300634c:	00050413          	mv	s0,a0
83006350:	00009797          	auipc	a5,0x9
83006354:	7407ac23          	sw	zero,1880(a5) # 8300faa8 <errno>
83006358:	00058513          	mv	a0,a1
8300635c:	00006097          	auipc	ra,0x6
83006360:	158080e7          	jalr	344(ra) # 8300c4b4 <_close>
83006364:	fff00793          	li	a5,-1
83006368:	00f50a63          	beq	a0,a5,8300637c <_close_r+0x3c>
8300636c:	00c12083          	lw	ra,12(sp)
83006370:	00812403          	lw	s0,8(sp)
83006374:	01010113          	addi	sp,sp,16
83006378:	00008067          	ret
8300637c:	00009797          	auipc	a5,0x9
83006380:	72c7a783          	lw	a5,1836(a5) # 8300faa8 <errno>
83006384:	fe0784e3          	beqz	a5,8300636c <_close_r+0x2c>
83006388:	00f42023          	sw	a5,0(s0)
8300638c:	fe1ff06f          	j	8300636c <_close_r+0x2c>

83006390 <_fstat_r>:
83006390:	ff010113          	addi	sp,sp,-16
83006394:	00112623          	sw	ra,12(sp)
83006398:	00812423          	sw	s0,8(sp)
8300639c:	00050413          	mv	s0,a0
830063a0:	00058513          	mv	a0,a1
830063a4:	00009797          	auipc	a5,0x9
830063a8:	7007a223          	sw	zero,1796(a5) # 8300faa8 <errno>
830063ac:	00060593          	mv	a1,a2
830063b0:	00006097          	auipc	ra,0x6
830063b4:	214080e7          	jalr	532(ra) # 8300c5c4 <_fstat>
830063b8:	fff00793          	li	a5,-1
830063bc:	00f50a63          	beq	a0,a5,830063d0 <_fstat_r+0x40>
830063c0:	00c12083          	lw	ra,12(sp)
830063c4:	00812403          	lw	s0,8(sp)
830063c8:	01010113          	addi	sp,sp,16
830063cc:	00008067          	ret
830063d0:	00009797          	auipc	a5,0x9
830063d4:	6d87a783          	lw	a5,1752(a5) # 8300faa8 <errno>
830063d8:	fe0784e3          	beqz	a5,830063c0 <_fstat_r+0x30>
830063dc:	00f42023          	sw	a5,0(s0)
830063e0:	fe1ff06f          	j	830063c0 <_fstat_r+0x30>

830063e4 <_write_r>:
830063e4:	ff010113          	addi	sp,sp,-16
830063e8:	00112623          	sw	ra,12(sp)
830063ec:	00812423          	sw	s0,8(sp)
830063f0:	00050413          	mv	s0,a0
830063f4:	00058513          	mv	a0,a1
830063f8:	00060593          	mv	a1,a2
830063fc:	00009797          	auipc	a5,0x9
83006400:	6a07a623          	sw	zero,1708(a5) # 8300faa8 <errno>
83006404:	00068613          	mv	a2,a3
83006408:	00006097          	auipc	ra,0x6
8300640c:	ffc080e7          	jalr	-4(ra) # 8300c404 <_write>
83006410:	fff00793          	li	a5,-1
83006414:	00f50a63          	beq	a0,a5,83006428 <_write_r+0x44>
83006418:	00c12083          	lw	ra,12(sp)
8300641c:	00812403          	lw	s0,8(sp)
83006420:	01010113          	addi	sp,sp,16
83006424:	00008067          	ret
83006428:	00009797          	auipc	a5,0x9
8300642c:	6807a783          	lw	a5,1664(a5) # 8300faa8 <errno>
83006430:	fe0784e3          	beqz	a5,83006418 <_write_r+0x34>
83006434:	00f42023          	sw	a5,0(s0)
83006438:	fe1ff06f          	j	83006418 <_write_r+0x34>

8300643c <_lseek_r>:
8300643c:	ff010113          	addi	sp,sp,-16
83006440:	00112623          	sw	ra,12(sp)
83006444:	00812423          	sw	s0,8(sp)
83006448:	00050413          	mv	s0,a0
8300644c:	00058513          	mv	a0,a1
83006450:	00060593          	mv	a1,a2
83006454:	00009797          	auipc	a5,0x9
83006458:	6407aa23          	sw	zero,1620(a5) # 8300faa8 <errno>
8300645c:	00068613          	mv	a2,a3
83006460:	00006097          	auipc	ra,0x6
83006464:	080080e7          	jalr	128(ra) # 8300c4e0 <_lseek>
83006468:	fff00793          	li	a5,-1
8300646c:	00f50a63          	beq	a0,a5,83006480 <_lseek_r+0x44>
83006470:	00c12083          	lw	ra,12(sp)
83006474:	00812403          	lw	s0,8(sp)
83006478:	01010113          	addi	sp,sp,16
8300647c:	00008067          	ret
83006480:	00009797          	auipc	a5,0x9
83006484:	6287a783          	lw	a5,1576(a5) # 8300faa8 <errno>
83006488:	fe0784e3          	beqz	a5,83006470 <_lseek_r+0x34>
8300648c:	00f42023          	sw	a5,0(s0)
83006490:	fe1ff06f          	j	83006470 <_lseek_r+0x34>

83006494 <_read_r>:
83006494:	ff010113          	addi	sp,sp,-16
83006498:	00112623          	sw	ra,12(sp)
8300649c:	00812423          	sw	s0,8(sp)
830064a0:	00050413          	mv	s0,a0
830064a4:	00058513          	mv	a0,a1
830064a8:	00060593          	mv	a1,a2
830064ac:	00009797          	auipc	a5,0x9
830064b0:	5e07ae23          	sw	zero,1532(a5) # 8300faa8 <errno>
830064b4:	00068613          	mv	a2,a3
830064b8:	00006097          	auipc	ra,0x6
830064bc:	fd0080e7          	jalr	-48(ra) # 8300c488 <_read>
830064c0:	fff00793          	li	a5,-1
830064c4:	00f50a63          	beq	a0,a5,830064d8 <_read_r+0x44>
830064c8:	00c12083          	lw	ra,12(sp)
830064cc:	00812403          	lw	s0,8(sp)
830064d0:	01010113          	addi	sp,sp,16
830064d4:	00008067          	ret
830064d8:	00009797          	auipc	a5,0x9
830064dc:	5d07a783          	lw	a5,1488(a5) # 8300faa8 <errno>
830064e0:	fe0784e3          	beqz	a5,830064c8 <_read_r+0x34>
830064e4:	00f42023          	sw	a5,0(s0)
830064e8:	fe1ff06f          	j	830064c8 <_read_r+0x34>

830064ec <_isatty_r>:
830064ec:	ff010113          	addi	sp,sp,-16
830064f0:	00112623          	sw	ra,12(sp)
830064f4:	00812423          	sw	s0,8(sp)
830064f8:	00050413          	mv	s0,a0
830064fc:	00009797          	auipc	a5,0x9
83006500:	5a07a623          	sw	zero,1452(a5) # 8300faa8 <errno>
83006504:	00058513          	mv	a0,a1
83006508:	00000097          	auipc	ra,0x0
8300650c:	48c080e7          	jalr	1164(ra) # 83006994 <_isatty>
83006510:	fff00793          	li	a5,-1
83006514:	00f50a63          	beq	a0,a5,83006528 <_isatty_r+0x3c>
83006518:	00c12083          	lw	ra,12(sp)
8300651c:	00812403          	lw	s0,8(sp)
83006520:	01010113          	addi	sp,sp,16
83006524:	00008067          	ret
83006528:	00009797          	auipc	a5,0x9
8300652c:	5807a783          	lw	a5,1408(a5) # 8300faa8 <errno>
83006530:	fe0784e3          	beqz	a5,83006518 <_isatty_r+0x2c>
83006534:	00f42023          	sw	a5,0(s0)
83006538:	fe1ff06f          	j	83006518 <_isatty_r+0x2c>

8300653c <cleanup_glue>:
8300653c:	ff010113          	addi	sp,sp,-16
83006540:	00112623          	sw	ra,12(sp)
83006544:	00812423          	sw	s0,8(sp)
83006548:	00912223          	sw	s1,4(sp)
8300654c:	00050493          	mv	s1,a0
83006550:	00058413          	mv	s0,a1
83006554:	0005a583          	lw	a1,0(a1)
83006558:	00058663          	beqz	a1,83006564 <cleanup_glue+0x28>
8300655c:	00000097          	auipc	ra,0x0
83006560:	fe0080e7          	jalr	-32(ra) # 8300653c <cleanup_glue>
83006564:	00040593          	mv	a1,s0
83006568:	00048513          	mv	a0,s1
8300656c:	00001097          	auipc	ra,0x1
83006570:	00c080e7          	jalr	12(ra) # 83007578 <_free_r>
83006574:	00c12083          	lw	ra,12(sp)
83006578:	00812403          	lw	s0,8(sp)
8300657c:	00412483          	lw	s1,4(sp)
83006580:	01010113          	addi	sp,sp,16
83006584:	00008067          	ret

83006588 <_reclaim_reent>:
83006588:	00009797          	auipc	a5,0x9
8300658c:	4f87a783          	lw	a5,1272(a5) # 8300fa80 <_impure_ptr>
83006590:	10a78463          	beq	a5,a0,83006698 <_reclaim_reent+0x110>
83006594:	ff010113          	addi	sp,sp,-16
83006598:	00112623          	sw	ra,12(sp)
8300659c:	00812423          	sw	s0,8(sp)
830065a0:	00912223          	sw	s1,4(sp)
830065a4:	01212023          	sw	s2,0(sp)
830065a8:	00050493          	mv	s1,a0
830065ac:	04c52783          	lw	a5,76(a0)
830065b0:	04078a63          	beqz	a5,83006604 <_reclaim_reent+0x7c>
830065b4:	00000913          	li	s2,0
830065b8:	0200006f          	j	830065d8 <_reclaim_reent+0x50>
830065bc:	0005a403          	lw	s0,0(a1)
830065c0:	00048513          	mv	a0,s1
830065c4:	00001097          	auipc	ra,0x1
830065c8:	fb4080e7          	jalr	-76(ra) # 83007578 <_free_r>
830065cc:	00040593          	mv	a1,s0
830065d0:	fe0596e3          	bnez	a1,830065bc <_reclaim_reent+0x34>
830065d4:	00190913          	addi	s2,s2,1
830065d8:	01f00793          	li	a5,31
830065dc:	0127ec63          	bltu	a5,s2,830065f4 <_reclaim_reent+0x6c>
830065e0:	04c4a783          	lw	a5,76(s1)
830065e4:	00291713          	slli	a4,s2,0x2
830065e8:	00e787b3          	add	a5,a5,a4
830065ec:	0007a583          	lw	a1,0(a5)
830065f0:	fe1ff06f          	j	830065d0 <_reclaim_reent+0x48>
830065f4:	04c4a583          	lw	a1,76(s1)
830065f8:	00048513          	mv	a0,s1
830065fc:	00001097          	auipc	ra,0x1
83006600:	f7c080e7          	jalr	-132(ra) # 83007578 <_free_r>
83006604:	0404a583          	lw	a1,64(s1)
83006608:	00058863          	beqz	a1,83006618 <_reclaim_reent+0x90>
8300660c:	00048513          	mv	a0,s1
83006610:	00001097          	auipc	ra,0x1
83006614:	f68080e7          	jalr	-152(ra) # 83007578 <_free_r>
83006618:	1484a583          	lw	a1,328(s1)
8300661c:	02058463          	beqz	a1,83006644 <_reclaim_reent+0xbc>
83006620:	14c48913          	addi	s2,s1,332
83006624:	01259e63          	bne	a1,s2,83006640 <_reclaim_reent+0xb8>
83006628:	01c0006f          	j	83006644 <_reclaim_reent+0xbc>
8300662c:	0005a403          	lw	s0,0(a1)
83006630:	00048513          	mv	a0,s1
83006634:	00001097          	auipc	ra,0x1
83006638:	f44080e7          	jalr	-188(ra) # 83007578 <_free_r>
8300663c:	00040593          	mv	a1,s0
83006640:	feb916e3          	bne	s2,a1,8300662c <_reclaim_reent+0xa4>
83006644:	0544a583          	lw	a1,84(s1)
83006648:	00058863          	beqz	a1,83006658 <_reclaim_reent+0xd0>
8300664c:	00048513          	mv	a0,s1
83006650:	00001097          	auipc	ra,0x1
83006654:	f28080e7          	jalr	-216(ra) # 83007578 <_free_r>
83006658:	0384a783          	lw	a5,56(s1)
8300665c:	02078263          	beqz	a5,83006680 <_reclaim_reent+0xf8>
83006660:	03c4a783          	lw	a5,60(s1)
83006664:	00048513          	mv	a0,s1
83006668:	000780e7          	jalr	a5
8300666c:	2e04a583          	lw	a1,736(s1)
83006670:	00058863          	beqz	a1,83006680 <_reclaim_reent+0xf8>
83006674:	00048513          	mv	a0,s1
83006678:	00000097          	auipc	ra,0x0
8300667c:	ec4080e7          	jalr	-316(ra) # 8300653c <cleanup_glue>
83006680:	00c12083          	lw	ra,12(sp)
83006684:	00812403          	lw	s0,8(sp)
83006688:	00412483          	lw	s1,4(sp)
8300668c:	00012903          	lw	s2,0(sp)
83006690:	01010113          	addi	sp,sp,16
83006694:	00008067          	ret
83006698:	00008067          	ret

8300669c <_open_r>:
8300669c:	ff010113          	addi	sp,sp,-16
830066a0:	00112623          	sw	ra,12(sp)
830066a4:	00812423          	sw	s0,8(sp)
830066a8:	00050413          	mv	s0,a0
830066ac:	00058513          	mv	a0,a1
830066b0:	00060593          	mv	a1,a2
830066b4:	00009797          	auipc	a5,0x9
830066b8:	3e07aa23          	sw	zero,1012(a5) # 8300faa8 <errno>
830066bc:	00068613          	mv	a2,a3
830066c0:	00006097          	auipc	ra,0x6
830066c4:	d18080e7          	jalr	-744(ra) # 8300c3d8 <_open>
830066c8:	fff00793          	li	a5,-1
830066cc:	00f50a63          	beq	a0,a5,830066e0 <_open_r+0x44>
830066d0:	00c12083          	lw	ra,12(sp)
830066d4:	00812403          	lw	s0,8(sp)
830066d8:	01010113          	addi	sp,sp,16
830066dc:	00008067          	ret
830066e0:	00009797          	auipc	a5,0x9
830066e4:	3c87a783          	lw	a5,968(a5) # 8300faa8 <errno>
830066e8:	fe0784e3          	beqz	a5,830066d0 <_open_r+0x34>
830066ec:	00f42023          	sw	a5,0(s0)
830066f0:	fe1ff06f          	j	830066d0 <_open_r+0x34>

830066f4 <_execve_r>:
830066f4:	ff010113          	addi	sp,sp,-16
830066f8:	00112623          	sw	ra,12(sp)
830066fc:	00812423          	sw	s0,8(sp)
83006700:	00050413          	mv	s0,a0
83006704:	00058513          	mv	a0,a1
83006708:	00060593          	mv	a1,a2
8300670c:	00009797          	auipc	a5,0x9
83006710:	3807ae23          	sw	zero,924(a5) # 8300faa8 <errno>
83006714:	00068613          	mv	a2,a3
83006718:	00006097          	auipc	ra,0x6
8300671c:	e20080e7          	jalr	-480(ra) # 8300c538 <_execve>
83006720:	fff00793          	li	a5,-1
83006724:	00f50a63          	beq	a0,a5,83006738 <_execve_r+0x44>
83006728:	00c12083          	lw	ra,12(sp)
8300672c:	00812403          	lw	s0,8(sp)
83006730:	01010113          	addi	sp,sp,16
83006734:	00008067          	ret
83006738:	00009797          	auipc	a5,0x9
8300673c:	3707a783          	lw	a5,880(a5) # 8300faa8 <errno>
83006740:	fe0784e3          	beqz	a5,83006728 <_execve_r+0x34>
83006744:	00f42023          	sw	a5,0(s0)
83006748:	fe1ff06f          	j	83006728 <_execve_r+0x34>

8300674c <_fork_r>:
8300674c:	ff010113          	addi	sp,sp,-16
83006750:	00112623          	sw	ra,12(sp)
83006754:	00812423          	sw	s0,8(sp)
83006758:	00050413          	mv	s0,a0
8300675c:	00009797          	auipc	a5,0x9
83006760:	3407a623          	sw	zero,844(a5) # 8300faa8 <errno>
83006764:	00006097          	auipc	ra,0x6
83006768:	ebc080e7          	jalr	-324(ra) # 8300c620 <_fork>
8300676c:	fff00793          	li	a5,-1
83006770:	00f50a63          	beq	a0,a5,83006784 <_fork_r+0x38>
83006774:	00c12083          	lw	ra,12(sp)
83006778:	00812403          	lw	s0,8(sp)
8300677c:	01010113          	addi	sp,sp,16
83006780:	00008067          	ret
83006784:	00009797          	auipc	a5,0x9
83006788:	3247a783          	lw	a5,804(a5) # 8300faa8 <errno>
8300678c:	fe0784e3          	beqz	a5,83006774 <_fork_r+0x28>
83006790:	00f42023          	sw	a5,0(s0)
83006794:	fe1ff06f          	j	83006774 <_fork_r+0x28>

83006798 <_wait_r>:
83006798:	ff010113          	addi	sp,sp,-16
8300679c:	00112623          	sw	ra,12(sp)
830067a0:	00812423          	sw	s0,8(sp)
830067a4:	00050413          	mv	s0,a0
830067a8:	00009797          	auipc	a5,0x9
830067ac:	3007a023          	sw	zero,768(a5) # 8300faa8 <errno>
830067b0:	00058513          	mv	a0,a1
830067b4:	00006097          	auipc	ra,0x6
830067b8:	f1c080e7          	jalr	-228(ra) # 8300c6d0 <_wait>
830067bc:	fff00793          	li	a5,-1
830067c0:	00f50a63          	beq	a0,a5,830067d4 <_wait_r+0x3c>
830067c4:	00c12083          	lw	ra,12(sp)
830067c8:	00812403          	lw	s0,8(sp)
830067cc:	01010113          	addi	sp,sp,16
830067d0:	00008067          	ret
830067d4:	00009797          	auipc	a5,0x9
830067d8:	2d47a783          	lw	a5,724(a5) # 8300faa8 <errno>
830067dc:	fe0784e3          	beqz	a5,830067c4 <_wait_r+0x2c>
830067e0:	00f42023          	sw	a5,0(s0)
830067e4:	fe1ff06f          	j	830067c4 <_wait_r+0x2c>

830067e8 <__cxa_pure_virtual>:
830067e8:	ff010113          	addi	sp,sp,-16
830067ec:	00112623          	sw	ra,12(sp)
830067f0:	00007697          	auipc	a3,0x7
830067f4:	35068693          	addi	a3,a3,848 # 8300db40 <zeroes.0+0x10>
830067f8:	00007617          	auipc	a2,0x7
830067fc:	34c60613          	addi	a2,a2,844 # 8300db44 <zeroes.0+0x14>
83006800:	00900593          	li	a1,9
83006804:	00007517          	auipc	a0,0x7
83006808:	35c50513          	addi	a0,a0,860 # 8300db60 <zeroes.0+0x30>
8300680c:	00001097          	auipc	ra,0x1
83006810:	040080e7          	jalr	64(ra) # 8300784c <__assert_func>

83006814 <_Znwj>:
83006814:	ff010113          	addi	sp,sp,-16
83006818:	00112623          	sw	ra,12(sp)
8300681c:	00001097          	auipc	ra,0x1
83006820:	aa8080e7          	jalr	-1368(ra) # 830072c4 <malloc>
83006824:	00c12083          	lw	ra,12(sp)
83006828:	01010113          	addi	sp,sp,16
8300682c:	00008067          	ret

83006830 <_Znaj>:
83006830:	ff010113          	addi	sp,sp,-16
83006834:	00112623          	sw	ra,12(sp)
83006838:	00001097          	auipc	ra,0x1
8300683c:	a8c080e7          	jalr	-1396(ra) # 830072c4 <malloc>
83006840:	00c12083          	lw	ra,12(sp)
83006844:	01010113          	addi	sp,sp,16
83006848:	00008067          	ret

8300684c <_ZdlPv>:
8300684c:	ff010113          	addi	sp,sp,-16
83006850:	00112623          	sw	ra,12(sp)
83006854:	00001097          	auipc	ra,0x1
83006858:	a98080e7          	jalr	-1384(ra) # 830072ec <free>
8300685c:	00c12083          	lw	ra,12(sp)
83006860:	01010113          	addi	sp,sp,16
83006864:	00008067          	ret

83006868 <_ZdaPv>:
83006868:	ff010113          	addi	sp,sp,-16
8300686c:	00112623          	sw	ra,12(sp)
83006870:	00001097          	auipc	ra,0x1
83006874:	a7c080e7          	jalr	-1412(ra) # 830072ec <free>
83006878:	00c12083          	lw	ra,12(sp)
8300687c:	01010113          	addi	sp,sp,16
83006880:	00008067          	ret

83006884 <_ZdlPvj>:
83006884:	ff010113          	addi	sp,sp,-16
83006888:	00112623          	sw	ra,12(sp)
8300688c:	00001097          	auipc	ra,0x1
83006890:	a60080e7          	jalr	-1440(ra) # 830072ec <free>
83006894:	00c12083          	lw	ra,12(sp)
83006898:	01010113          	addi	sp,sp,16
8300689c:	00008067          	ret

830068a0 <_ZdaPvj>:
830068a0:	ff010113          	addi	sp,sp,-16
830068a4:	00112623          	sw	ra,12(sp)
830068a8:	00001097          	auipc	ra,0x1
830068ac:	a44080e7          	jalr	-1468(ra) # 830072ec <free>
830068b0:	00c12083          	lw	ra,12(sp)
830068b4:	01010113          	addi	sp,sp,16
830068b8:	00008067          	ret

830068bc <_setlocale_r>:
830068bc:	08060663          	beqz	a2,83006948 <_setlocale_r+0x8c>
830068c0:	ff010113          	addi	sp,sp,-16
830068c4:	00112623          	sw	ra,12(sp)
830068c8:	00812423          	sw	s0,8(sp)
830068cc:	00060413          	mv	s0,a2
830068d0:	00007597          	auipc	a1,0x7
830068d4:	2e058593          	addi	a1,a1,736 # 8300dbb0 <zeroes.0+0x80>
830068d8:	00060513          	mv	a0,a2
830068dc:	ffffa097          	auipc	ra,0xffffa
830068e0:	6ec080e7          	jalr	1772(ra) # 83000fc8 <strcmp>
830068e4:	00051e63          	bnez	a0,83006900 <_setlocale_r+0x44>
830068e8:	00007517          	auipc	a0,0x7
830068ec:	2c450513          	addi	a0,a0,708 # 8300dbac <zeroes.0+0x7c>
830068f0:	00c12083          	lw	ra,12(sp)
830068f4:	00812403          	lw	s0,8(sp)
830068f8:	01010113          	addi	sp,sp,16
830068fc:	00008067          	ret
83006900:	00007597          	auipc	a1,0x7
83006904:	2ac58593          	addi	a1,a1,684 # 8300dbac <zeroes.0+0x7c>
83006908:	00040513          	mv	a0,s0
8300690c:	ffffa097          	auipc	ra,0xffffa
83006910:	6bc080e7          	jalr	1724(ra) # 83000fc8 <strcmp>
83006914:	00051863          	bnez	a0,83006924 <_setlocale_r+0x68>
83006918:	00007517          	auipc	a0,0x7
8300691c:	29450513          	addi	a0,a0,660 # 8300dbac <zeroes.0+0x7c>
83006920:	fd1ff06f          	j	830068f0 <_setlocale_r+0x34>
83006924:	00006597          	auipc	a1,0x6
83006928:	33c58593          	addi	a1,a1,828 # 8300cc60 <__call_exitprocs+0x17c>
8300692c:	00040513          	mv	a0,s0
83006930:	ffffa097          	auipc	ra,0xffffa
83006934:	698080e7          	jalr	1688(ra) # 83000fc8 <strcmp>
83006938:	00051e63          	bnez	a0,83006954 <_setlocale_r+0x98>
8300693c:	00007517          	auipc	a0,0x7
83006940:	27050513          	addi	a0,a0,624 # 8300dbac <zeroes.0+0x7c>
83006944:	fadff06f          	j	830068f0 <_setlocale_r+0x34>
83006948:	00007517          	auipc	a0,0x7
8300694c:	26450513          	addi	a0,a0,612 # 8300dbac <zeroes.0+0x7c>
83006950:	00008067          	ret
83006954:	00000513          	li	a0,0
83006958:	f99ff06f          	j	830068f0 <_setlocale_r+0x34>

8300695c <__locale_mb_cur_max>:
8300695c:	00009517          	auipc	a0,0x9
83006960:	c7c54503          	lbu	a0,-900(a0) # 8300f5d8 <__global_locale+0x128>
83006964:	00008067          	ret

83006968 <setlocale>:
83006968:	ff010113          	addi	sp,sp,-16
8300696c:	00112623          	sw	ra,12(sp)
83006970:	00058613          	mv	a2,a1
83006974:	00050593          	mv	a1,a0
83006978:	00009517          	auipc	a0,0x9
8300697c:	10852503          	lw	a0,264(a0) # 8300fa80 <_impure_ptr>
83006980:	00000097          	auipc	ra,0x0
83006984:	f3c080e7          	jalr	-196(ra) # 830068bc <_setlocale_r>
83006988:	00c12083          	lw	ra,12(sp)
8300698c:	01010113          	addi	sp,sp,16
83006990:	00008067          	ret

83006994 <_isatty>:
83006994:	fb010113          	addi	sp,sp,-80
83006998:	04112623          	sw	ra,76(sp)
8300699c:	00410593          	addi	a1,sp,4
830069a0:	00002097          	auipc	ra,0x2
830069a4:	9f8080e7          	jalr	-1544(ra) # 83008398 <fstat>
830069a8:	02054c63          	bltz	a0,830069e0 <_isatty+0x4c>
830069ac:	00812783          	lw	a5,8(sp)
830069b0:	0000f737          	lui	a4,0xf
830069b4:	00e7f7b3          	and	a5,a5,a4
830069b8:	00002737          	lui	a4,0x2
830069bc:	02e78e63          	beq	a5,a4,830069f8 <_isatty+0x64>
830069c0:	00004097          	auipc	ra,0x4
830069c4:	aa0080e7          	jalr	-1376(ra) # 8300a460 <__errno>
830069c8:	01900793          	li	a5,25
830069cc:	00f52023          	sw	a5,0(a0)
830069d0:	00000513          	li	a0,0
830069d4:	04c12083          	lw	ra,76(sp)
830069d8:	05010113          	addi	sp,sp,80
830069dc:	00008067          	ret
830069e0:	00004097          	auipc	ra,0x4
830069e4:	a80080e7          	jalr	-1408(ra) # 8300a460 <__errno>
830069e8:	00900793          	li	a5,9
830069ec:	00f52023          	sw	a5,0(a0)
830069f0:	00000513          	li	a0,0
830069f4:	fe1ff06f          	j	830069d4 <_isatty+0x40>
830069f8:	00100513          	li	a0,1
830069fc:	fd9ff06f          	j	830069d4 <_isatty+0x40>

83006a00 <_strtol_l>:
83006a00:	ff010113          	addi	sp,sp,-16
83006a04:	00112623          	sw	ra,12(sp)
83006a08:	00812423          	sw	s0,8(sp)
83006a0c:	0806ca63          	bltz	a3,83006aa0 <_strtol_l+0xa0>
83006a10:	00100793          	li	a5,1
83006a14:	08f68663          	beq	a3,a5,83006aa0 <_strtol_l+0xa0>
83006a18:	02400793          	li	a5,36
83006a1c:	08d7c263          	blt	a5,a3,83006aa0 <_strtol_l+0xa0>
83006a20:	00058813          	mv	a6,a1
83006a24:	00080893          	mv	a7,a6
83006a28:	00180813          	addi	a6,a6,1
83006a2c:	0008c783          	lbu	a5,0(a7)
83006a30:	00007717          	auipc	a4,0x7
83006a34:	1cd70713          	addi	a4,a4,461 # 8300dbfd <_ctype_+0x1>
83006a38:	00e78733          	add	a4,a5,a4
83006a3c:	00074703          	lbu	a4,0(a4)
83006a40:	00877713          	andi	a4,a4,8
83006a44:	fe0710e3          	bnez	a4,83006a24 <_strtol_l+0x24>
83006a48:	02d00713          	li	a4,45
83006a4c:	06e78c63          	beq	a5,a4,83006ac4 <_strtol_l+0xc4>
83006a50:	02b00713          	li	a4,43
83006a54:	08e78063          	beq	a5,a4,83006ad4 <_strtol_l+0xd4>
83006a58:	00000393          	li	t2,0
83006a5c:	00068663          	beqz	a3,83006a68 <_strtol_l+0x68>
83006a60:	01000713          	li	a4,16
83006a64:	00e69663          	bne	a3,a4,83006a70 <_strtol_l+0x70>
83006a68:	03000713          	li	a4,48
83006a6c:	06e78c63          	beq	a5,a4,83006ae4 <_strtol_l+0xe4>
83006a70:	00069863          	bnez	a3,83006a80 <_strtol_l+0x80>
83006a74:	03000713          	li	a4,48
83006a78:	08e78863          	beq	a5,a4,83006b08 <_strtol_l+0x108>
83006a7c:	00a00693          	li	a3,10
83006a80:	08038863          	beqz	t2,83006b10 <_strtol_l+0x110>
83006a84:	80000fb7          	lui	t6,0x80000
83006a88:	00068293          	mv	t0,a3
83006a8c:	02dff433          	remu	s0,t6,a3
83006a90:	02dfdf33          	divu	t5,t6,a3
83006a94:	00000313          	li	t1,0
83006a98:	00000893          	li	a7,0
83006a9c:	0c00006f          	j	83006b5c <_strtol_l+0x15c>
83006aa0:	00004097          	auipc	ra,0x4
83006aa4:	9c0080e7          	jalr	-1600(ra) # 8300a460 <__errno>
83006aa8:	01600793          	li	a5,22
83006aac:	00f52023          	sw	a5,0(a0)
83006ab0:	00000513          	li	a0,0
83006ab4:	00c12083          	lw	ra,12(sp)
83006ab8:	00812403          	lw	s0,8(sp)
83006abc:	01010113          	addi	sp,sp,16
83006ac0:	00008067          	ret
83006ac4:	00084783          	lbu	a5,0(a6)
83006ac8:	00288813          	addi	a6,a7,2
83006acc:	00100393          	li	t2,1
83006ad0:	f8dff06f          	j	83006a5c <_strtol_l+0x5c>
83006ad4:	00084783          	lbu	a5,0(a6)
83006ad8:	00288813          	addi	a6,a7,2
83006adc:	00000393          	li	t2,0
83006ae0:	f7dff06f          	j	83006a5c <_strtol_l+0x5c>
83006ae4:	00084703          	lbu	a4,0(a6)
83006ae8:	07800893          	li	a7,120
83006aec:	01170663          	beq	a4,a7,83006af8 <_strtol_l+0xf8>
83006af0:	05800893          	li	a7,88
83006af4:	f7171ee3          	bne	a4,a7,83006a70 <_strtol_l+0x70>
83006af8:	00184783          	lbu	a5,1(a6)
83006afc:	00280813          	addi	a6,a6,2
83006b00:	01000693          	li	a3,16
83006b04:	f6dff06f          	j	83006a70 <_strtol_l+0x70>
83006b08:	00800693          	li	a3,8
83006b0c:	f75ff06f          	j	83006a80 <_strtol_l+0x80>
83006b10:	80000fb7          	lui	t6,0x80000
83006b14:	ffffcf93          	not	t6,t6
83006b18:	f71ff06f          	j	83006a88 <_strtol_l+0x88>
83006b1c:	fbf78713          	addi	a4,a5,-65
83006b20:	01900e13          	li	t3,25
83006b24:	00ee6663          	bltu	t3,a4,83006b30 <_strtol_l+0x130>
83006b28:	fc978793          	addi	a5,a5,-55
83006b2c:	0400006f          	j	83006b6c <_strtol_l+0x16c>
83006b30:	f9f78e93          	addi	t4,a5,-97
83006b34:	01900713          	li	a4,25
83006b38:	05d76e63          	bltu	a4,t4,83006b94 <_strtol_l+0x194>
83006b3c:	fa978793          	addi	a5,a5,-87
83006b40:	02c0006f          	j	83006b6c <_strtol_l+0x16c>
83006b44:	02f45c63          	bge	s0,a5,83006b7c <_strtol_l+0x17c>
83006b48:	fff00313          	li	t1,-1
83006b4c:	0080006f          	j	83006b54 <_strtol_l+0x154>
83006b50:	fff00313          	li	t1,-1
83006b54:	00084783          	lbu	a5,0(a6)
83006b58:	00180813          	addi	a6,a6,1
83006b5c:	fd078713          	addi	a4,a5,-48
83006b60:	00900e13          	li	t3,9
83006b64:	faee6ce3          	bltu	t3,a4,83006b1c <_strtol_l+0x11c>
83006b68:	00070793          	mv	a5,a4
83006b6c:	02d7d463          	bge	a5,a3,83006b94 <_strtol_l+0x194>
83006b70:	fe0340e3          	bltz	t1,83006b50 <_strtol_l+0x150>
83006b74:	011f6c63          	bltu	t5,a7,83006b8c <_strtol_l+0x18c>
83006b78:	fde886e3          	beq	a7,t5,83006b44 <_strtol_l+0x144>
83006b7c:	031288b3          	mul	a7,t0,a7
83006b80:	011788b3          	add	a7,a5,a7
83006b84:	00100313          	li	t1,1
83006b88:	fcdff06f          	j	83006b54 <_strtol_l+0x154>
83006b8c:	fff00313          	li	t1,-1
83006b90:	fc5ff06f          	j	83006b54 <_strtol_l+0x154>
83006b94:	00034863          	bltz	t1,83006ba4 <_strtol_l+0x1a4>
83006b98:	00038c63          	beqz	t2,83006bb0 <_strtol_l+0x1b0>
83006b9c:	411008b3          	neg	a7,a7
83006ba0:	0100006f          	j	83006bb0 <_strtol_l+0x1b0>
83006ba4:	02200793          	li	a5,34
83006ba8:	00f52023          	sw	a5,0(a0)
83006bac:	000f8893          	mv	a7,t6
83006bb0:	00060863          	beqz	a2,83006bc0 <_strtol_l+0x1c0>
83006bb4:	00030463          	beqz	t1,83006bbc <_strtol_l+0x1bc>
83006bb8:	fff80593          	addi	a1,a6,-1
83006bbc:	00b62023          	sw	a1,0(a2)
83006bc0:	00088513          	mv	a0,a7
83006bc4:	ef1ff06f          	j	83006ab4 <_strtol_l+0xb4>

83006bc8 <_strtol_r>:
83006bc8:	ff010113          	addi	sp,sp,-16
83006bcc:	00112623          	sw	ra,12(sp)
83006bd0:	00009717          	auipc	a4,0x9
83006bd4:	8e070713          	addi	a4,a4,-1824 # 8300f4b0 <__global_locale>
83006bd8:	00000097          	auipc	ra,0x0
83006bdc:	e28080e7          	jalr	-472(ra) # 83006a00 <_strtol_l>
83006be0:	00c12083          	lw	ra,12(sp)
83006be4:	01010113          	addi	sp,sp,16
83006be8:	00008067          	ret

83006bec <strtol_l>:
83006bec:	ff010113          	addi	sp,sp,-16
83006bf0:	00112623          	sw	ra,12(sp)
83006bf4:	00068713          	mv	a4,a3
83006bf8:	00060693          	mv	a3,a2
83006bfc:	00058613          	mv	a2,a1
83006c00:	00050593          	mv	a1,a0
83006c04:	00009517          	auipc	a0,0x9
83006c08:	e7c52503          	lw	a0,-388(a0) # 8300fa80 <_impure_ptr>
83006c0c:	00000097          	auipc	ra,0x0
83006c10:	df4080e7          	jalr	-524(ra) # 83006a00 <_strtol_l>
83006c14:	00c12083          	lw	ra,12(sp)
83006c18:	01010113          	addi	sp,sp,16
83006c1c:	00008067          	ret

83006c20 <strtol>:
83006c20:	ff010113          	addi	sp,sp,-16
83006c24:	00112623          	sw	ra,12(sp)
83006c28:	00060693          	mv	a3,a2
83006c2c:	00009717          	auipc	a4,0x9
83006c30:	88470713          	addi	a4,a4,-1916 # 8300f4b0 <__global_locale>
83006c34:	00058613          	mv	a2,a1
83006c38:	00050593          	mv	a1,a0
83006c3c:	00009517          	auipc	a0,0x9
83006c40:	e4452503          	lw	a0,-444(a0) # 8300fa80 <_impure_ptr>
83006c44:	00000097          	auipc	ra,0x0
83006c48:	dbc080e7          	jalr	-580(ra) # 83006a00 <_strtol_l>
83006c4c:	00c12083          	lw	ra,12(sp)
83006c50:	01010113          	addi	sp,sp,16
83006c54:	00008067          	ret

83006c58 <_mbtowc_r>:
83006c58:	ff010113          	addi	sp,sp,-16
83006c5c:	00112623          	sw	ra,12(sp)
83006c60:	00009797          	auipc	a5,0x9
83006c64:	9347a783          	lw	a5,-1740(a5) # 8300f594 <__global_locale+0xe4>
83006c68:	000780e7          	jalr	a5
83006c6c:	00c12083          	lw	ra,12(sp)
83006c70:	01010113          	addi	sp,sp,16
83006c74:	00008067          	ret

83006c78 <__ascii_mbtowc>:
83006c78:	02058263          	beqz	a1,83006c9c <__ascii_mbtowc+0x24>
83006c7c:	06060263          	beqz	a2,83006ce0 <__ascii_mbtowc+0x68>
83006c80:	06068463          	beqz	a3,83006ce8 <__ascii_mbtowc+0x70>
83006c84:	00064783          	lbu	a5,0(a2)
83006c88:	00f5a023          	sw	a5,0(a1)
83006c8c:	00064783          	lbu	a5,0(a2)
83006c90:	06078063          	beqz	a5,83006cf0 <__ascii_mbtowc+0x78>
83006c94:	00100513          	li	a0,1
83006c98:	00008067          	ret
83006c9c:	ff010113          	addi	sp,sp,-16
83006ca0:	00c10593          	addi	a1,sp,12
83006ca4:	02060263          	beqz	a2,83006cc8 <__ascii_mbtowc+0x50>
83006ca8:	02068463          	beqz	a3,83006cd0 <__ascii_mbtowc+0x58>
83006cac:	00064783          	lbu	a5,0(a2)
83006cb0:	00f5a023          	sw	a5,0(a1)
83006cb4:	00064783          	lbu	a5,0(a2)
83006cb8:	02078063          	beqz	a5,83006cd8 <__ascii_mbtowc+0x60>
83006cbc:	00100513          	li	a0,1
83006cc0:	01010113          	addi	sp,sp,16
83006cc4:	00008067          	ret
83006cc8:	00000513          	li	a0,0
83006ccc:	ff5ff06f          	j	83006cc0 <__ascii_mbtowc+0x48>
83006cd0:	ffe00513          	li	a0,-2
83006cd4:	fedff06f          	j	83006cc0 <__ascii_mbtowc+0x48>
83006cd8:	00000513          	li	a0,0
83006cdc:	fe5ff06f          	j	83006cc0 <__ascii_mbtowc+0x48>
83006ce0:	00000513          	li	a0,0
83006ce4:	00008067          	ret
83006ce8:	ffe00513          	li	a0,-2
83006cec:	00008067          	ret
83006cf0:	00000513          	li	a0,0
83006cf4:	00008067          	ret

83006cf8 <_realloc_r>:
83006cf8:	fd010113          	addi	sp,sp,-48
83006cfc:	02112623          	sw	ra,44(sp)
83006d00:	02812423          	sw	s0,40(sp)
83006d04:	02912223          	sw	s1,36(sp)
83006d08:	03212023          	sw	s2,32(sp)
83006d0c:	01312e23          	sw	s3,28(sp)
83006d10:	01412c23          	sw	s4,24(sp)
83006d14:	01512a23          	sw	s5,20(sp)
83006d18:	01612823          	sw	s6,16(sp)
83006d1c:	01712623          	sw	s7,12(sp)
83006d20:	00050a13          	mv	s4,a0
83006d24:	00060913          	mv	s2,a2
83006d28:	02058863          	beqz	a1,83006d58 <_realloc_r+0x60>
83006d2c:	00058413          	mv	s0,a1
83006d30:	00003097          	auipc	ra,0x3
83006d34:	73c080e7          	jalr	1852(ra) # 8300a46c <__malloc_lock>
83006d38:	ff840a93          	addi	s5,s0,-8
83006d3c:	ffc42783          	lw	a5,-4(s0)
83006d40:	ffc7f993          	andi	s3,a5,-4
83006d44:	00b90493          	addi	s1,s2,11
83006d48:	01600713          	li	a4,22
83006d4c:	02977063          	bgeu	a4,s1,83006d6c <_realloc_r+0x74>
83006d50:	ff84f493          	andi	s1,s1,-8
83006d54:	01c0006f          	j	83006d70 <_realloc_r+0x78>
83006d58:	00060593          	mv	a1,a2
83006d5c:	00001097          	auipc	ra,0x1
83006d60:	de0080e7          	jalr	-544(ra) # 83007b3c <_malloc_r>
83006d64:	00050913          	mv	s2,a0
83006d68:	49c0006f          	j	83007204 <_realloc_r+0x50c>
83006d6c:	01000493          	li	s1,16
83006d70:	00048693          	mv	a3,s1
83006d74:	0604c063          	bltz	s1,83006dd4 <_realloc_r+0xdc>
83006d78:	0524ee63          	bltu	s1,s2,83006dd4 <_realloc_r+0xdc>
83006d7c:	4499d663          	bge	s3,s1,830071c8 <_realloc_r+0x4d0>
83006d80:	013a8733          	add	a4,s5,s3
83006d84:	00009597          	auipc	a1,0x9
83006d88:	8a05a583          	lw	a1,-1888(a1) # 8300f624 <__malloc_av_+0x8>
83006d8c:	00e58e63          	beq	a1,a4,83006da8 <_realloc_r+0xb0>
83006d90:	00472603          	lw	a2,4(a4)
83006d94:	ffe67613          	andi	a2,a2,-2
83006d98:	00c70633          	add	a2,a4,a2
83006d9c:	00462603          	lw	a2,4(a2)
83006da0:	00167613          	andi	a2,a2,1
83006da4:	08061463          	bnez	a2,83006e2c <_realloc_r+0x134>
83006da8:	00472603          	lw	a2,4(a4)
83006dac:	ffc67613          	andi	a2,a2,-4
83006db0:	02e58a63          	beq	a1,a4,83006de4 <_realloc_r+0xec>
83006db4:	00c98533          	add	a0,s3,a2
83006db8:	06d54e63          	blt	a0,a3,83006e34 <_realloc_r+0x13c>
83006dbc:	00c72783          	lw	a5,12(a4)
83006dc0:	00872703          	lw	a4,8(a4)
83006dc4:	00f72623          	sw	a5,12(a4)
83006dc8:	00e7a423          	sw	a4,8(a5)
83006dcc:	00050993          	mv	s3,a0
83006dd0:	3f80006f          	j	830071c8 <_realloc_r+0x4d0>
83006dd4:	00c00793          	li	a5,12
83006dd8:	00fa2023          	sw	a5,0(s4)
83006ddc:	00000913          	li	s2,0
83006de0:	4240006f          	j	83007204 <_realloc_r+0x50c>
83006de4:	00c98533          	add	a0,s3,a2
83006de8:	01048813          	addi	a6,s1,16
83006dec:	05054463          	blt	a0,a6,83006e34 <_realloc_r+0x13c>
83006df0:	009a8ab3          	add	s5,s5,s1
83006df4:	00009797          	auipc	a5,0x9
83006df8:	8357a823          	sw	s5,-2000(a5) # 8300f624 <__malloc_av_+0x8>
83006dfc:	409507b3          	sub	a5,a0,s1
83006e00:	0017e793          	ori	a5,a5,1
83006e04:	00faa223          	sw	a5,4(s5)
83006e08:	ffc42783          	lw	a5,-4(s0)
83006e0c:	0017f793          	andi	a5,a5,1
83006e10:	0097e7b3          	or	a5,a5,s1
83006e14:	fef42e23          	sw	a5,-4(s0)
83006e18:	000a0513          	mv	a0,s4
83006e1c:	00003097          	auipc	ra,0x3
83006e20:	654080e7          	jalr	1620(ra) # 8300a470 <__malloc_unlock>
83006e24:	00040913          	mv	s2,s0
83006e28:	3dc0006f          	j	83007204 <_realloc_r+0x50c>
83006e2c:	00000613          	li	a2,0
83006e30:	00000713          	li	a4,0
83006e34:	0017f793          	andi	a5,a5,1
83006e38:	02079a63          	bnez	a5,83006e6c <_realloc_r+0x174>
83006e3c:	ff842b83          	lw	s7,-8(s0)
83006e40:	417a8bb3          	sub	s7,s5,s7
83006e44:	004ba783          	lw	a5,4(s7)
83006e48:	ffc7f793          	andi	a5,a5,-4
83006e4c:	00070a63          	beqz	a4,83006e60 <_realloc_r+0x168>
83006e50:	0ae58c63          	beq	a1,a4,83006f08 <_realloc_r+0x210>
83006e54:	00f60633          	add	a2,a2,a5
83006e58:	01360b33          	add	s6,a2,s3
83006e5c:	1adb5c63          	bge	s6,a3,83007014 <_realloc_r+0x31c>
83006e60:	000b8663          	beqz	s7,83006e6c <_realloc_r+0x174>
83006e64:	00f98b33          	add	s6,s3,a5
83006e68:	28db5063          	bge	s6,a3,830070e8 <_realloc_r+0x3f0>
83006e6c:	00090593          	mv	a1,s2
83006e70:	000a0513          	mv	a0,s4
83006e74:	00001097          	auipc	ra,0x1
83006e78:	cc8080e7          	jalr	-824(ra) # 83007b3c <_malloc_r>
83006e7c:	00050913          	mv	s2,a0
83006e80:	32050663          	beqz	a0,830071ac <_realloc_r+0x4b4>
83006e84:	ff850713          	addi	a4,a0,-8
83006e88:	ffc42783          	lw	a5,-4(s0)
83006e8c:	ffe7f793          	andi	a5,a5,-2
83006e90:	00fa87b3          	add	a5,s5,a5
83006e94:	32e78463          	beq	a5,a4,830071bc <_realloc_r+0x4c4>
83006e98:	ffc98613          	addi	a2,s3,-4
83006e9c:	02400793          	li	a5,36
83006ea0:	3cc7ea63          	bltu	a5,a2,83007274 <_realloc_r+0x57c>
83006ea4:	01300793          	li	a5,19
83006ea8:	38c7f663          	bgeu	a5,a2,83007234 <_realloc_r+0x53c>
83006eac:	00042783          	lw	a5,0(s0)
83006eb0:	00f52023          	sw	a5,0(a0)
83006eb4:	00840713          	addi	a4,s0,8
83006eb8:	00850793          	addi	a5,a0,8
83006ebc:	00442683          	lw	a3,4(s0)
83006ec0:	00d52223          	sw	a3,4(a0)
83006ec4:	01b00693          	li	a3,27
83006ec8:	36c6fa63          	bgeu	a3,a2,8300723c <_realloc_r+0x544>
83006ecc:	00842783          	lw	a5,8(s0)
83006ed0:	00f52423          	sw	a5,8(a0)
83006ed4:	01040713          	addi	a4,s0,16
83006ed8:	01050793          	addi	a5,a0,16
83006edc:	00c42683          	lw	a3,12(s0)
83006ee0:	00d52623          	sw	a3,12(a0)
83006ee4:	02300693          	li	a3,35
83006ee8:	34c6fa63          	bgeu	a3,a2,8300723c <_realloc_r+0x544>
83006eec:	01042783          	lw	a5,16(s0)
83006ef0:	00f52823          	sw	a5,16(a0)
83006ef4:	01840713          	addi	a4,s0,24
83006ef8:	01850793          	addi	a5,a0,24
83006efc:	01442683          	lw	a3,20(s0)
83006f00:	00d52a23          	sw	a3,20(a0)
83006f04:	3380006f          	j	8300723c <_realloc_r+0x544>
83006f08:	00f60633          	add	a2,a2,a5
83006f0c:	01360b33          	add	s6,a2,s3
83006f10:	01048713          	addi	a4,s1,16
83006f14:	f4eb46e3          	blt	s6,a4,83006e60 <_realloc_r+0x168>
83006f18:	00cba783          	lw	a5,12(s7)
83006f1c:	008ba703          	lw	a4,8(s7)
83006f20:	00f72623          	sw	a5,12(a4)
83006f24:	00e7a423          	sw	a4,8(a5)
83006f28:	008b8913          	addi	s2,s7,8
83006f2c:	ffc98613          	addi	a2,s3,-4
83006f30:	02400793          	li	a5,36
83006f34:	0cc7e663          	bltu	a5,a2,83007000 <_realloc_r+0x308>
83006f38:	01300793          	li	a5,19
83006f3c:	06c7f063          	bgeu	a5,a2,83006f9c <_realloc_r+0x2a4>
83006f40:	00042783          	lw	a5,0(s0)
83006f44:	00fba423          	sw	a5,8(s7)
83006f48:	00840693          	addi	a3,s0,8
83006f4c:	010b8793          	addi	a5,s7,16
83006f50:	00442703          	lw	a4,4(s0)
83006f54:	00eba623          	sw	a4,12(s7)
83006f58:	01b00713          	li	a4,27
83006f5c:	08c77a63          	bgeu	a4,a2,83006ff0 <_realloc_r+0x2f8>
83006f60:	00842783          	lw	a5,8(s0)
83006f64:	00fba823          	sw	a5,16(s7)
83006f68:	01040713          	addi	a4,s0,16
83006f6c:	018b8793          	addi	a5,s7,24
83006f70:	00c42683          	lw	a3,12(s0)
83006f74:	00dbaa23          	sw	a3,20(s7)
83006f78:	02300693          	li	a3,35
83006f7c:	06c6fe63          	bgeu	a3,a2,83006ff8 <_realloc_r+0x300>
83006f80:	01042783          	lw	a5,16(s0)
83006f84:	00fbac23          	sw	a5,24(s7)
83006f88:	020b8793          	addi	a5,s7,32
83006f8c:	01442703          	lw	a4,20(s0)
83006f90:	00ebae23          	sw	a4,28(s7)
83006f94:	01840413          	addi	s0,s0,24
83006f98:	0080006f          	j	83006fa0 <_realloc_r+0x2a8>
83006f9c:	00090793          	mv	a5,s2
83006fa0:	00042703          	lw	a4,0(s0)
83006fa4:	00e7a023          	sw	a4,0(a5)
83006fa8:	00442703          	lw	a4,4(s0)
83006fac:	00e7a223          	sw	a4,4(a5)
83006fb0:	00842703          	lw	a4,8(s0)
83006fb4:	00e7a423          	sw	a4,8(a5)
83006fb8:	009b8733          	add	a4,s7,s1
83006fbc:	00008797          	auipc	a5,0x8
83006fc0:	66e7a423          	sw	a4,1640(a5) # 8300f624 <__malloc_av_+0x8>
83006fc4:	409b07b3          	sub	a5,s6,s1
83006fc8:	0017e793          	ori	a5,a5,1
83006fcc:	00f72223          	sw	a5,4(a4)
83006fd0:	004ba783          	lw	a5,4(s7)
83006fd4:	0017f793          	andi	a5,a5,1
83006fd8:	0097e7b3          	or	a5,a5,s1
83006fdc:	00fba223          	sw	a5,4(s7)
83006fe0:	000a0513          	mv	a0,s4
83006fe4:	00003097          	auipc	ra,0x3
83006fe8:	48c080e7          	jalr	1164(ra) # 8300a470 <__malloc_unlock>
83006fec:	2180006f          	j	83007204 <_realloc_r+0x50c>
83006ff0:	00068413          	mv	s0,a3
83006ff4:	fadff06f          	j	83006fa0 <_realloc_r+0x2a8>
83006ff8:	00070413          	mv	s0,a4
83006ffc:	fa5ff06f          	j	83006fa0 <_realloc_r+0x2a8>
83007000:	00040593          	mv	a1,s0
83007004:	00090513          	mv	a0,s2
83007008:	00001097          	auipc	ra,0x1
8300700c:	3dc080e7          	jalr	988(ra) # 830083e4 <memmove>
83007010:	fa9ff06f          	j	83006fb8 <_realloc_r+0x2c0>
83007014:	00c72783          	lw	a5,12(a4)
83007018:	00872703          	lw	a4,8(a4)
8300701c:	00f72623          	sw	a5,12(a4)
83007020:	00e7a423          	sw	a4,8(a5)
83007024:	00cba783          	lw	a5,12(s7)
83007028:	008ba703          	lw	a4,8(s7)
8300702c:	00f72623          	sw	a5,12(a4)
83007030:	00e7a423          	sw	a4,8(a5)
83007034:	008b8513          	addi	a0,s7,8
83007038:	ffc98613          	addi	a2,s3,-4
8300703c:	02400793          	li	a5,36
83007040:	08c7ec63          	bltu	a5,a2,830070d8 <_realloc_r+0x3e0>
83007044:	01300793          	li	a5,19
83007048:	06c7f263          	bgeu	a5,a2,830070ac <_realloc_r+0x3b4>
8300704c:	00042783          	lw	a5,0(s0)
83007050:	00fba423          	sw	a5,8(s7)
83007054:	00840713          	addi	a4,s0,8
83007058:	010b8513          	addi	a0,s7,16
8300705c:	00442783          	lw	a5,4(s0)
83007060:	00fba623          	sw	a5,12(s7)
83007064:	01b00793          	li	a5,27
83007068:	04c7f063          	bgeu	a5,a2,830070a8 <_realloc_r+0x3b0>
8300706c:	00842783          	lw	a5,8(s0)
83007070:	00fba823          	sw	a5,16(s7)
83007074:	01040713          	addi	a4,s0,16
83007078:	018b8513          	addi	a0,s7,24
8300707c:	00c42783          	lw	a5,12(s0)
83007080:	00fbaa23          	sw	a5,20(s7)
83007084:	02300793          	li	a5,35
83007088:	04c7f463          	bgeu	a5,a2,830070d0 <_realloc_r+0x3d8>
8300708c:	01042783          	lw	a5,16(s0)
83007090:	00fbac23          	sw	a5,24(s7)
83007094:	020b8513          	addi	a0,s7,32
83007098:	01442783          	lw	a5,20(s0)
8300709c:	00fbae23          	sw	a5,28(s7)
830070a0:	01840413          	addi	s0,s0,24
830070a4:	0080006f          	j	830070ac <_realloc_r+0x3b4>
830070a8:	00070413          	mv	s0,a4
830070ac:	00042783          	lw	a5,0(s0)
830070b0:	00f52023          	sw	a5,0(a0)
830070b4:	00442783          	lw	a5,4(s0)
830070b8:	00f52223          	sw	a5,4(a0)
830070bc:	00842783          	lw	a5,8(s0)
830070c0:	00f52423          	sw	a5,8(a0)
830070c4:	000b0993          	mv	s3,s6
830070c8:	000b8a93          	mv	s5,s7
830070cc:	0fc0006f          	j	830071c8 <_realloc_r+0x4d0>
830070d0:	00070413          	mv	s0,a4
830070d4:	fd9ff06f          	j	830070ac <_realloc_r+0x3b4>
830070d8:	00040593          	mv	a1,s0
830070dc:	00001097          	auipc	ra,0x1
830070e0:	308080e7          	jalr	776(ra) # 830083e4 <memmove>
830070e4:	fe1ff06f          	j	830070c4 <_realloc_r+0x3cc>
830070e8:	00cba783          	lw	a5,12(s7)
830070ec:	008ba703          	lw	a4,8(s7)
830070f0:	00f72623          	sw	a5,12(a4)
830070f4:	00e7a423          	sw	a4,8(a5)
830070f8:	008b8513          	addi	a0,s7,8
830070fc:	ffc98613          	addi	a2,s3,-4
83007100:	02400793          	li	a5,36
83007104:	08c7ec63          	bltu	a5,a2,8300719c <_realloc_r+0x4a4>
83007108:	01300793          	li	a5,19
8300710c:	06c7f263          	bgeu	a5,a2,83007170 <_realloc_r+0x478>
83007110:	00042783          	lw	a5,0(s0)
83007114:	00fba423          	sw	a5,8(s7)
83007118:	00840713          	addi	a4,s0,8
8300711c:	010b8513          	addi	a0,s7,16
83007120:	00442783          	lw	a5,4(s0)
83007124:	00fba623          	sw	a5,12(s7)
83007128:	01b00793          	li	a5,27
8300712c:	04c7f063          	bgeu	a5,a2,8300716c <_realloc_r+0x474>
83007130:	00842783          	lw	a5,8(s0)
83007134:	00fba823          	sw	a5,16(s7)
83007138:	01040713          	addi	a4,s0,16
8300713c:	018b8513          	addi	a0,s7,24
83007140:	00c42783          	lw	a5,12(s0)
83007144:	00fbaa23          	sw	a5,20(s7)
83007148:	02300793          	li	a5,35
8300714c:	04c7f463          	bgeu	a5,a2,83007194 <_realloc_r+0x49c>
83007150:	01042783          	lw	a5,16(s0)
83007154:	00fbac23          	sw	a5,24(s7)
83007158:	020b8513          	addi	a0,s7,32
8300715c:	01442783          	lw	a5,20(s0)
83007160:	00fbae23          	sw	a5,28(s7)
83007164:	01840413          	addi	s0,s0,24
83007168:	0080006f          	j	83007170 <_realloc_r+0x478>
8300716c:	00070413          	mv	s0,a4
83007170:	00042783          	lw	a5,0(s0)
83007174:	00f52023          	sw	a5,0(a0)
83007178:	00442783          	lw	a5,4(s0)
8300717c:	00f52223          	sw	a5,4(a0)
83007180:	00842783          	lw	a5,8(s0)
83007184:	00f52423          	sw	a5,8(a0)
83007188:	000b0993          	mv	s3,s6
8300718c:	000b8a93          	mv	s5,s7
83007190:	0380006f          	j	830071c8 <_realloc_r+0x4d0>
83007194:	00070413          	mv	s0,a4
83007198:	fd9ff06f          	j	83007170 <_realloc_r+0x478>
8300719c:	00040593          	mv	a1,s0
830071a0:	00001097          	auipc	ra,0x1
830071a4:	244080e7          	jalr	580(ra) # 830083e4 <memmove>
830071a8:	fe1ff06f          	j	83007188 <_realloc_r+0x490>
830071ac:	000a0513          	mv	a0,s4
830071b0:	00003097          	auipc	ra,0x3
830071b4:	2c0080e7          	jalr	704(ra) # 8300a470 <__malloc_unlock>
830071b8:	04c0006f          	j	83007204 <_realloc_r+0x50c>
830071bc:	ffc52783          	lw	a5,-4(a0)
830071c0:	ffc7f793          	andi	a5,a5,-4
830071c4:	00f989b3          	add	s3,s3,a5
830071c8:	409987b3          	sub	a5,s3,s1
830071cc:	00f00713          	li	a4,15
830071d0:	0af76a63          	bltu	a4,a5,83007284 <_realloc_r+0x58c>
830071d4:	004aa783          	lw	a5,4(s5)
830071d8:	0017f793          	andi	a5,a5,1
830071dc:	0137e7b3          	or	a5,a5,s3
830071e0:	00faa223          	sw	a5,4(s5)
830071e4:	013a87b3          	add	a5,s5,s3
830071e8:	0047a703          	lw	a4,4(a5)
830071ec:	00176713          	ori	a4,a4,1
830071f0:	00e7a223          	sw	a4,4(a5)
830071f4:	000a0513          	mv	a0,s4
830071f8:	00003097          	auipc	ra,0x3
830071fc:	278080e7          	jalr	632(ra) # 8300a470 <__malloc_unlock>
83007200:	008a8913          	addi	s2,s5,8
83007204:	00090513          	mv	a0,s2
83007208:	02c12083          	lw	ra,44(sp)
8300720c:	02812403          	lw	s0,40(sp)
83007210:	02412483          	lw	s1,36(sp)
83007214:	02012903          	lw	s2,32(sp)
83007218:	01c12983          	lw	s3,28(sp)
8300721c:	01812a03          	lw	s4,24(sp)
83007220:	01412a83          	lw	s5,20(sp)
83007224:	01012b03          	lw	s6,16(sp)
83007228:	00c12b83          	lw	s7,12(sp)
8300722c:	03010113          	addi	sp,sp,48
83007230:	00008067          	ret
83007234:	00050793          	mv	a5,a0
83007238:	00040713          	mv	a4,s0
8300723c:	00072683          	lw	a3,0(a4)
83007240:	00d7a023          	sw	a3,0(a5)
83007244:	00472683          	lw	a3,4(a4)
83007248:	00d7a223          	sw	a3,4(a5)
8300724c:	00872703          	lw	a4,8(a4)
83007250:	00e7a423          	sw	a4,8(a5)
83007254:	00040593          	mv	a1,s0
83007258:	000a0513          	mv	a0,s4
8300725c:	00000097          	auipc	ra,0x0
83007260:	31c080e7          	jalr	796(ra) # 83007578 <_free_r>
83007264:	000a0513          	mv	a0,s4
83007268:	00003097          	auipc	ra,0x3
8300726c:	208080e7          	jalr	520(ra) # 8300a470 <__malloc_unlock>
83007270:	f95ff06f          	j	83007204 <_realloc_r+0x50c>
83007274:	00040593          	mv	a1,s0
83007278:	00001097          	auipc	ra,0x1
8300727c:	16c080e7          	jalr	364(ra) # 830083e4 <memmove>
83007280:	fd5ff06f          	j	83007254 <_realloc_r+0x55c>
83007284:	009a85b3          	add	a1,s5,s1
83007288:	004aa703          	lw	a4,4(s5)
8300728c:	00177713          	andi	a4,a4,1
83007290:	00976733          	or	a4,a4,s1
83007294:	00eaa223          	sw	a4,4(s5)
83007298:	0017e793          	ori	a5,a5,1
8300729c:	00f5a223          	sw	a5,4(a1)
830072a0:	013a87b3          	add	a5,s5,s3
830072a4:	0047a703          	lw	a4,4(a5)
830072a8:	00176713          	ori	a4,a4,1
830072ac:	00e7a223          	sw	a4,4(a5)
830072b0:	00858593          	addi	a1,a1,8
830072b4:	000a0513          	mv	a0,s4
830072b8:	00000097          	auipc	ra,0x0
830072bc:	2c0080e7          	jalr	704(ra) # 83007578 <_free_r>
830072c0:	f35ff06f          	j	830071f4 <_realloc_r+0x4fc>

830072c4 <malloc>:
830072c4:	ff010113          	addi	sp,sp,-16
830072c8:	00112623          	sw	ra,12(sp)
830072cc:	00050593          	mv	a1,a0
830072d0:	00008517          	auipc	a0,0x8
830072d4:	7b052503          	lw	a0,1968(a0) # 8300fa80 <_impure_ptr>
830072d8:	00001097          	auipc	ra,0x1
830072dc:	864080e7          	jalr	-1948(ra) # 83007b3c <_malloc_r>
830072e0:	00c12083          	lw	ra,12(sp)
830072e4:	01010113          	addi	sp,sp,16
830072e8:	00008067          	ret

830072ec <free>:
830072ec:	ff010113          	addi	sp,sp,-16
830072f0:	00112623          	sw	ra,12(sp)
830072f4:	00050593          	mv	a1,a0
830072f8:	00008517          	auipc	a0,0x8
830072fc:	78852503          	lw	a0,1928(a0) # 8300fa80 <_impure_ptr>
83007300:	00000097          	auipc	ra,0x0
83007304:	278080e7          	jalr	632(ra) # 83007578 <_free_r>
83007308:	00c12083          	lw	ra,12(sp)
8300730c:	01010113          	addi	sp,sp,16
83007310:	00008067          	ret

83007314 <_mbrtowc_r>:
83007314:	ff010113          	addi	sp,sp,-16
83007318:	00112623          	sw	ra,12(sp)
8300731c:	00812423          	sw	s0,8(sp)
83007320:	00912223          	sw	s1,4(sp)
83007324:	00050413          	mv	s0,a0
83007328:	00070493          	mv	s1,a4
8300732c:	02060663          	beqz	a2,83007358 <_mbrtowc_r+0x44>
83007330:	00008797          	auipc	a5,0x8
83007334:	2647a783          	lw	a5,612(a5) # 8300f594 <__global_locale+0xe4>
83007338:	000780e7          	jalr	a5
8300733c:	fff00793          	li	a5,-1
83007340:	02f50c63          	beq	a0,a5,83007378 <_mbrtowc_r+0x64>
83007344:	00c12083          	lw	ra,12(sp)
83007348:	00812403          	lw	s0,8(sp)
8300734c:	00412483          	lw	s1,4(sp)
83007350:	01010113          	addi	sp,sp,16
83007354:	00008067          	ret
83007358:	00100693          	li	a3,1
8300735c:	00006617          	auipc	a2,0x6
83007360:	90460613          	addi	a2,a2,-1788 # 8300cc60 <__call_exitprocs+0x17c>
83007364:	00000593          	li	a1,0
83007368:	00008797          	auipc	a5,0x8
8300736c:	22c7a783          	lw	a5,556(a5) # 8300f594 <__global_locale+0xe4>
83007370:	000780e7          	jalr	a5
83007374:	fc9ff06f          	j	8300733c <_mbrtowc_r+0x28>
83007378:	0004a023          	sw	zero,0(s1)
8300737c:	08a00793          	li	a5,138
83007380:	00f42023          	sw	a5,0(s0)
83007384:	fff00513          	li	a0,-1
83007388:	fbdff06f          	j	83007344 <_mbrtowc_r+0x30>

8300738c <mbrtowc>:
8300738c:	ff010113          	addi	sp,sp,-16
83007390:	00112623          	sw	ra,12(sp)
83007394:	00812423          	sw	s0,8(sp)
83007398:	00912223          	sw	s1,4(sp)
8300739c:	00068413          	mv	s0,a3
830073a0:	00008497          	auipc	s1,0x8
830073a4:	6e04a483          	lw	s1,1760(s1) # 8300fa80 <_impure_ptr>
830073a8:	04058063          	beqz	a1,830073e8 <mbrtowc+0x5c>
830073ac:	00068713          	mv	a4,a3
830073b0:	00060693          	mv	a3,a2
830073b4:	00058613          	mv	a2,a1
830073b8:	00050593          	mv	a1,a0
830073bc:	00048513          	mv	a0,s1
830073c0:	00008797          	auipc	a5,0x8
830073c4:	1d47a783          	lw	a5,468(a5) # 8300f594 <__global_locale+0xe4>
830073c8:	000780e7          	jalr	a5
830073cc:	fff00793          	li	a5,-1
830073d0:	02f50e63          	beq	a0,a5,8300740c <mbrtowc+0x80>
830073d4:	00c12083          	lw	ra,12(sp)
830073d8:	00812403          	lw	s0,8(sp)
830073dc:	00412483          	lw	s1,4(sp)
830073e0:	01010113          	addi	sp,sp,16
830073e4:	00008067          	ret
830073e8:	00068713          	mv	a4,a3
830073ec:	00100693          	li	a3,1
830073f0:	00006617          	auipc	a2,0x6
830073f4:	87060613          	addi	a2,a2,-1936 # 8300cc60 <__call_exitprocs+0x17c>
830073f8:	00048513          	mv	a0,s1
830073fc:	00008797          	auipc	a5,0x8
83007400:	1987a783          	lw	a5,408(a5) # 8300f594 <__global_locale+0xe4>
83007404:	000780e7          	jalr	a5
83007408:	fc5ff06f          	j	830073cc <mbrtowc+0x40>
8300740c:	00042023          	sw	zero,0(s0)
83007410:	08a00793          	li	a5,138
83007414:	00f4a023          	sw	a5,0(s1)
83007418:	fff00513          	li	a0,-1
8300741c:	fb9ff06f          	j	830073d4 <mbrtowc+0x48>

83007420 <_malloc_trim_r>:
83007420:	ff010113          	addi	sp,sp,-16
83007424:	00112623          	sw	ra,12(sp)
83007428:	00812423          	sw	s0,8(sp)
8300742c:	00912223          	sw	s1,4(sp)
83007430:	01212023          	sw	s2,0(sp)
83007434:	00050913          	mv	s2,a0
83007438:	00058413          	mv	s0,a1
8300743c:	00003097          	auipc	ra,0x3
83007440:	030080e7          	jalr	48(ra) # 8300a46c <__malloc_lock>
83007444:	00008797          	auipc	a5,0x8
83007448:	1e07a783          	lw	a5,480(a5) # 8300f624 <__malloc_av_+0x8>
8300744c:	0047a483          	lw	s1,4(a5)
83007450:	ffc4f493          	andi	s1,s1,-4
83007454:	40848433          	sub	s0,s1,s0
83007458:	000017b7          	lui	a5,0x1
8300745c:	fef78713          	addi	a4,a5,-17 # fef <_ZL9set_i_maxv-0x82fff0c5>
83007460:	00e40433          	add	s0,s0,a4
83007464:	00c45413          	srli	s0,s0,0xc
83007468:	fff40413          	addi	s0,s0,-1
8300746c:	00c41413          	slli	s0,s0,0xc
83007470:	04f44663          	blt	s0,a5,830074bc <_malloc_trim_r+0x9c>
83007474:	00000593          	li	a1,0
83007478:	00090513          	mv	a0,s2
8300747c:	00003097          	auipc	ra,0x3
83007480:	f94080e7          	jalr	-108(ra) # 8300a410 <_sbrk_r>
83007484:	00008797          	auipc	a5,0x8
83007488:	1a07a783          	lw	a5,416(a5) # 8300f624 <__malloc_av_+0x8>
8300748c:	009787b3          	add	a5,a5,s1
83007490:	04a78063          	beq	a5,a0,830074d0 <_malloc_trim_r+0xb0>
83007494:	00090513          	mv	a0,s2
83007498:	00003097          	auipc	ra,0x3
8300749c:	fd8080e7          	jalr	-40(ra) # 8300a470 <__malloc_unlock>
830074a0:	00000513          	li	a0,0
830074a4:	00c12083          	lw	ra,12(sp)
830074a8:	00812403          	lw	s0,8(sp)
830074ac:	00412483          	lw	s1,4(sp)
830074b0:	00012903          	lw	s2,0(sp)
830074b4:	01010113          	addi	sp,sp,16
830074b8:	00008067          	ret
830074bc:	00090513          	mv	a0,s2
830074c0:	00003097          	auipc	ra,0x3
830074c4:	fb0080e7          	jalr	-80(ra) # 8300a470 <__malloc_unlock>
830074c8:	00000513          	li	a0,0
830074cc:	fd9ff06f          	j	830074a4 <_malloc_trim_r+0x84>
830074d0:	408005b3          	neg	a1,s0
830074d4:	00090513          	mv	a0,s2
830074d8:	00003097          	auipc	ra,0x3
830074dc:	f38080e7          	jalr	-200(ra) # 8300a410 <_sbrk_r>
830074e0:	fff00793          	li	a5,-1
830074e4:	04f50063          	beq	a0,a5,83007524 <_malloc_trim_r+0x104>
830074e8:	408484b3          	sub	s1,s1,s0
830074ec:	0014e493          	ori	s1,s1,1
830074f0:	00008797          	auipc	a5,0x8
830074f4:	1347a783          	lw	a5,308(a5) # 8300f624 <__malloc_av_+0x8>
830074f8:	0097a223          	sw	s1,4(a5)
830074fc:	00008717          	auipc	a4,0x8
83007500:	5e470713          	addi	a4,a4,1508 # 8300fae0 <__malloc_current_mallinfo>
83007504:	00072783          	lw	a5,0(a4)
83007508:	408787b3          	sub	a5,a5,s0
8300750c:	00f72023          	sw	a5,0(a4)
83007510:	00090513          	mv	a0,s2
83007514:	00003097          	auipc	ra,0x3
83007518:	f5c080e7          	jalr	-164(ra) # 8300a470 <__malloc_unlock>
8300751c:	00100513          	li	a0,1
83007520:	f85ff06f          	j	830074a4 <_malloc_trim_r+0x84>
83007524:	00000593          	li	a1,0
83007528:	00090513          	mv	a0,s2
8300752c:	00003097          	auipc	ra,0x3
83007530:	ee4080e7          	jalr	-284(ra) # 8300a410 <_sbrk_r>
83007534:	00008717          	auipc	a4,0x8
83007538:	0f072703          	lw	a4,240(a4) # 8300f624 <__malloc_av_+0x8>
8300753c:	40e507b3          	sub	a5,a0,a4
83007540:	00f00693          	li	a3,15
83007544:	02f6d063          	bge	a3,a5,83007564 <_malloc_trim_r+0x144>
83007548:	00008697          	auipc	a3,0x8
8300754c:	53c6a683          	lw	a3,1340(a3) # 8300fa84 <__malloc_sbrk_base>
83007550:	40d50533          	sub	a0,a0,a3
83007554:	00008697          	auipc	a3,0x8
83007558:	58a6a623          	sw	a0,1420(a3) # 8300fae0 <__malloc_current_mallinfo>
8300755c:	0017e793          	ori	a5,a5,1
83007560:	00f72223          	sw	a5,4(a4)
83007564:	00090513          	mv	a0,s2
83007568:	00003097          	auipc	ra,0x3
8300756c:	f08080e7          	jalr	-248(ra) # 8300a470 <__malloc_unlock>
83007570:	00000513          	li	a0,0
83007574:	f31ff06f          	j	830074a4 <_malloc_trim_r+0x84>

83007578 <_free_r>:
83007578:	2c058863          	beqz	a1,83007848 <_free_r+0x2d0>
8300757c:	ff010113          	addi	sp,sp,-16
83007580:	00112623          	sw	ra,12(sp)
83007584:	00812423          	sw	s0,8(sp)
83007588:	00912223          	sw	s1,4(sp)
8300758c:	00050493          	mv	s1,a0
83007590:	00058413          	mv	s0,a1
83007594:	00003097          	auipc	ra,0x3
83007598:	ed8080e7          	jalr	-296(ra) # 8300a46c <__malloc_lock>
8300759c:	ff840713          	addi	a4,s0,-8
830075a0:	ffc42583          	lw	a1,-4(s0)
830075a4:	ffe5f793          	andi	a5,a1,-2
830075a8:	00f70633          	add	a2,a4,a5
830075ac:	00462683          	lw	a3,4(a2)
830075b0:	ffc6f693          	andi	a3,a3,-4
830075b4:	00008517          	auipc	a0,0x8
830075b8:	07052503          	lw	a0,112(a0) # 8300f624 <__malloc_av_+0x8>
830075bc:	04c50063          	beq	a0,a2,830075fc <_free_r+0x84>
830075c0:	00d62223          	sw	a3,4(a2)
830075c4:	0015f593          	andi	a1,a1,1
830075c8:	0a059063          	bnez	a1,83007668 <_free_r+0xf0>
830075cc:	ff842583          	lw	a1,-8(s0)
830075d0:	40b70733          	sub	a4,a4,a1
830075d4:	00b787b3          	add	a5,a5,a1
830075d8:	00872583          	lw	a1,8(a4)
830075dc:	00008517          	auipc	a0,0x8
830075e0:	04850513          	addi	a0,a0,72 # 8300f624 <__malloc_av_+0x8>
830075e4:	12a58463          	beq	a1,a0,8300770c <_free_r+0x194>
830075e8:	00c72503          	lw	a0,12(a4)
830075ec:	00a5a623          	sw	a0,12(a1)
830075f0:	00b52423          	sw	a1,8(a0)
830075f4:	00000513          	li	a0,0
830075f8:	0740006f          	j	8300766c <_free_r+0xf4>
830075fc:	00d786b3          	add	a3,a5,a3
83007600:	0015f593          	andi	a1,a1,1
83007604:	02059063          	bnez	a1,83007624 <_free_r+0xac>
83007608:	ff842783          	lw	a5,-8(s0)
8300760c:	40f70733          	sub	a4,a4,a5
83007610:	00f686b3          	add	a3,a3,a5
83007614:	00c72783          	lw	a5,12(a4)
83007618:	00872603          	lw	a2,8(a4)
8300761c:	00f62623          	sw	a5,12(a2)
83007620:	00c7a423          	sw	a2,8(a5)
83007624:	0016e793          	ori	a5,a3,1
83007628:	00f72223          	sw	a5,4(a4)
8300762c:	00008797          	auipc	a5,0x8
83007630:	fee7ac23          	sw	a4,-8(a5) # 8300f624 <__malloc_av_+0x8>
83007634:	00008797          	auipc	a5,0x8
83007638:	4547a783          	lw	a5,1108(a5) # 8300fa88 <__malloc_trim_threshold>
8300763c:	00f6fa63          	bgeu	a3,a5,83007650 <_free_r+0xd8>
83007640:	00048513          	mv	a0,s1
83007644:	00003097          	auipc	ra,0x3
83007648:	e2c080e7          	jalr	-468(ra) # 8300a470 <__malloc_unlock>
8300764c:	1e80006f          	j	83007834 <_free_r+0x2bc>
83007650:	00008597          	auipc	a1,0x8
83007654:	46c5a583          	lw	a1,1132(a1) # 8300fabc <__malloc_top_pad>
83007658:	00048513          	mv	a0,s1
8300765c:	00000097          	auipc	ra,0x0
83007660:	dc4080e7          	jalr	-572(ra) # 83007420 <_malloc_trim_r>
83007664:	fddff06f          	j	83007640 <_free_r+0xc8>
83007668:	00000513          	li	a0,0
8300766c:	00d605b3          	add	a1,a2,a3
83007670:	0045a583          	lw	a1,4(a1)
83007674:	0015f593          	andi	a1,a1,1
83007678:	02059663          	bnez	a1,830076a4 <_free_r+0x12c>
8300767c:	00d787b3          	add	a5,a5,a3
83007680:	00051a63          	bnez	a0,83007694 <_free_r+0x11c>
83007684:	00862583          	lw	a1,8(a2)
83007688:	00008697          	auipc	a3,0x8
8300768c:	f9c68693          	addi	a3,a3,-100 # 8300f624 <__malloc_av_+0x8>
83007690:	08d58263          	beq	a1,a3,83007714 <_free_r+0x19c>
83007694:	00c62683          	lw	a3,12(a2)
83007698:	00862603          	lw	a2,8(a2)
8300769c:	00d62623          	sw	a3,12(a2)
830076a0:	00c6a423          	sw	a2,8(a3)
830076a4:	0017e693          	ori	a3,a5,1
830076a8:	00d72223          	sw	a3,4(a4)
830076ac:	00f706b3          	add	a3,a4,a5
830076b0:	00f6a023          	sw	a5,0(a3)
830076b4:	16051a63          	bnez	a0,83007828 <_free_r+0x2b0>
830076b8:	1ff00693          	li	a3,511
830076bc:	08f6e063          	bltu	a3,a5,8300773c <_free_r+0x1c4>
830076c0:	0037d693          	srli	a3,a5,0x3
830076c4:	0057d793          	srli	a5,a5,0x5
830076c8:	00100593          	li	a1,1
830076cc:	00f595b3          	sll	a1,a1,a5
830076d0:	00008617          	auipc	a2,0x8
830076d4:	f4c60613          	addi	a2,a2,-180 # 8300f61c <__malloc_av_>
830076d8:	00462783          	lw	a5,4(a2)
830076dc:	00b7e7b3          	or	a5,a5,a1
830076e0:	00f62223          	sw	a5,4(a2)
830076e4:	00168793          	addi	a5,a3,1
830076e8:	00379793          	slli	a5,a5,0x3
830076ec:	00c787b3          	add	a5,a5,a2
830076f0:	ff878613          	addi	a2,a5,-8
830076f4:	0007a683          	lw	a3,0(a5)
830076f8:	00c72623          	sw	a2,12(a4)
830076fc:	00d72423          	sw	a3,8(a4)
83007700:	00e7a023          	sw	a4,0(a5)
83007704:	00e6a623          	sw	a4,12(a3)
83007708:	1200006f          	j	83007828 <_free_r+0x2b0>
8300770c:	00100513          	li	a0,1
83007710:	f5dff06f          	j	8300766c <_free_r+0xf4>
83007714:	00008697          	auipc	a3,0x8
83007718:	f0868693          	addi	a3,a3,-248 # 8300f61c <__malloc_av_>
8300771c:	00e6aa23          	sw	a4,20(a3)
83007720:	00e6a823          	sw	a4,16(a3)
83007724:	00008697          	auipc	a3,0x8
83007728:	f0068693          	addi	a3,a3,-256 # 8300f624 <__malloc_av_+0x8>
8300772c:	00d72623          	sw	a3,12(a4)
83007730:	00d72423          	sw	a3,8(a4)
83007734:	00100513          	li	a0,1
83007738:	f6dff06f          	j	830076a4 <_free_r+0x12c>
8300773c:	0097d693          	srli	a3,a5,0x9
83007740:	04069c63          	bnez	a3,83007798 <_free_r+0x220>
83007744:	0037d613          	srli	a2,a5,0x3
83007748:	00160693          	addi	a3,a2,1
8300774c:	00369693          	slli	a3,a3,0x3
83007750:	00008597          	auipc	a1,0x8
83007754:	ecc58593          	addi	a1,a1,-308 # 8300f61c <__malloc_av_>
83007758:	00b686b3          	add	a3,a3,a1
8300775c:	ff868593          	addi	a1,a3,-8
83007760:	0006a683          	lw	a3,0(a3)
83007764:	0ad59063          	bne	a1,a3,83007804 <_free_r+0x28c>
83007768:	41f65793          	srai	a5,a2,0x1f
8300776c:	0037f793          	andi	a5,a5,3
83007770:	00c787b3          	add	a5,a5,a2
83007774:	4027d793          	srai	a5,a5,0x2
83007778:	00100613          	li	a2,1
8300777c:	00f61633          	sll	a2,a2,a5
83007780:	00008517          	auipc	a0,0x8
83007784:	e9c50513          	addi	a0,a0,-356 # 8300f61c <__malloc_av_>
83007788:	00452783          	lw	a5,4(a0)
8300778c:	00c7e7b3          	or	a5,a5,a2
83007790:	00f52223          	sw	a5,4(a0)
83007794:	0840006f          	j	83007818 <_free_r+0x2a0>
83007798:	00400613          	li	a2,4
8300779c:	00d66863          	bltu	a2,a3,830077ac <_free_r+0x234>
830077a0:	0067d693          	srli	a3,a5,0x6
830077a4:	03868613          	addi	a2,a3,56
830077a8:	fa1ff06f          	j	83007748 <_free_r+0x1d0>
830077ac:	01400613          	li	a2,20
830077b0:	00d66663          	bltu	a2,a3,830077bc <_free_r+0x244>
830077b4:	05b68613          	addi	a2,a3,91
830077b8:	f91ff06f          	j	83007748 <_free_r+0x1d0>
830077bc:	05400613          	li	a2,84
830077c0:	00d66863          	bltu	a2,a3,830077d0 <_free_r+0x258>
830077c4:	00c7d693          	srli	a3,a5,0xc
830077c8:	06e68613          	addi	a2,a3,110
830077cc:	f7dff06f          	j	83007748 <_free_r+0x1d0>
830077d0:	15400613          	li	a2,340
830077d4:	00d66863          	bltu	a2,a3,830077e4 <_free_r+0x26c>
830077d8:	00f7d693          	srli	a3,a5,0xf
830077dc:	07768613          	addi	a2,a3,119
830077e0:	f69ff06f          	j	83007748 <_free_r+0x1d0>
830077e4:	55400613          	li	a2,1364
830077e8:	00d66863          	bltu	a2,a3,830077f8 <_free_r+0x280>
830077ec:	0127d693          	srli	a3,a5,0x12
830077f0:	07c68613          	addi	a2,a3,124
830077f4:	f55ff06f          	j	83007748 <_free_r+0x1d0>
830077f8:	07e00613          	li	a2,126
830077fc:	f4dff06f          	j	83007748 <_free_r+0x1d0>
83007800:	0086a683          	lw	a3,8(a3)
83007804:	00b68863          	beq	a3,a1,83007814 <_free_r+0x29c>
83007808:	0046a603          	lw	a2,4(a3)
8300780c:	ffc67613          	andi	a2,a2,-4
83007810:	fec7e8e3          	bltu	a5,a2,83007800 <_free_r+0x288>
83007814:	00c6a583          	lw	a1,12(a3)
83007818:	00b72623          	sw	a1,12(a4)
8300781c:	00d72423          	sw	a3,8(a4)
83007820:	00e5a423          	sw	a4,8(a1)
83007824:	00e6a623          	sw	a4,12(a3)
83007828:	00048513          	mv	a0,s1
8300782c:	00003097          	auipc	ra,0x3
83007830:	c44080e7          	jalr	-956(ra) # 8300a470 <__malloc_unlock>
83007834:	00c12083          	lw	ra,12(sp)
83007838:	00812403          	lw	s0,8(sp)
8300783c:	00412483          	lw	s1,4(sp)
83007840:	01010113          	addi	sp,sp,16
83007844:	00008067          	ret
83007848:	00008067          	ret

8300784c <__assert_func>:
8300784c:	ff010113          	addi	sp,sp,-16
83007850:	00112623          	sw	ra,12(sp)
83007854:	00050893          	mv	a7,a0
83007858:	00058713          	mv	a4,a1
8300785c:	00060813          	mv	a6,a2
83007860:	00068613          	mv	a2,a3
83007864:	00008797          	auipc	a5,0x8
83007868:	21c7a783          	lw	a5,540(a5) # 8300fa80 <_impure_ptr>
8300786c:	00c7a503          	lw	a0,12(a5)
83007870:	02080663          	beqz	a6,8300789c <__assert_func+0x50>
83007874:	00006797          	auipc	a5,0x6
83007878:	34878793          	addi	a5,a5,840 # 8300dbbc <zeroes.0+0x8c>
8300787c:	02080663          	beqz	a6,830078a8 <__assert_func+0x5c>
83007880:	00088693          	mv	a3,a7
83007884:	00006597          	auipc	a1,0x6
83007888:	34858593          	addi	a1,a1,840 # 8300dbcc <zeroes.0+0x9c>
8300788c:	00003097          	auipc	ra,0x3
83007890:	884080e7          	jalr	-1916(ra) # 8300a110 <fiprintf>
83007894:	00003097          	auipc	ra,0x3
83007898:	be0080e7          	jalr	-1056(ra) # 8300a474 <abort>
8300789c:	00005797          	auipc	a5,0x5
830078a0:	3c478793          	addi	a5,a5,964 # 8300cc60 <__call_exitprocs+0x17c>
830078a4:	fd9ff06f          	j	8300787c <__assert_func+0x30>
830078a8:	00005817          	auipc	a6,0x5
830078ac:	3b880813          	addi	a6,a6,952 # 8300cc60 <__call_exitprocs+0x17c>
830078b0:	fd1ff06f          	j	83007880 <__assert_func+0x34>

830078b4 <__assert>:
830078b4:	ff010113          	addi	sp,sp,-16
830078b8:	00112623          	sw	ra,12(sp)
830078bc:	00060693          	mv	a3,a2
830078c0:	00000613          	li	a2,0
830078c4:	00000097          	auipc	ra,0x0
830078c8:	f88080e7          	jalr	-120(ra) # 8300784c <__assert_func>

830078cc <malloc_extend_top>:
830078cc:	fe010113          	addi	sp,sp,-32
830078d0:	00112e23          	sw	ra,28(sp)
830078d4:	00812c23          	sw	s0,24(sp)
830078d8:	00912a23          	sw	s1,20(sp)
830078dc:	01212823          	sw	s2,16(sp)
830078e0:	01312623          	sw	s3,12(sp)
830078e4:	01412423          	sw	s4,8(sp)
830078e8:	01512223          	sw	s5,4(sp)
830078ec:	01612023          	sw	s6,0(sp)
830078f0:	00050a13          	mv	s4,a0
830078f4:	00008997          	auipc	s3,0x8
830078f8:	d309a983          	lw	s3,-720(s3) # 8300f624 <__malloc_av_+0x8>
830078fc:	0049a903          	lw	s2,4(s3)
83007900:	ffc97913          	andi	s2,s2,-4
83007904:	01298ab3          	add	s5,s3,s2
83007908:	00008797          	auipc	a5,0x8
8300790c:	1b47a783          	lw	a5,436(a5) # 8300fabc <__malloc_top_pad>
83007910:	00f585b3          	add	a1,a1,a5
83007914:	01058493          	addi	s1,a1,16
83007918:	00008717          	auipc	a4,0x8
8300791c:	16c72703          	lw	a4,364(a4) # 8300fa84 <__malloc_sbrk_base>
83007920:	fff00793          	li	a5,-1
83007924:	00f70c63          	beq	a4,a5,8300793c <malloc_extend_top+0x70>
83007928:	000017b7          	lui	a5,0x1
8300792c:	00f78793          	addi	a5,a5,15 # 100f <_ZL9set_i_maxv-0x82fff0a5>
83007930:	00f585b3          	add	a1,a1,a5
83007934:	fffff4b7          	lui	s1,0xfffff
83007938:	0095f4b3          	and	s1,a1,s1
8300793c:	00048593          	mv	a1,s1
83007940:	000a0513          	mv	a0,s4
83007944:	00003097          	auipc	ra,0x3
83007948:	acc080e7          	jalr	-1332(ra) # 8300a410 <_sbrk_r>
8300794c:	00050413          	mv	s0,a0
83007950:	fff00793          	li	a5,-1
83007954:	12f50e63          	beq	a0,a5,83007a90 <malloc_extend_top+0x1c4>
83007958:	01557863          	bgeu	a0,s5,83007968 <malloc_extend_top+0x9c>
8300795c:	00008797          	auipc	a5,0x8
83007960:	cc078793          	addi	a5,a5,-832 # 8300f61c <__malloc_av_>
83007964:	12f99663          	bne	s3,a5,83007a90 <malloc_extend_top+0x1c4>
83007968:	00008797          	auipc	a5,0x8
8300796c:	17878793          	addi	a5,a5,376 # 8300fae0 <__malloc_current_mallinfo>
83007970:	0007a703          	lw	a4,0(a5)
83007974:	00e48733          	add	a4,s1,a4
83007978:	00e7a023          	sw	a4,0(a5)
8300797c:	128a8e63          	beq	s5,s0,83007ab8 <malloc_extend_top+0x1ec>
83007980:	00008697          	auipc	a3,0x8
83007984:	1046a683          	lw	a3,260(a3) # 8300fa84 <__malloc_sbrk_base>
83007988:	fff00793          	li	a5,-1
8300798c:	14f68a63          	beq	a3,a5,83007ae0 <malloc_extend_top+0x214>
83007990:	415407b3          	sub	a5,s0,s5
83007994:	00f70733          	add	a4,a4,a5
83007998:	00008797          	auipc	a5,0x8
8300799c:	14e7a423          	sw	a4,328(a5) # 8300fae0 <__malloc_current_mallinfo>
830079a0:	00747b13          	andi	s6,s0,7
830079a4:	140b0463          	beqz	s6,83007aec <malloc_extend_top+0x220>
830079a8:	00800793          	li	a5,8
830079ac:	416787b3          	sub	a5,a5,s6
830079b0:	00f40433          	add	s0,s0,a5
830079b4:	009404b3          	add	s1,s0,s1
830079b8:	00001ab7          	lui	s5,0x1
830079bc:	fffa8713          	addi	a4,s5,-1 # fff <_ZL9set_i_maxv-0x82fff0b5>
830079c0:	00e4f6b3          	and	a3,s1,a4
830079c4:	40da8ab3          	sub	s5,s5,a3
830079c8:	00fa8ab3          	add	s5,s5,a5
830079cc:	00eafab3          	and	s5,s5,a4
830079d0:	000a8593          	mv	a1,s5
830079d4:	000a0513          	mv	a0,s4
830079d8:	00003097          	auipc	ra,0x3
830079dc:	a38080e7          	jalr	-1480(ra) # 8300a410 <_sbrk_r>
830079e0:	00050793          	mv	a5,a0
830079e4:	fff00713          	li	a4,-1
830079e8:	10e50663          	beq	a0,a4,83007af4 <malloc_extend_top+0x228>
830079ec:	00008697          	auipc	a3,0x8
830079f0:	0f468693          	addi	a3,a3,244 # 8300fae0 <__malloc_current_mallinfo>
830079f4:	0006a703          	lw	a4,0(a3)
830079f8:	01570733          	add	a4,a4,s5
830079fc:	00e6a023          	sw	a4,0(a3)
83007a00:	00008717          	auipc	a4,0x8
83007a04:	c1c70713          	addi	a4,a4,-996 # 8300f61c <__malloc_av_>
83007a08:	00872423          	sw	s0,8(a4)
83007a0c:	408787b3          	sub	a5,a5,s0
83007a10:	015787b3          	add	a5,a5,s5
83007a14:	0017e793          	ori	a5,a5,1
83007a18:	00f42223          	sw	a5,4(s0)
83007a1c:	04e98263          	beq	s3,a4,83007a60 <malloc_extend_top+0x194>
83007a20:	00f00793          	li	a5,15
83007a24:	0f27f863          	bgeu	a5,s2,83007b14 <malloc_extend_top+0x248>
83007a28:	ff490913          	addi	s2,s2,-12
83007a2c:	ff897913          	andi	s2,s2,-8
83007a30:	0049a783          	lw	a5,4(s3)
83007a34:	0017f793          	andi	a5,a5,1
83007a38:	0127e7b3          	or	a5,a5,s2
83007a3c:	00f9a223          	sw	a5,4(s3)
83007a40:	012987b3          	add	a5,s3,s2
83007a44:	00500713          	li	a4,5
83007a48:	00e7a223          	sw	a4,4(a5)
83007a4c:	00490793          	addi	a5,s2,4
83007a50:	00f987b3          	add	a5,s3,a5
83007a54:	00e7a223          	sw	a4,4(a5)
83007a58:	00f00793          	li	a5,15
83007a5c:	0d27e663          	bltu	a5,s2,83007b28 <malloc_extend_top+0x25c>
83007a60:	00008797          	auipc	a5,0x8
83007a64:	0807a783          	lw	a5,128(a5) # 8300fae0 <__malloc_current_mallinfo>
83007a68:	00008717          	auipc	a4,0x8
83007a6c:	05072703          	lw	a4,80(a4) # 8300fab8 <__malloc_max_sbrked_mem>
83007a70:	00f77663          	bgeu	a4,a5,83007a7c <malloc_extend_top+0x1b0>
83007a74:	00008717          	auipc	a4,0x8
83007a78:	04f72223          	sw	a5,68(a4) # 8300fab8 <__malloc_max_sbrked_mem>
83007a7c:	00008717          	auipc	a4,0x8
83007a80:	03872703          	lw	a4,56(a4) # 8300fab4 <__malloc_max_total_mem>
83007a84:	00f77663          	bgeu	a4,a5,83007a90 <malloc_extend_top+0x1c4>
83007a88:	00008717          	auipc	a4,0x8
83007a8c:	02f72623          	sw	a5,44(a4) # 8300fab4 <__malloc_max_total_mem>
83007a90:	01c12083          	lw	ra,28(sp)
83007a94:	01812403          	lw	s0,24(sp)
83007a98:	01412483          	lw	s1,20(sp)
83007a9c:	01012903          	lw	s2,16(sp)
83007aa0:	00c12983          	lw	s3,12(sp)
83007aa4:	00812a03          	lw	s4,8(sp)
83007aa8:	00412a83          	lw	s5,4(sp)
83007aac:	00012b03          	lw	s6,0(sp)
83007ab0:	02010113          	addi	sp,sp,32
83007ab4:	00008067          	ret
83007ab8:	000017b7          	lui	a5,0x1
83007abc:	fff78793          	addi	a5,a5,-1 # fff <_ZL9set_i_maxv-0x82fff0b5>
83007ac0:	00faf7b3          	and	a5,s5,a5
83007ac4:	ea079ee3          	bnez	a5,83007980 <malloc_extend_top+0xb4>
83007ac8:	012484b3          	add	s1,s1,s2
83007acc:	0014e493          	ori	s1,s1,1
83007ad0:	00008797          	auipc	a5,0x8
83007ad4:	b547a783          	lw	a5,-1196(a5) # 8300f624 <__malloc_av_+0x8>
83007ad8:	0097a223          	sw	s1,4(a5)
83007adc:	f85ff06f          	j	83007a60 <malloc_extend_top+0x194>
83007ae0:	00008797          	auipc	a5,0x8
83007ae4:	fa87a223          	sw	s0,-92(a5) # 8300fa84 <__malloc_sbrk_base>
83007ae8:	eb9ff06f          	j	830079a0 <malloc_extend_top+0xd4>
83007aec:	000b0793          	mv	a5,s6
83007af0:	ec5ff06f          	j	830079b4 <malloc_extend_top+0xe8>
83007af4:	000b0a63          	beqz	s6,83007b08 <malloc_extend_top+0x23c>
83007af8:	ff8b0793          	addi	a5,s6,-8
83007afc:	00f487b3          	add	a5,s1,a5
83007b00:	00000a93          	li	s5,0
83007b04:	ee9ff06f          	j	830079ec <malloc_extend_top+0x120>
83007b08:	00048793          	mv	a5,s1
83007b0c:	000b0a93          	mv	s5,s6
83007b10:	eddff06f          	j	830079ec <malloc_extend_top+0x120>
83007b14:	00008797          	auipc	a5,0x8
83007b18:	b107a783          	lw	a5,-1264(a5) # 8300f624 <__malloc_av_+0x8>
83007b1c:	00100713          	li	a4,1
83007b20:	00e7a223          	sw	a4,4(a5)
83007b24:	f6dff06f          	j	83007a90 <malloc_extend_top+0x1c4>
83007b28:	00898593          	addi	a1,s3,8
83007b2c:	000a0513          	mv	a0,s4
83007b30:	00000097          	auipc	ra,0x0
83007b34:	a48080e7          	jalr	-1464(ra) # 83007578 <_free_r>
83007b38:	f29ff06f          	j	83007a60 <malloc_extend_top+0x194>

83007b3c <_malloc_r>:
83007b3c:	ff010113          	addi	sp,sp,-16
83007b40:	00112623          	sw	ra,12(sp)
83007b44:	00812423          	sw	s0,8(sp)
83007b48:	00912223          	sw	s1,4(sp)
83007b4c:	01212023          	sw	s2,0(sp)
83007b50:	00050913          	mv	s2,a0
83007b54:	00b58493          	addi	s1,a1,11
83007b58:	01600793          	li	a5,22
83007b5c:	0497fa63          	bgeu	a5,s1,83007bb0 <_malloc_r+0x74>
83007b60:	ff84f493          	andi	s1,s1,-8
83007b64:	0404ca63          	bltz	s1,83007bb8 <_malloc_r+0x7c>
83007b68:	04b4e863          	bltu	s1,a1,83007bb8 <_malloc_r+0x7c>
83007b6c:	00090513          	mv	a0,s2
83007b70:	00003097          	auipc	ra,0x3
83007b74:	8fc080e7          	jalr	-1796(ra) # 8300a46c <__malloc_lock>
83007b78:	1f700793          	li	a5,503
83007b7c:	0a97e463          	bltu	a5,s1,83007c24 <_malloc_r+0xe8>
83007b80:	0034d693          	srli	a3,s1,0x3
83007b84:	00168713          	addi	a4,a3,1
83007b88:	00371713          	slli	a4,a4,0x3
83007b8c:	00008797          	auipc	a5,0x8
83007b90:	a9078793          	addi	a5,a5,-1392 # 8300f61c <__malloc_av_>
83007b94:	00e787b3          	add	a5,a5,a4
83007b98:	ff878713          	addi	a4,a5,-8
83007b9c:	0047a403          	lw	s0,4(a5)
83007ba0:	02870e63          	beq	a4,s0,83007bdc <_malloc_r+0xa0>
83007ba4:	04e41263          	bne	s0,a4,83007be8 <_malloc_r+0xac>
83007ba8:	00268693          	addi	a3,a3,2
83007bac:	1140006f          	j	83007cc0 <_malloc_r+0x184>
83007bb0:	01000493          	li	s1,16
83007bb4:	fb1ff06f          	j	83007b64 <_malloc_r+0x28>
83007bb8:	00c00793          	li	a5,12
83007bbc:	00f92023          	sw	a5,0(s2)
83007bc0:	00000513          	li	a0,0
83007bc4:	00c12083          	lw	ra,12(sp)
83007bc8:	00812403          	lw	s0,8(sp)
83007bcc:	00412483          	lw	s1,4(sp)
83007bd0:	00012903          	lw	s2,0(sp)
83007bd4:	01010113          	addi	sp,sp,16
83007bd8:	00008067          	ret
83007bdc:	00c7a403          	lw	s0,12(a5)
83007be0:	00078713          	mv	a4,a5
83007be4:	fc1ff06f          	j	83007ba4 <_malloc_r+0x68>
83007be8:	00442783          	lw	a5,4(s0)
83007bec:	ffc7f793          	andi	a5,a5,-4
83007bf0:	00c42703          	lw	a4,12(s0)
83007bf4:	00842683          	lw	a3,8(s0)
83007bf8:	00e6a623          	sw	a4,12(a3)
83007bfc:	00d72423          	sw	a3,8(a4)
83007c00:	00f407b3          	add	a5,s0,a5
83007c04:	0047a703          	lw	a4,4(a5)
83007c08:	00176713          	ori	a4,a4,1
83007c0c:	00e7a223          	sw	a4,4(a5)
83007c10:	00090513          	mv	a0,s2
83007c14:	00003097          	auipc	ra,0x3
83007c18:	85c080e7          	jalr	-1956(ra) # 8300a470 <__malloc_unlock>
83007c1c:	00840513          	addi	a0,s0,8
83007c20:	fa5ff06f          	j	83007bc4 <_malloc_r+0x88>
83007c24:	0094d693          	srli	a3,s1,0x9
83007c28:	02069463          	bnez	a3,83007c50 <_malloc_r+0x114>
83007c2c:	0034d693          	srli	a3,s1,0x3
83007c30:	00168713          	addi	a4,a3,1
83007c34:	00371713          	slli	a4,a4,0x3
83007c38:	00008797          	auipc	a5,0x8
83007c3c:	9e478793          	addi	a5,a5,-1564 # 8300f61c <__malloc_av_>
83007c40:	00e787b3          	add	a5,a5,a4
83007c44:	ff878593          	addi	a1,a5,-8
83007c48:	0047a403          	lw	s0,4(a5)
83007c4c:	14c0006f          	j	83007d98 <_malloc_r+0x25c>
83007c50:	00400793          	li	a5,4
83007c54:	00d7e863          	bltu	a5,a3,83007c64 <_malloc_r+0x128>
83007c58:	0064d693          	srli	a3,s1,0x6
83007c5c:	03868693          	addi	a3,a3,56
83007c60:	fd1ff06f          	j	83007c30 <_malloc_r+0xf4>
83007c64:	01400793          	li	a5,20
83007c68:	00d7e663          	bltu	a5,a3,83007c74 <_malloc_r+0x138>
83007c6c:	05b68693          	addi	a3,a3,91
83007c70:	fc1ff06f          	j	83007c30 <_malloc_r+0xf4>
83007c74:	05400793          	li	a5,84
83007c78:	00d7e863          	bltu	a5,a3,83007c88 <_malloc_r+0x14c>
83007c7c:	00c4d693          	srli	a3,s1,0xc
83007c80:	06e68693          	addi	a3,a3,110
83007c84:	fadff06f          	j	83007c30 <_malloc_r+0xf4>
83007c88:	15400793          	li	a5,340
83007c8c:	00d7e863          	bltu	a5,a3,83007c9c <_malloc_r+0x160>
83007c90:	00f4d693          	srli	a3,s1,0xf
83007c94:	07768693          	addi	a3,a3,119
83007c98:	f99ff06f          	j	83007c30 <_malloc_r+0xf4>
83007c9c:	55400793          	li	a5,1364
83007ca0:	00d7e863          	bltu	a5,a3,83007cb0 <_malloc_r+0x174>
83007ca4:	0124d693          	srli	a3,s1,0x12
83007ca8:	07c68693          	addi	a3,a3,124
83007cac:	f85ff06f          	j	83007c30 <_malloc_r+0xf4>
83007cb0:	07e00693          	li	a3,126
83007cb4:	f7dff06f          	j	83007c30 <_malloc_r+0xf4>
83007cb8:	fff68693          	addi	a3,a3,-1
83007cbc:	00168693          	addi	a3,a3,1
83007cc0:	00008417          	auipc	s0,0x8
83007cc4:	96c42403          	lw	s0,-1684(s0) # 8300f62c <__malloc_av_+0x10>
83007cc8:	00008797          	auipc	a5,0x8
83007ccc:	95c78793          	addi	a5,a5,-1700 # 8300f624 <__malloc_av_+0x8>
83007cd0:	08f40463          	beq	s0,a5,83007d58 <_malloc_r+0x21c>
83007cd4:	00442583          	lw	a1,4(s0)
83007cd8:	ffc5f593          	andi	a1,a1,-4
83007cdc:	409587b3          	sub	a5,a1,s1
83007ce0:	00078613          	mv	a2,a5
83007ce4:	00f00713          	li	a4,15
83007ce8:	10f74063          	blt	a4,a5,83007de8 <_malloc_r+0x2ac>
83007cec:	00008797          	auipc	a5,0x8
83007cf0:	93078793          	addi	a5,a5,-1744 # 8300f61c <__malloc_av_>
83007cf4:	00008717          	auipc	a4,0x8
83007cf8:	93070713          	addi	a4,a4,-1744 # 8300f624 <__malloc_av_+0x8>
83007cfc:	00e7aa23          	sw	a4,20(a5)
83007d00:	00e7a823          	sw	a4,16(a5)
83007d04:	12065a63          	bgez	a2,83007e38 <_malloc_r+0x2fc>
83007d08:	1ff00793          	li	a5,511
83007d0c:	14b7e863          	bltu	a5,a1,83007e5c <_malloc_r+0x320>
83007d10:	0035d713          	srli	a4,a1,0x3
83007d14:	0055d593          	srli	a1,a1,0x5
83007d18:	00100793          	li	a5,1
83007d1c:	00b795b3          	sll	a1,a5,a1
83007d20:	00008797          	auipc	a5,0x8
83007d24:	8fc78793          	addi	a5,a5,-1796 # 8300f61c <__malloc_av_>
83007d28:	0047a603          	lw	a2,4(a5)
83007d2c:	00b66633          	or	a2,a2,a1
83007d30:	00c7a223          	sw	a2,4(a5)
83007d34:	00170713          	addi	a4,a4,1
83007d38:	00371713          	slli	a4,a4,0x3
83007d3c:	00e787b3          	add	a5,a5,a4
83007d40:	ff878613          	addi	a2,a5,-8
83007d44:	0007a703          	lw	a4,0(a5)
83007d48:	00c42623          	sw	a2,12(s0)
83007d4c:	00e42423          	sw	a4,8(s0)
83007d50:	0087a023          	sw	s0,0(a5)
83007d54:	00872623          	sw	s0,12(a4)
83007d58:	41f6d793          	srai	a5,a3,0x1f
83007d5c:	0037f793          	andi	a5,a5,3
83007d60:	00d787b3          	add	a5,a5,a3
83007d64:	4027d793          	srai	a5,a5,0x2
83007d68:	00100513          	li	a0,1
83007d6c:	00f51533          	sll	a0,a0,a5
83007d70:	00008797          	auipc	a5,0x8
83007d74:	8b07a783          	lw	a5,-1872(a5) # 8300f620 <__malloc_av_+0x4>
83007d78:	32a7e863          	bltu	a5,a0,830080a8 <_malloc_r+0x56c>
83007d7c:	00a7f733          	and	a4,a5,a0
83007d80:	1c071e63          	bnez	a4,83007f5c <_malloc_r+0x420>
83007d84:	ffc6f693          	andi	a3,a3,-4
83007d88:	00468693          	addi	a3,a3,4
83007d8c:	00151513          	slli	a0,a0,0x1
83007d90:	1c40006f          	j	83007f54 <_malloc_r+0x418>
83007d94:	00c42403          	lw	s0,12(s0)
83007d98:	f2b402e3          	beq	s0,a1,83007cbc <_malloc_r+0x180>
83007d9c:	00442783          	lw	a5,4(s0)
83007da0:	ffc7f793          	andi	a5,a5,-4
83007da4:	40978733          	sub	a4,a5,s1
83007da8:	00f00613          	li	a2,15
83007dac:	f0e646e3          	blt	a2,a4,83007cb8 <_malloc_r+0x17c>
83007db0:	fe0742e3          	bltz	a4,83007d94 <_malloc_r+0x258>
83007db4:	00c42703          	lw	a4,12(s0)
83007db8:	00842683          	lw	a3,8(s0)
83007dbc:	00e6a623          	sw	a4,12(a3)
83007dc0:	00d72423          	sw	a3,8(a4)
83007dc4:	00f407b3          	add	a5,s0,a5
83007dc8:	0047a703          	lw	a4,4(a5)
83007dcc:	00176713          	ori	a4,a4,1
83007dd0:	00e7a223          	sw	a4,4(a5)
83007dd4:	00090513          	mv	a0,s2
83007dd8:	00002097          	auipc	ra,0x2
83007ddc:	698080e7          	jalr	1688(ra) # 8300a470 <__malloc_unlock>
83007de0:	00840513          	addi	a0,s0,8
83007de4:	de1ff06f          	j	83007bc4 <_malloc_r+0x88>
83007de8:	00940733          	add	a4,s0,s1
83007dec:	0014e493          	ori	s1,s1,1
83007df0:	00942223          	sw	s1,4(s0)
83007df4:	00008697          	auipc	a3,0x8
83007df8:	82868693          	addi	a3,a3,-2008 # 8300f61c <__malloc_av_>
83007dfc:	00e6aa23          	sw	a4,20(a3)
83007e00:	00e6a823          	sw	a4,16(a3)
83007e04:	00008697          	auipc	a3,0x8
83007e08:	82068693          	addi	a3,a3,-2016 # 8300f624 <__malloc_av_+0x8>
83007e0c:	00d72623          	sw	a3,12(a4)
83007e10:	00d72423          	sw	a3,8(a4)
83007e14:	0017e693          	ori	a3,a5,1
83007e18:	00d72223          	sw	a3,4(a4)
83007e1c:	00b405b3          	add	a1,s0,a1
83007e20:	00f5a023          	sw	a5,0(a1)
83007e24:	00090513          	mv	a0,s2
83007e28:	00002097          	auipc	ra,0x2
83007e2c:	648080e7          	jalr	1608(ra) # 8300a470 <__malloc_unlock>
83007e30:	00840513          	addi	a0,s0,8
83007e34:	d91ff06f          	j	83007bc4 <_malloc_r+0x88>
83007e38:	00b405b3          	add	a1,s0,a1
83007e3c:	0045a783          	lw	a5,4(a1)
83007e40:	0017e793          	ori	a5,a5,1
83007e44:	00f5a223          	sw	a5,4(a1)
83007e48:	00090513          	mv	a0,s2
83007e4c:	00002097          	auipc	ra,0x2
83007e50:	624080e7          	jalr	1572(ra) # 8300a470 <__malloc_unlock>
83007e54:	00840513          	addi	a0,s0,8
83007e58:	d6dff06f          	j	83007bc4 <_malloc_r+0x88>
83007e5c:	0095d793          	srli	a5,a1,0x9
83007e60:	04079c63          	bnez	a5,83007eb8 <_malloc_r+0x37c>
83007e64:	0035d713          	srli	a4,a1,0x3
83007e68:	00170613          	addi	a2,a4,1
83007e6c:	00361613          	slli	a2,a2,0x3
83007e70:	00007797          	auipc	a5,0x7
83007e74:	7ac78793          	addi	a5,a5,1964 # 8300f61c <__malloc_av_>
83007e78:	00c787b3          	add	a5,a5,a2
83007e7c:	ff878613          	addi	a2,a5,-8
83007e80:	0007a783          	lw	a5,0(a5)
83007e84:	0af61063          	bne	a2,a5,83007f24 <_malloc_r+0x3e8>
83007e88:	41f75593          	srai	a1,a4,0x1f
83007e8c:	0035f593          	andi	a1,a1,3
83007e90:	00e58733          	add	a4,a1,a4
83007e94:	40275713          	srai	a4,a4,0x2
83007e98:	00100593          	li	a1,1
83007e9c:	00e595b3          	sll	a1,a1,a4
83007ea0:	00007517          	auipc	a0,0x7
83007ea4:	77c50513          	addi	a0,a0,1916 # 8300f61c <__malloc_av_>
83007ea8:	00452703          	lw	a4,4(a0)
83007eac:	00b76733          	or	a4,a4,a1
83007eb0:	00e52223          	sw	a4,4(a0)
83007eb4:	0840006f          	j	83007f38 <_malloc_r+0x3fc>
83007eb8:	00400713          	li	a4,4
83007ebc:	00f76863          	bltu	a4,a5,83007ecc <_malloc_r+0x390>
83007ec0:	0065d793          	srli	a5,a1,0x6
83007ec4:	03878713          	addi	a4,a5,56
83007ec8:	fa1ff06f          	j	83007e68 <_malloc_r+0x32c>
83007ecc:	01400713          	li	a4,20
83007ed0:	00f76663          	bltu	a4,a5,83007edc <_malloc_r+0x3a0>
83007ed4:	05b78713          	addi	a4,a5,91
83007ed8:	f91ff06f          	j	83007e68 <_malloc_r+0x32c>
83007edc:	05400713          	li	a4,84
83007ee0:	00f76863          	bltu	a4,a5,83007ef0 <_malloc_r+0x3b4>
83007ee4:	00c5d793          	srli	a5,a1,0xc
83007ee8:	06e78713          	addi	a4,a5,110
83007eec:	f7dff06f          	j	83007e68 <_malloc_r+0x32c>
83007ef0:	15400713          	li	a4,340
83007ef4:	00f76863          	bltu	a4,a5,83007f04 <_malloc_r+0x3c8>
83007ef8:	00f5d793          	srli	a5,a1,0xf
83007efc:	07778713          	addi	a4,a5,119
83007f00:	f69ff06f          	j	83007e68 <_malloc_r+0x32c>
83007f04:	55400713          	li	a4,1364
83007f08:	00f76863          	bltu	a4,a5,83007f18 <_malloc_r+0x3dc>
83007f0c:	0125d793          	srli	a5,a1,0x12
83007f10:	07c78713          	addi	a4,a5,124
83007f14:	f55ff06f          	j	83007e68 <_malloc_r+0x32c>
83007f18:	07e00713          	li	a4,126
83007f1c:	f4dff06f          	j	83007e68 <_malloc_r+0x32c>
83007f20:	0087a783          	lw	a5,8(a5)
83007f24:	00c78863          	beq	a5,a2,83007f34 <_malloc_r+0x3f8>
83007f28:	0047a703          	lw	a4,4(a5)
83007f2c:	ffc77713          	andi	a4,a4,-4
83007f30:	fee5e8e3          	bltu	a1,a4,83007f20 <_malloc_r+0x3e4>
83007f34:	00c7a603          	lw	a2,12(a5)
83007f38:	00c42623          	sw	a2,12(s0)
83007f3c:	00f42423          	sw	a5,8(s0)
83007f40:	00862423          	sw	s0,8(a2)
83007f44:	0087a623          	sw	s0,12(a5)
83007f48:	e11ff06f          	j	83007d58 <_malloc_r+0x21c>
83007f4c:	00468693          	addi	a3,a3,4
83007f50:	00151513          	slli	a0,a0,0x1
83007f54:	00a7f733          	and	a4,a5,a0
83007f58:	fe070ae3          	beqz	a4,83007f4c <_malloc_r+0x410>
83007f5c:	00168793          	addi	a5,a3,1
83007f60:	00379793          	slli	a5,a5,0x3
83007f64:	00007897          	auipc	a7,0x7
83007f68:	6b888893          	addi	a7,a7,1720 # 8300f61c <__malloc_av_>
83007f6c:	00f888b3          	add	a7,a7,a5
83007f70:	ff888893          	addi	a7,a7,-8
83007f74:	00088813          	mv	a6,a7
83007f78:	00068313          	mv	t1,a3
83007f7c:	00c82403          	lw	s0,12(a6)
83007f80:	0b040c63          	beq	s0,a6,83008038 <_malloc_r+0x4fc>
83007f84:	00442783          	lw	a5,4(s0)
83007f88:	ffc7f793          	andi	a5,a5,-4
83007f8c:	40978733          	sub	a4,a5,s1
83007f90:	00f00613          	li	a2,15
83007f94:	00e64863          	blt	a2,a4,83007fa4 <_malloc_r+0x468>
83007f98:	06075663          	bgez	a4,83008004 <_malloc_r+0x4c8>
83007f9c:	00c42403          	lw	s0,12(s0)
83007fa0:	fe1ff06f          	j	83007f80 <_malloc_r+0x444>
83007fa4:	009406b3          	add	a3,s0,s1
83007fa8:	0014e493          	ori	s1,s1,1
83007fac:	00942223          	sw	s1,4(s0)
83007fb0:	00c42603          	lw	a2,12(s0)
83007fb4:	00842583          	lw	a1,8(s0)
83007fb8:	00c5a623          	sw	a2,12(a1)
83007fbc:	00b62423          	sw	a1,8(a2)
83007fc0:	00007617          	auipc	a2,0x7
83007fc4:	65c60613          	addi	a2,a2,1628 # 8300f61c <__malloc_av_>
83007fc8:	00d62a23          	sw	a3,20(a2)
83007fcc:	00d62823          	sw	a3,16(a2)
83007fd0:	00007617          	auipc	a2,0x7
83007fd4:	65460613          	addi	a2,a2,1620 # 8300f624 <__malloc_av_+0x8>
83007fd8:	00c6a623          	sw	a2,12(a3)
83007fdc:	00c6a423          	sw	a2,8(a3)
83007fe0:	00176613          	ori	a2,a4,1
83007fe4:	00c6a223          	sw	a2,4(a3)
83007fe8:	00f407b3          	add	a5,s0,a5
83007fec:	00e7a023          	sw	a4,0(a5)
83007ff0:	00090513          	mv	a0,s2
83007ff4:	00002097          	auipc	ra,0x2
83007ff8:	47c080e7          	jalr	1148(ra) # 8300a470 <__malloc_unlock>
83007ffc:	00840513          	addi	a0,s0,8
83008000:	bc5ff06f          	j	83007bc4 <_malloc_r+0x88>
83008004:	00f407b3          	add	a5,s0,a5
83008008:	0047a703          	lw	a4,4(a5)
8300800c:	00176713          	ori	a4,a4,1
83008010:	00e7a223          	sw	a4,4(a5)
83008014:	00c42783          	lw	a5,12(s0)
83008018:	00842703          	lw	a4,8(s0)
8300801c:	00f72623          	sw	a5,12(a4)
83008020:	00e7a423          	sw	a4,8(a5)
83008024:	00090513          	mv	a0,s2
83008028:	00002097          	auipc	ra,0x2
8300802c:	448080e7          	jalr	1096(ra) # 8300a470 <__malloc_unlock>
83008030:	00840513          	addi	a0,s0,8
83008034:	b91ff06f          	j	83007bc4 <_malloc_r+0x88>
83008038:	00880813          	addi	a6,a6,8
8300803c:	00130313          	addi	t1,t1,1
83008040:	00337793          	andi	a5,t1,3
83008044:	f2079ce3          	bnez	a5,83007f7c <_malloc_r+0x440>
83008048:	0036f793          	andi	a5,a3,3
8300804c:	00078c63          	beqz	a5,83008064 <_malloc_r+0x528>
83008050:	fff68693          	addi	a3,a3,-1
83008054:	ff888893          	addi	a7,a7,-8
83008058:	0088a783          	lw	a5,8(a7)
8300805c:	ff1786e3          	beq	a5,a7,83008048 <_malloc_r+0x50c>
83008060:	01c0006f          	j	8300807c <_malloc_r+0x540>
83008064:	fff54713          	not	a4,a0
83008068:	00007697          	auipc	a3,0x7
8300806c:	5b468693          	addi	a3,a3,1460 # 8300f61c <__malloc_av_>
83008070:	0046a783          	lw	a5,4(a3)
83008074:	00e7f7b3          	and	a5,a5,a4
83008078:	00f6a223          	sw	a5,4(a3)
8300807c:	00151513          	slli	a0,a0,0x1
83008080:	00007717          	auipc	a4,0x7
83008084:	5a072703          	lw	a4,1440(a4) # 8300f620 <__malloc_av_+0x4>
83008088:	02a76063          	bltu	a4,a0,830080a8 <_malloc_r+0x56c>
8300808c:	00050e63          	beqz	a0,830080a8 <_malloc_r+0x56c>
83008090:	00030693          	mv	a3,t1
83008094:	00a777b3          	and	a5,a4,a0
83008098:	ec0792e3          	bnez	a5,83007f5c <_malloc_r+0x420>
8300809c:	00468693          	addi	a3,a3,4
830080a0:	00151513          	slli	a0,a0,0x1
830080a4:	ff1ff06f          	j	83008094 <_malloc_r+0x558>
830080a8:	00007797          	auipc	a5,0x7
830080ac:	57c7a783          	lw	a5,1404(a5) # 8300f624 <__malloc_av_+0x8>
830080b0:	0047a703          	lw	a4,4(a5)
830080b4:	ffc77713          	andi	a4,a4,-4
830080b8:	409707b3          	sub	a5,a4,s1
830080bc:	00976663          	bltu	a4,s1,830080c8 <_malloc_r+0x58c>
830080c0:	00f00713          	li	a4,15
830080c4:	02f74a63          	blt	a4,a5,830080f8 <_malloc_r+0x5bc>
830080c8:	00048593          	mv	a1,s1
830080cc:	00090513          	mv	a0,s2
830080d0:	fffff097          	auipc	ra,0xfffff
830080d4:	7fc080e7          	jalr	2044(ra) # 830078cc <malloc_extend_top>
830080d8:	00007797          	auipc	a5,0x7
830080dc:	54c7a783          	lw	a5,1356(a5) # 8300f624 <__malloc_av_+0x8>
830080e0:	0047a703          	lw	a4,4(a5)
830080e4:	ffc77713          	andi	a4,a4,-4
830080e8:	409707b3          	sub	a5,a4,s1
830080ec:	04976263          	bltu	a4,s1,83008130 <_malloc_r+0x5f4>
830080f0:	00f00713          	li	a4,15
830080f4:	02f75e63          	bge	a4,a5,83008130 <_malloc_r+0x5f4>
830080f8:	00007717          	auipc	a4,0x7
830080fc:	52470713          	addi	a4,a4,1316 # 8300f61c <__malloc_av_>
83008100:	00872403          	lw	s0,8(a4)
83008104:	0014e693          	ori	a3,s1,1
83008108:	00d42223          	sw	a3,4(s0)
8300810c:	009404b3          	add	s1,s0,s1
83008110:	00972423          	sw	s1,8(a4)
83008114:	0017e793          	ori	a5,a5,1
83008118:	00f4a223          	sw	a5,4(s1) # fffff004 <__BSS_END__+0x7cfef4fc>
8300811c:	00090513          	mv	a0,s2
83008120:	00002097          	auipc	ra,0x2
83008124:	350080e7          	jalr	848(ra) # 8300a470 <__malloc_unlock>
83008128:	00840513          	addi	a0,s0,8
8300812c:	a99ff06f          	j	83007bc4 <_malloc_r+0x88>
83008130:	00090513          	mv	a0,s2
83008134:	00002097          	auipc	ra,0x2
83008138:	33c080e7          	jalr	828(ra) # 8300a470 <__malloc_unlock>
8300813c:	00000513          	li	a0,0
83008140:	a85ff06f          	j	83007bc4 <_malloc_r+0x88>

83008144 <_strtoul_l>:
83008144:	00050f13          	mv	t5,a0
83008148:	00058813          	mv	a6,a1
8300814c:	00080893          	mv	a7,a6
83008150:	00180813          	addi	a6,a6,1
83008154:	0008c783          	lbu	a5,0(a7)
83008158:	00006717          	auipc	a4,0x6
8300815c:	aa570713          	addi	a4,a4,-1371 # 8300dbfd <_ctype_+0x1>
83008160:	00e78733          	add	a4,a5,a4
83008164:	00074703          	lbu	a4,0(a4)
83008168:	00877713          	andi	a4,a4,8
8300816c:	fe0710e3          	bnez	a4,8300814c <_strtoul_l+0x8>
83008170:	02d00713          	li	a4,45
83008174:	04e78863          	beq	a5,a4,830081c4 <_strtoul_l+0x80>
83008178:	02b00713          	li	a4,43
8300817c:	04e78c63          	beq	a5,a4,830081d4 <_strtoul_l+0x90>
83008180:	00000393          	li	t2,0
83008184:	00068663          	beqz	a3,83008190 <_strtoul_l+0x4c>
83008188:	01000713          	li	a4,16
8300818c:	00e69663          	bne	a3,a4,83008198 <_strtoul_l+0x54>
83008190:	03000713          	li	a4,48
83008194:	04e78863          	beq	a5,a4,830081e4 <_strtoul_l+0xa0>
83008198:	00069863          	bnez	a3,830081a8 <_strtoul_l+0x64>
8300819c:	03000713          	li	a4,48
830081a0:	06e78463          	beq	a5,a4,83008208 <_strtoul_l+0xc4>
830081a4:	00a00693          	li	a3,10
830081a8:	00068293          	mv	t0,a3
830081ac:	fff00713          	li	a4,-1
830081b0:	02d75eb3          	divu	t4,a4,a3
830081b4:	02d77fb3          	remu	t6,a4,a3
830081b8:	00000893          	li	a7,0
830081bc:	00000513          	li	a0,0
830081c0:	0900006f          	j	83008250 <_strtoul_l+0x10c>
830081c4:	00084783          	lbu	a5,0(a6)
830081c8:	00288813          	addi	a6,a7,2
830081cc:	00100393          	li	t2,1
830081d0:	fb5ff06f          	j	83008184 <_strtoul_l+0x40>
830081d4:	00084783          	lbu	a5,0(a6)
830081d8:	00288813          	addi	a6,a7,2
830081dc:	00000393          	li	t2,0
830081e0:	fa5ff06f          	j	83008184 <_strtoul_l+0x40>
830081e4:	00084703          	lbu	a4,0(a6)
830081e8:	07800513          	li	a0,120
830081ec:	00a70663          	beq	a4,a0,830081f8 <_strtoul_l+0xb4>
830081f0:	05800513          	li	a0,88
830081f4:	faa712e3          	bne	a4,a0,83008198 <_strtoul_l+0x54>
830081f8:	00184783          	lbu	a5,1(a6)
830081fc:	00280813          	addi	a6,a6,2
83008200:	01000693          	li	a3,16
83008204:	f95ff06f          	j	83008198 <_strtoul_l+0x54>
83008208:	00800693          	li	a3,8
8300820c:	f9dff06f          	j	830081a8 <_strtoul_l+0x64>
83008210:	fbf78713          	addi	a4,a5,-65
83008214:	01900313          	li	t1,25
83008218:	00e36663          	bltu	t1,a4,83008224 <_strtoul_l+0xe0>
8300821c:	fc978793          	addi	a5,a5,-55
83008220:	0400006f          	j	83008260 <_strtoul_l+0x11c>
83008224:	f9f78e13          	addi	t3,a5,-97
83008228:	01900713          	li	a4,25
8300822c:	05c76e63          	bltu	a4,t3,83008288 <_strtoul_l+0x144>
83008230:	fa978793          	addi	a5,a5,-87
83008234:	02c0006f          	j	83008260 <_strtoul_l+0x11c>
83008238:	02ffdc63          	bge	t6,a5,83008270 <_strtoul_l+0x12c>
8300823c:	fff00893          	li	a7,-1
83008240:	0080006f          	j	83008248 <_strtoul_l+0x104>
83008244:	fff00893          	li	a7,-1
83008248:	00084783          	lbu	a5,0(a6)
8300824c:	00180813          	addi	a6,a6,1
83008250:	fd078713          	addi	a4,a5,-48
83008254:	00900313          	li	t1,9
83008258:	fae36ce3          	bltu	t1,a4,83008210 <_strtoul_l+0xcc>
8300825c:	00070793          	mv	a5,a4
83008260:	02d7d463          	bge	a5,a3,83008288 <_strtoul_l+0x144>
83008264:	fe08c0e3          	bltz	a7,83008244 <_strtoul_l+0x100>
83008268:	00aeec63          	bltu	t4,a0,83008280 <_strtoul_l+0x13c>
8300826c:	fdd506e3          	beq	a0,t4,83008238 <_strtoul_l+0xf4>
83008270:	02a28533          	mul	a0,t0,a0
83008274:	00a78533          	add	a0,a5,a0
83008278:	00100893          	li	a7,1
8300827c:	fcdff06f          	j	83008248 <_strtoul_l+0x104>
83008280:	fff00893          	li	a7,-1
83008284:	fc5ff06f          	j	83008248 <_strtoul_l+0x104>
83008288:	0208c063          	bltz	a7,830082a8 <_strtoul_l+0x164>
8300828c:	00038463          	beqz	t2,83008294 <_strtoul_l+0x150>
83008290:	40a00533          	neg	a0,a0
83008294:	00060863          	beqz	a2,830082a4 <_strtoul_l+0x160>
83008298:	00088463          	beqz	a7,830082a0 <_strtoul_l+0x15c>
8300829c:	fff80593          	addi	a1,a6,-1
830082a0:	00b62023          	sw	a1,0(a2)
830082a4:	00008067          	ret
830082a8:	02200793          	li	a5,34
830082ac:	00ff2023          	sw	a5,0(t5)
830082b0:	fff00513          	li	a0,-1
830082b4:	fe1ff06f          	j	83008294 <_strtoul_l+0x150>

830082b8 <_strtoul_r>:
830082b8:	ff010113          	addi	sp,sp,-16
830082bc:	00112623          	sw	ra,12(sp)
830082c0:	00007717          	auipc	a4,0x7
830082c4:	1f070713          	addi	a4,a4,496 # 8300f4b0 <__global_locale>
830082c8:	00000097          	auipc	ra,0x0
830082cc:	e7c080e7          	jalr	-388(ra) # 83008144 <_strtoul_l>
830082d0:	00c12083          	lw	ra,12(sp)
830082d4:	01010113          	addi	sp,sp,16
830082d8:	00008067          	ret

830082dc <strtoul_l>:
830082dc:	ff010113          	addi	sp,sp,-16
830082e0:	00112623          	sw	ra,12(sp)
830082e4:	00068713          	mv	a4,a3
830082e8:	00060693          	mv	a3,a2
830082ec:	00058613          	mv	a2,a1
830082f0:	00050593          	mv	a1,a0
830082f4:	00007517          	auipc	a0,0x7
830082f8:	78c52503          	lw	a0,1932(a0) # 8300fa80 <_impure_ptr>
830082fc:	00000097          	auipc	ra,0x0
83008300:	e48080e7          	jalr	-440(ra) # 83008144 <_strtoul_l>
83008304:	00c12083          	lw	ra,12(sp)
83008308:	01010113          	addi	sp,sp,16
8300830c:	00008067          	ret

83008310 <strtoul>:
83008310:	ff010113          	addi	sp,sp,-16
83008314:	00112623          	sw	ra,12(sp)
83008318:	00060693          	mv	a3,a2
8300831c:	00007717          	auipc	a4,0x7
83008320:	19470713          	addi	a4,a4,404 # 8300f4b0 <__global_locale>
83008324:	00058613          	mv	a2,a1
83008328:	00050593          	mv	a1,a0
8300832c:	00007517          	auipc	a0,0x7
83008330:	75452503          	lw	a0,1876(a0) # 8300fa80 <_impure_ptr>
83008334:	00000097          	auipc	ra,0x0
83008338:	e10080e7          	jalr	-496(ra) # 83008144 <_strtoul_l>
8300833c:	00c12083          	lw	ra,12(sp)
83008340:	01010113          	addi	sp,sp,16
83008344:	00008067          	ret

83008348 <_wctomb_r>:
83008348:	ff010113          	addi	sp,sp,-16
8300834c:	00112623          	sw	ra,12(sp)
83008350:	00007797          	auipc	a5,0x7
83008354:	2407a783          	lw	a5,576(a5) # 8300f590 <__global_locale+0xe0>
83008358:	000780e7          	jalr	a5
8300835c:	00c12083          	lw	ra,12(sp)
83008360:	01010113          	addi	sp,sp,16
83008364:	00008067          	ret

83008368 <__ascii_wctomb>:
83008368:	02058463          	beqz	a1,83008390 <__ascii_wctomb+0x28>
8300836c:	0ff00713          	li	a4,255
83008370:	00c76863          	bltu	a4,a2,83008380 <__ascii_wctomb+0x18>
83008374:	00c58023          	sb	a2,0(a1)
83008378:	00100513          	li	a0,1
8300837c:	00008067          	ret
83008380:	08a00793          	li	a5,138
83008384:	00f52023          	sw	a5,0(a0)
83008388:	fff00513          	li	a0,-1
8300838c:	00008067          	ret
83008390:	00000513          	li	a0,0
83008394:	00008067          	ret

83008398 <fstat>:
83008398:	ff010113          	addi	sp,sp,-16
8300839c:	00112623          	sw	ra,12(sp)
830083a0:	00058613          	mv	a2,a1
830083a4:	00050593          	mv	a1,a0
830083a8:	00007517          	auipc	a0,0x7
830083ac:	6d852503          	lw	a0,1752(a0) # 8300fa80 <_impure_ptr>
830083b0:	ffffe097          	auipc	ra,0xffffe
830083b4:	fe0080e7          	jalr	-32(ra) # 83006390 <_fstat_r>
830083b8:	00c12083          	lw	ra,12(sp)
830083bc:	01010113          	addi	sp,sp,16
830083c0:	00008067          	ret

830083c4 <iswspace>:
830083c4:	ff010113          	addi	sp,sp,-16
830083c8:	00112623          	sw	ra,12(sp)
830083cc:	00000593          	li	a1,0
830083d0:	00002097          	auipc	ra,0x2
830083d4:	0c4080e7          	jalr	196(ra) # 8300a494 <iswspace_l>
830083d8:	00c12083          	lw	ra,12(sp)
830083dc:	01010113          	addi	sp,sp,16
830083e0:	00008067          	ret

830083e4 <memmove>:
830083e4:	02a5fa63          	bgeu	a1,a0,83008418 <memmove+0x34>
830083e8:	00c587b3          	add	a5,a1,a2
830083ec:	02f57663          	bgeu	a0,a5,83008418 <memmove+0x34>
830083f0:	00c50733          	add	a4,a0,a2
830083f4:	0180006f          	j	8300840c <memmove+0x28>
830083f8:	fff78793          	addi	a5,a5,-1
830083fc:	fff70713          	addi	a4,a4,-1
83008400:	0007c603          	lbu	a2,0(a5)
83008404:	00c70023          	sb	a2,0(a4)
83008408:	00068613          	mv	a2,a3
8300840c:	fff60693          	addi	a3,a2,-1
83008410:	fe0614e3          	bnez	a2,830083f8 <memmove+0x14>
83008414:	00008067          	ret
83008418:	00f00793          	li	a5,15
8300841c:	08c7fc63          	bgeu	a5,a2,830084b4 <memmove+0xd0>
83008420:	00b567b3          	or	a5,a0,a1
83008424:	0037f793          	andi	a5,a5,3
83008428:	04078263          	beqz	a5,8300846c <memmove+0x88>
8300842c:	00050793          	mv	a5,a0
83008430:	0780006f          	j	830084a8 <memmove+0xc4>
83008434:	0005a703          	lw	a4,0(a1)
83008438:	00e7a023          	sw	a4,0(a5)
8300843c:	0045a703          	lw	a4,4(a1)
83008440:	00e7a223          	sw	a4,4(a5)
83008444:	0085a703          	lw	a4,8(a1)
83008448:	00e7a423          	sw	a4,8(a5)
8300844c:	00c5a703          	lw	a4,12(a1)
83008450:	00e7a623          	sw	a4,12(a5)
83008454:	ff060613          	addi	a2,a2,-16
83008458:	01058593          	addi	a1,a1,16
8300845c:	01078793          	addi	a5,a5,16
83008460:	00f00713          	li	a4,15
83008464:	fcc768e3          	bltu	a4,a2,83008434 <memmove+0x50>
83008468:	0200006f          	j	83008488 <memmove+0xa4>
8300846c:	00050793          	mv	a5,a0
83008470:	ff1ff06f          	j	83008460 <memmove+0x7c>
83008474:	0005a703          	lw	a4,0(a1)
83008478:	00e7a023          	sw	a4,0(a5)
8300847c:	ffc60613          	addi	a2,a2,-4
83008480:	00458593          	addi	a1,a1,4
83008484:	00478793          	addi	a5,a5,4
83008488:	00300713          	li	a4,3
8300848c:	fec764e3          	bltu	a4,a2,83008474 <memmove+0x90>
83008490:	0180006f          	j	830084a8 <memmove+0xc4>
83008494:	0005c683          	lbu	a3,0(a1)
83008498:	00d78023          	sb	a3,0(a5)
8300849c:	00158593          	addi	a1,a1,1
830084a0:	00178793          	addi	a5,a5,1
830084a4:	00070613          	mv	a2,a4
830084a8:	fff60713          	addi	a4,a2,-1
830084ac:	fe0614e3          	bnez	a2,83008494 <memmove+0xb0>
830084b0:	00008067          	ret
830084b4:	00050793          	mv	a5,a0
830084b8:	ff1ff06f          	j	830084a8 <memmove+0xc4>

830084bc <strlen>:
830084bc:	00050793          	mv	a5,a0
830084c0:	0080006f          	j	830084c8 <strlen+0xc>
830084c4:	00178793          	addi	a5,a5,1
830084c8:	0037f713          	andi	a4,a5,3
830084cc:	00070a63          	beqz	a4,830084e0 <strlen+0x24>
830084d0:	0007c703          	lbu	a4,0(a5)
830084d4:	fe0718e3          	bnez	a4,830084c4 <strlen+0x8>
830084d8:	40a78533          	sub	a0,a5,a0
830084dc:	00008067          	ret
830084e0:	0007a683          	lw	a3,0(a5)
830084e4:	feff0737          	lui	a4,0xfeff0
830084e8:	eff70713          	addi	a4,a4,-257 # fefefeff <__BSS_END__+0x7bfe03f7>
830084ec:	00e68733          	add	a4,a3,a4
830084f0:	fff6c693          	not	a3,a3
830084f4:	00d77733          	and	a4,a4,a3
830084f8:	808086b7          	lui	a3,0x80808
830084fc:	08068693          	addi	a3,a3,128 # 80808080 <__BSS_END__+0xfd7f8578>
83008500:	00d77733          	and	a4,a4,a3
83008504:	00071663          	bnez	a4,83008510 <strlen+0x54>
83008508:	00478793          	addi	a5,a5,4
8300850c:	fd5ff06f          	j	830084e0 <strlen+0x24>
83008510:	0007c703          	lbu	a4,0(a5)
83008514:	00070663          	beqz	a4,83008520 <strlen+0x64>
83008518:	00178793          	addi	a5,a5,1
8300851c:	ff5ff06f          	j	83008510 <strlen+0x54>
83008520:	40a78533          	sub	a0,a5,a0
83008524:	00008067          	ret

83008528 <memcpy>:
83008528:	00f00793          	li	a5,15
8300852c:	08c7fc63          	bgeu	a5,a2,830085c4 <memcpy+0x9c>
83008530:	00b567b3          	or	a5,a0,a1
83008534:	0037f793          	andi	a5,a5,3
83008538:	04078263          	beqz	a5,8300857c <memcpy+0x54>
8300853c:	00050793          	mv	a5,a0
83008540:	0780006f          	j	830085b8 <memcpy+0x90>
83008544:	0005a703          	lw	a4,0(a1)
83008548:	00e7a023          	sw	a4,0(a5)
8300854c:	0045a703          	lw	a4,4(a1)
83008550:	00e7a223          	sw	a4,4(a5)
83008554:	0085a703          	lw	a4,8(a1)
83008558:	00e7a423          	sw	a4,8(a5)
8300855c:	00c5a703          	lw	a4,12(a1)
83008560:	00e7a623          	sw	a4,12(a5)
83008564:	ff060613          	addi	a2,a2,-16
83008568:	01058593          	addi	a1,a1,16
8300856c:	01078793          	addi	a5,a5,16
83008570:	00f00713          	li	a4,15
83008574:	fcc768e3          	bltu	a4,a2,83008544 <memcpy+0x1c>
83008578:	0200006f          	j	83008598 <memcpy+0x70>
8300857c:	00050793          	mv	a5,a0
83008580:	ff1ff06f          	j	83008570 <memcpy+0x48>
83008584:	0005a703          	lw	a4,0(a1)
83008588:	00e7a023          	sw	a4,0(a5)
8300858c:	ffc60613          	addi	a2,a2,-4
83008590:	00458593          	addi	a1,a1,4
83008594:	00478793          	addi	a5,a5,4
83008598:	00300713          	li	a4,3
8300859c:	fec764e3          	bltu	a4,a2,83008584 <memcpy+0x5c>
830085a0:	0180006f          	j	830085b8 <memcpy+0x90>
830085a4:	0005c683          	lbu	a3,0(a1)
830085a8:	00d78023          	sb	a3,0(a5)
830085ac:	00158593          	addi	a1,a1,1
830085b0:	00178793          	addi	a5,a5,1
830085b4:	00070613          	mv	a2,a4
830085b8:	fff60713          	addi	a4,a2,-1
830085bc:	fe0614e3          	bnez	a2,830085a4 <memcpy+0x7c>
830085c0:	00008067          	ret
830085c4:	00050793          	mv	a5,a0
830085c8:	ff1ff06f          	j	830085b8 <memcpy+0x90>

830085cc <memchr>:
830085cc:	0ff5f693          	zext.b	a3,a1
830085d0:	00c0006f          	j	830085dc <memchr+0x10>
830085d4:	00150513          	addi	a0,a0,1
830085d8:	00078613          	mv	a2,a5
830085dc:	00357793          	andi	a5,a0,3
830085e0:	00078c63          	beqz	a5,830085f8 <memchr+0x2c>
830085e4:	fff60793          	addi	a5,a2,-1
830085e8:	08060863          	beqz	a2,83008678 <memchr+0xac>
830085ec:	00054703          	lbu	a4,0(a0)
830085f0:	fed712e3          	bne	a4,a3,830085d4 <memchr+0x8>
830085f4:	0880006f          	j	8300867c <memchr+0xb0>
830085f8:	00300793          	li	a5,3
830085fc:	04c7fc63          	bgeu	a5,a2,83008654 <memchr+0x88>
83008600:	0ff5f593          	zext.b	a1,a1
83008604:	00859793          	slli	a5,a1,0x8
83008608:	00b7e7b3          	or	a5,a5,a1
8300860c:	01079593          	slli	a1,a5,0x10
83008610:	00f5e5b3          	or	a1,a1,a5
83008614:	00c0006f          	j	83008620 <memchr+0x54>
83008618:	ffc60613          	addi	a2,a2,-4
8300861c:	00450513          	addi	a0,a0,4
83008620:	00300793          	li	a5,3
83008624:	02c7f863          	bgeu	a5,a2,83008654 <memchr+0x88>
83008628:	00052703          	lw	a4,0(a0)
8300862c:	00b74733          	xor	a4,a4,a1
83008630:	feff07b7          	lui	a5,0xfeff0
83008634:	eff78793          	addi	a5,a5,-257 # fefefeff <__BSS_END__+0x7bfe03f7>
83008638:	00f707b3          	add	a5,a4,a5
8300863c:	fff74713          	not	a4,a4
83008640:	00e7f7b3          	and	a5,a5,a4
83008644:	80808737          	lui	a4,0x80808
83008648:	08070713          	addi	a4,a4,128 # 80808080 <__BSS_END__+0xfd7f8578>
8300864c:	00e7f7b3          	and	a5,a5,a4
83008650:	fc0784e3          	beqz	a5,83008618 <memchr+0x4c>
83008654:	fff60793          	addi	a5,a2,-1
83008658:	00060c63          	beqz	a2,83008670 <memchr+0xa4>
8300865c:	00054703          	lbu	a4,0(a0)
83008660:	00d70e63          	beq	a4,a3,8300867c <memchr+0xb0>
83008664:	00150513          	addi	a0,a0,1
83008668:	00078613          	mv	a2,a5
8300866c:	fe9ff06f          	j	83008654 <memchr+0x88>
83008670:	00000513          	li	a0,0
83008674:	00008067          	ret
83008678:	00000513          	li	a0,0
8300867c:	00008067          	ret

83008680 <__swbuf_r>:
83008680:	fe010113          	addi	sp,sp,-32
83008684:	00112e23          	sw	ra,28(sp)
83008688:	00812c23          	sw	s0,24(sp)
8300868c:	00912a23          	sw	s1,20(sp)
83008690:	01212823          	sw	s2,16(sp)
83008694:	01312623          	sw	s3,12(sp)
83008698:	00050913          	mv	s2,a0
8300869c:	00058493          	mv	s1,a1
830086a0:	00060413          	mv	s0,a2
830086a4:	00050663          	beqz	a0,830086b0 <__swbuf_r+0x30>
830086a8:	03852783          	lw	a5,56(a0)
830086ac:	0c078063          	beqz	a5,8300876c <__swbuf_r+0xec>
830086b0:	01842783          	lw	a5,24(s0)
830086b4:	00f42423          	sw	a5,8(s0)
830086b8:	00c45783          	lhu	a5,12(s0)
830086bc:	0087f793          	andi	a5,a5,8
830086c0:	00078663          	beqz	a5,830086cc <__swbuf_r+0x4c>
830086c4:	01042783          	lw	a5,16(s0)
830086c8:	00079c63          	bnez	a5,830086e0 <__swbuf_r+0x60>
830086cc:	00040593          	mv	a1,s0
830086d0:	00090513          	mv	a0,s2
830086d4:	ffffa097          	auipc	ra,0xffffa
830086d8:	60c080e7          	jalr	1548(ra) # 83002ce0 <__swsetup_r>
830086dc:	0a051e63          	bnez	a0,83008798 <__swbuf_r+0x118>
830086e0:	0ff4f993          	zext.b	s3,s1
830086e4:	0ff4f493          	zext.b	s1,s1
830086e8:	00042783          	lw	a5,0(s0)
830086ec:	01042703          	lw	a4,16(s0)
830086f0:	40e787b3          	sub	a5,a5,a4
830086f4:	01442703          	lw	a4,20(s0)
830086f8:	08e7d063          	bge	a5,a4,83008778 <__swbuf_r+0xf8>
830086fc:	00842703          	lw	a4,8(s0)
83008700:	fff70713          	addi	a4,a4,-1
83008704:	00e42423          	sw	a4,8(s0)
83008708:	00042703          	lw	a4,0(s0)
8300870c:	00170693          	addi	a3,a4,1
83008710:	00d42023          	sw	a3,0(s0)
83008714:	01370023          	sb	s3,0(a4)
83008718:	01442703          	lw	a4,20(s0)
8300871c:	00178793          	addi	a5,a5,1
83008720:	00f70c63          	beq	a4,a5,83008738 <__swbuf_r+0xb8>
83008724:	00c45783          	lhu	a5,12(s0)
83008728:	0017f793          	andi	a5,a5,1
8300872c:	02078063          	beqz	a5,8300874c <__swbuf_r+0xcc>
83008730:	00a00793          	li	a5,10
83008734:	00f49c63          	bne	s1,a5,8300874c <__swbuf_r+0xcc>
83008738:	00040593          	mv	a1,s0
8300873c:	00090513          	mv	a0,s2
83008740:	ffffb097          	auipc	ra,0xffffb
83008744:	518080e7          	jalr	1304(ra) # 83003c58 <_fflush_r>
83008748:	04051c63          	bnez	a0,830087a0 <__swbuf_r+0x120>
8300874c:	00048513          	mv	a0,s1
83008750:	01c12083          	lw	ra,28(sp)
83008754:	01812403          	lw	s0,24(sp)
83008758:	01412483          	lw	s1,20(sp)
8300875c:	01012903          	lw	s2,16(sp)
83008760:	00c12983          	lw	s3,12(sp)
83008764:	02010113          	addi	sp,sp,32
83008768:	00008067          	ret
8300876c:	ffff9097          	auipc	ra,0xffff9
83008770:	e2c080e7          	jalr	-468(ra) # 83001598 <__sinit>
83008774:	f3dff06f          	j	830086b0 <__swbuf_r+0x30>
83008778:	00040593          	mv	a1,s0
8300877c:	00090513          	mv	a0,s2
83008780:	ffffb097          	auipc	ra,0xffffb
83008784:	4d8080e7          	jalr	1240(ra) # 83003c58 <_fflush_r>
83008788:	00050793          	mv	a5,a0
8300878c:	f60508e3          	beqz	a0,830086fc <__swbuf_r+0x7c>
83008790:	fff00493          	li	s1,-1
83008794:	fb9ff06f          	j	8300874c <__swbuf_r+0xcc>
83008798:	fff00493          	li	s1,-1
8300879c:	fb1ff06f          	j	8300874c <__swbuf_r+0xcc>
830087a0:	fff00493          	li	s1,-1
830087a4:	fa9ff06f          	j	8300874c <__swbuf_r+0xcc>

830087a8 <__swbuf>:
830087a8:	ff010113          	addi	sp,sp,-16
830087ac:	00112623          	sw	ra,12(sp)
830087b0:	00058613          	mv	a2,a1
830087b4:	00050593          	mv	a1,a0
830087b8:	00007517          	auipc	a0,0x7
830087bc:	2c852503          	lw	a0,712(a0) # 8300fa80 <_impure_ptr>
830087c0:	00000097          	auipc	ra,0x0
830087c4:	ec0080e7          	jalr	-320(ra) # 83008680 <__swbuf_r>
830087c8:	00c12083          	lw	ra,12(sp)
830087cc:	01010113          	addi	sp,sp,16
830087d0:	00008067          	ret

830087d4 <_ftello_r>:
830087d4:	ff010113          	addi	sp,sp,-16
830087d8:	00112623          	sw	ra,12(sp)
830087dc:	00812423          	sw	s0,8(sp)
830087e0:	00912223          	sw	s1,4(sp)
830087e4:	00050493          	mv	s1,a0
830087e8:	00058413          	mv	s0,a1
830087ec:	00050663          	beqz	a0,830087f8 <_ftello_r+0x24>
830087f0:	03852783          	lw	a5,56(a0)
830087f4:	06078263          	beqz	a5,83008858 <_ftello_r+0x84>
830087f8:	02842703          	lw	a4,40(s0)
830087fc:	06070463          	beqz	a4,83008864 <_ftello_r+0x90>
83008800:	00c45783          	lhu	a5,12(s0)
83008804:	00c7f613          	andi	a2,a5,12
83008808:	00800693          	li	a3,8
8300880c:	06d60463          	beq	a2,a3,83008874 <_ftello_r+0xa0>
83008810:	000016b7          	lui	a3,0x1
83008814:	00d7f7b3          	and	a5,a5,a3
83008818:	08078c63          	beqz	a5,830088b0 <_ftello_r+0xdc>
8300881c:	05042503          	lw	a0,80(s0)
83008820:	00c45783          	lhu	a5,12(s0)
83008824:	0047f713          	andi	a4,a5,4
83008828:	0a070463          	beqz	a4,830088d0 <_ftello_r+0xfc>
8300882c:	00442783          	lw	a5,4(s0)
83008830:	40f50533          	sub	a0,a0,a5
83008834:	03042783          	lw	a5,48(s0)
83008838:	00078663          	beqz	a5,83008844 <_ftello_r+0x70>
8300883c:	03c42783          	lw	a5,60(s0)
83008840:	40f50533          	sub	a0,a0,a5
83008844:	00c12083          	lw	ra,12(sp)
83008848:	00812403          	lw	s0,8(sp)
8300884c:	00412483          	lw	s1,4(sp)
83008850:	01010113          	addi	sp,sp,16
83008854:	00008067          	ret
83008858:	ffff9097          	auipc	ra,0xffff9
8300885c:	d40080e7          	jalr	-704(ra) # 83001598 <__sinit>
83008860:	f99ff06f          	j	830087f8 <_ftello_r+0x24>
83008864:	01d00793          	li	a5,29
83008868:	00f4a023          	sw	a5,0(s1)
8300886c:	fff00513          	li	a0,-1
83008870:	fd5ff06f          	j	83008844 <_ftello_r+0x70>
83008874:	00042683          	lw	a3,0(s0)
83008878:	f8068ce3          	beqz	a3,83008810 <_ftello_r+0x3c>
8300887c:	01042603          	lw	a2,16(s0)
83008880:	40c686b3          	sub	a3,a3,a2
83008884:	f8d056e3          	blez	a3,83008810 <_ftello_r+0x3c>
83008888:	1007f693          	andi	a3,a5,256
8300888c:	f80682e3          	beqz	a3,83008810 <_ftello_r+0x3c>
83008890:	00200693          	li	a3,2
83008894:	00000613          	li	a2,0
83008898:	01c42583          	lw	a1,28(s0)
8300889c:	00048513          	mv	a0,s1
830088a0:	000700e7          	jalr	a4
830088a4:	fff00793          	li	a5,-1
830088a8:	f6f51ce3          	bne	a0,a5,83008820 <_ftello_r+0x4c>
830088ac:	f99ff06f          	j	83008844 <_ftello_r+0x70>
830088b0:	00100693          	li	a3,1
830088b4:	00000613          	li	a2,0
830088b8:	01c42583          	lw	a1,28(s0)
830088bc:	00048513          	mv	a0,s1
830088c0:	000700e7          	jalr	a4
830088c4:	fff00793          	li	a5,-1
830088c8:	f4f51ce3          	bne	a0,a5,83008820 <_ftello_r+0x4c>
830088cc:	f79ff06f          	j	83008844 <_ftello_r+0x70>
830088d0:	0087f793          	andi	a5,a5,8
830088d4:	f60788e3          	beqz	a5,83008844 <_ftello_r+0x70>
830088d8:	00042783          	lw	a5,0(s0)
830088dc:	f60784e3          	beqz	a5,83008844 <_ftello_r+0x70>
830088e0:	01042703          	lw	a4,16(s0)
830088e4:	40e787b3          	sub	a5,a5,a4
830088e8:	00f50533          	add	a0,a0,a5
830088ec:	f59ff06f          	j	83008844 <_ftello_r+0x70>

830088f0 <ftello>:
830088f0:	ff010113          	addi	sp,sp,-16
830088f4:	00112623          	sw	ra,12(sp)
830088f8:	00050593          	mv	a1,a0
830088fc:	00007517          	auipc	a0,0x7
83008900:	18452503          	lw	a0,388(a0) # 8300fa80 <_impure_ptr>
83008904:	00000097          	auipc	ra,0x0
83008908:	ed0080e7          	jalr	-304(ra) # 830087d4 <_ftello_r>
8300890c:	00c12083          	lw	ra,12(sp)
83008910:	01010113          	addi	sp,sp,16
83008914:	00008067          	ret

83008918 <__sccl>:
83008918:	00050693          	mv	a3,a0
8300891c:	00158513          	addi	a0,a1,1
83008920:	0005c803          	lbu	a6,0(a1)
83008924:	05e00793          	li	a5,94
83008928:	00f80863          	beq	a6,a5,83008938 <__sccl+0x20>
8300892c:	00000613          	li	a2,0
83008930:	00000793          	li	a5,0
83008934:	0200006f          	j	83008954 <__sccl+0x3c>
83008938:	00258513          	addi	a0,a1,2
8300893c:	0015c803          	lbu	a6,1(a1)
83008940:	00100613          	li	a2,1
83008944:	fedff06f          	j	83008930 <__sccl+0x18>
83008948:	00f68733          	add	a4,a3,a5
8300894c:	00c70023          	sb	a2,0(a4)
83008950:	00178793          	addi	a5,a5,1
83008954:	0ff00713          	li	a4,255
83008958:	fef758e3          	bge	a4,a5,83008948 <__sccl+0x30>
8300895c:	04080263          	beqz	a6,830089a0 <__sccl+0x88>
83008960:	00100593          	li	a1,1
83008964:	40c585b3          	sub	a1,a1,a2
83008968:	010687b3          	add	a5,a3,a6
8300896c:	0ff5f713          	zext.b	a4,a1
83008970:	00e78023          	sb	a4,0(a5)
83008974:	00150893          	addi	a7,a0,1
83008978:	00054783          	lbu	a5,0(a0)
8300897c:	00078313          	mv	t1,a5
83008980:	02d00613          	li	a2,45
83008984:	02c78c63          	beq	a5,a2,830089bc <__sccl+0xa4>
83008988:	05d00713          	li	a4,93
8300898c:	04e78c63          	beq	a5,a4,830089e4 <__sccl+0xcc>
83008990:	02078463          	beqz	a5,830089b8 <__sccl+0xa0>
83008994:	00030813          	mv	a6,t1
83008998:	00088513          	mv	a0,a7
8300899c:	fcdff06f          	j	83008968 <__sccl+0x50>
830089a0:	fff50513          	addi	a0,a0,-1
830089a4:	00008067          	ret
830089a8:	02d00313          	li	t1,45
830089ac:	fe9ff06f          	j	83008994 <__sccl+0x7c>
830089b0:	02d00313          	li	t1,45
830089b4:	fe1ff06f          	j	83008994 <__sccl+0x7c>
830089b8:	00008067          	ret
830089bc:	00154603          	lbu	a2,1(a0)
830089c0:	05d00793          	li	a5,93
830089c4:	fef602e3          	beq	a2,a5,830089a8 <__sccl+0x90>
830089c8:	ff0644e3          	blt	a2,a6,830089b0 <__sccl+0x98>
830089cc:	00250513          	addi	a0,a0,2
830089d0:	00180813          	addi	a6,a6,1
830089d4:	010687b3          	add	a5,a3,a6
830089d8:	00e78023          	sb	a4,0(a5)
830089dc:	fec84ae3          	blt	a6,a2,830089d0 <__sccl+0xb8>
830089e0:	f95ff06f          	j	83008974 <__sccl+0x5c>
830089e4:	00088513          	mv	a0,a7
830089e8:	00008067          	ret

830089ec <_fputc_r>:
830089ec:	ff010113          	addi	sp,sp,-16
830089f0:	00112623          	sw	ra,12(sp)
830089f4:	00812423          	sw	s0,8(sp)
830089f8:	00912223          	sw	s1,4(sp)
830089fc:	01212023          	sw	s2,0(sp)
83008a00:	00050413          	mv	s0,a0
83008a04:	00058493          	mv	s1,a1
83008a08:	00060913          	mv	s2,a2
83008a0c:	00050663          	beqz	a0,83008a18 <_fputc_r+0x2c>
83008a10:	03852783          	lw	a5,56(a0)
83008a14:	02078863          	beqz	a5,83008a44 <_fputc_r+0x58>
83008a18:	00090613          	mv	a2,s2
83008a1c:	00048593          	mv	a1,s1
83008a20:	00040513          	mv	a0,s0
83008a24:	00002097          	auipc	ra,0x2
83008a28:	a98080e7          	jalr	-1384(ra) # 8300a4bc <_putc_r>
83008a2c:	00c12083          	lw	ra,12(sp)
83008a30:	00812403          	lw	s0,8(sp)
83008a34:	00412483          	lw	s1,4(sp)
83008a38:	00012903          	lw	s2,0(sp)
83008a3c:	01010113          	addi	sp,sp,16
83008a40:	00008067          	ret
83008a44:	ffff9097          	auipc	ra,0xffff9
83008a48:	b54080e7          	jalr	-1196(ra) # 83001598 <__sinit>
83008a4c:	fcdff06f          	j	83008a18 <_fputc_r+0x2c>

83008a50 <fputc>:
83008a50:	ff010113          	addi	sp,sp,-16
83008a54:	00112623          	sw	ra,12(sp)
83008a58:	00812423          	sw	s0,8(sp)
83008a5c:	00912223          	sw	s1,4(sp)
83008a60:	01212023          	sw	s2,0(sp)
83008a64:	00050413          	mv	s0,a0
83008a68:	00058493          	mv	s1,a1
83008a6c:	00007917          	auipc	s2,0x7
83008a70:	01492903          	lw	s2,20(s2) # 8300fa80 <_impure_ptr>
83008a74:	00090663          	beqz	s2,83008a80 <fputc+0x30>
83008a78:	03892783          	lw	a5,56(s2)
83008a7c:	02078863          	beqz	a5,83008aac <fputc+0x5c>
83008a80:	00048613          	mv	a2,s1
83008a84:	00040593          	mv	a1,s0
83008a88:	00090513          	mv	a0,s2
83008a8c:	00002097          	auipc	ra,0x2
83008a90:	a30080e7          	jalr	-1488(ra) # 8300a4bc <_putc_r>
83008a94:	00c12083          	lw	ra,12(sp)
83008a98:	00812403          	lw	s0,8(sp)
83008a9c:	00412483          	lw	s1,4(sp)
83008aa0:	00012903          	lw	s2,0(sp)
83008aa4:	01010113          	addi	sp,sp,16
83008aa8:	00008067          	ret
83008aac:	00090513          	mv	a0,s2
83008ab0:	ffff9097          	auipc	ra,0xffff9
83008ab4:	ae8080e7          	jalr	-1304(ra) # 83001598 <__sinit>
83008ab8:	fc9ff06f          	j	83008a80 <fputc+0x30>

83008abc <_sungetc_r>:
83008abc:	ff010113          	addi	sp,sp,-16
83008ac0:	00112623          	sw	ra,12(sp)
83008ac4:	00812423          	sw	s0,8(sp)
83008ac8:	00912223          	sw	s1,4(sp)
83008acc:	01212023          	sw	s2,0(sp)
83008ad0:	fff00793          	li	a5,-1
83008ad4:	0ef58463          	beq	a1,a5,83008bbc <_sungetc_r+0x100>
83008ad8:	00060413          	mv	s0,a2
83008adc:	00c65783          	lhu	a5,12(a2)
83008ae0:	fdf7f793          	andi	a5,a5,-33
83008ae4:	00f61623          	sh	a5,12(a2)
83008ae8:	0ff5f913          	zext.b	s2,a1
83008aec:	0ff5f493          	zext.b	s1,a1
83008af0:	03062783          	lw	a5,48(a2)
83008af4:	06078063          	beqz	a5,83008b54 <_sungetc_r+0x98>
83008af8:	00462703          	lw	a4,4(a2)
83008afc:	03462783          	lw	a5,52(a2)
83008b00:	02f75e63          	bge	a4,a5,83008b3c <_sungetc_r+0x80>
83008b04:	00042783          	lw	a5,0(s0)
83008b08:	fff78713          	addi	a4,a5,-1
83008b0c:	00e42023          	sw	a4,0(s0)
83008b10:	ff278fa3          	sb	s2,-1(a5)
83008b14:	00442783          	lw	a5,4(s0)
83008b18:	00178793          	addi	a5,a5,1
83008b1c:	00f42223          	sw	a5,4(s0)
83008b20:	00048513          	mv	a0,s1
83008b24:	00c12083          	lw	ra,12(sp)
83008b28:	00812403          	lw	s0,8(sp)
83008b2c:	00412483          	lw	s1,4(sp)
83008b30:	00012903          	lw	s2,0(sp)
83008b34:	01010113          	addi	sp,sp,16
83008b38:	00008067          	ret
83008b3c:	00060593          	mv	a1,a2
83008b40:	00001097          	auipc	ra,0x1
83008b44:	61c080e7          	jalr	1564(ra) # 8300a15c <__submore>
83008b48:	fa050ee3          	beqz	a0,83008b04 <_sungetc_r+0x48>
83008b4c:	fff00493          	li	s1,-1
83008b50:	fd1ff06f          	j	83008b20 <_sungetc_r+0x64>
83008b54:	01062783          	lw	a5,16(a2)
83008b58:	00078a63          	beqz	a5,83008b6c <_sungetc_r+0xb0>
83008b5c:	00062703          	lw	a4,0(a2)
83008b60:	00e7f663          	bgeu	a5,a4,83008b6c <_sungetc_r+0xb0>
83008b64:	fff74783          	lbu	a5,-1(a4)
83008b68:	02978e63          	beq	a5,s1,83008ba4 <_sungetc_r+0xe8>
83008b6c:	00442783          	lw	a5,4(s0)
83008b70:	02f42e23          	sw	a5,60(s0)
83008b74:	00042783          	lw	a5,0(s0)
83008b78:	02f42c23          	sw	a5,56(s0)
83008b7c:	04040793          	addi	a5,s0,64
83008b80:	02f42823          	sw	a5,48(s0)
83008b84:	00300793          	li	a5,3
83008b88:	02f42a23          	sw	a5,52(s0)
83008b8c:	05240123          	sb	s2,66(s0)
83008b90:	04240793          	addi	a5,s0,66
83008b94:	00f42023          	sw	a5,0(s0)
83008b98:	00100793          	li	a5,1
83008b9c:	00f42223          	sw	a5,4(s0)
83008ba0:	f81ff06f          	j	83008b20 <_sungetc_r+0x64>
83008ba4:	fff70713          	addi	a4,a4,-1
83008ba8:	00e62023          	sw	a4,0(a2)
83008bac:	00462783          	lw	a5,4(a2)
83008bb0:	00178793          	addi	a5,a5,1
83008bb4:	00f62223          	sw	a5,4(a2)
83008bb8:	f69ff06f          	j	83008b20 <_sungetc_r+0x64>
83008bbc:	00058493          	mv	s1,a1
83008bc0:	f61ff06f          	j	83008b20 <_sungetc_r+0x64>

83008bc4 <__ssrefill_r>:
83008bc4:	ff010113          	addi	sp,sp,-16
83008bc8:	00112623          	sw	ra,12(sp)
83008bcc:	00812423          	sw	s0,8(sp)
83008bd0:	00058413          	mv	s0,a1
83008bd4:	0305a583          	lw	a1,48(a1)
83008bd8:	04058063          	beqz	a1,83008c18 <__ssrefill_r+0x54>
83008bdc:	04040793          	addi	a5,s0,64
83008be0:	00f58663          	beq	a1,a5,83008bec <__ssrefill_r+0x28>
83008be4:	fffff097          	auipc	ra,0xfffff
83008be8:	994080e7          	jalr	-1644(ra) # 83007578 <_free_r>
83008bec:	02042823          	sw	zero,48(s0)
83008bf0:	03c42783          	lw	a5,60(s0)
83008bf4:	00f42223          	sw	a5,4(s0)
83008bf8:	02078063          	beqz	a5,83008c18 <__ssrefill_r+0x54>
83008bfc:	03842783          	lw	a5,56(s0)
83008c00:	00f42023          	sw	a5,0(s0)
83008c04:	00000513          	li	a0,0
83008c08:	00c12083          	lw	ra,12(sp)
83008c0c:	00812403          	lw	s0,8(sp)
83008c10:	01010113          	addi	sp,sp,16
83008c14:	00008067          	ret
83008c18:	01042783          	lw	a5,16(s0)
83008c1c:	00f42023          	sw	a5,0(s0)
83008c20:	00042223          	sw	zero,4(s0)
83008c24:	00c45783          	lhu	a5,12(s0)
83008c28:	0207e793          	ori	a5,a5,32
83008c2c:	00f41623          	sh	a5,12(s0)
83008c30:	fff00513          	li	a0,-1
83008c34:	fd5ff06f          	j	83008c08 <__ssrefill_r+0x44>

83008c38 <_sfread_r>:
83008c38:	fd010113          	addi	sp,sp,-48
83008c3c:	02112623          	sw	ra,44(sp)
83008c40:	02812423          	sw	s0,40(sp)
83008c44:	02912223          	sw	s1,36(sp)
83008c48:	03212023          	sw	s2,32(sp)
83008c4c:	01312e23          	sw	s3,28(sp)
83008c50:	01412c23          	sw	s4,24(sp)
83008c54:	01512a23          	sw	s5,20(sp)
83008c58:	01612823          	sw	s6,16(sp)
83008c5c:	01712623          	sw	s7,12(sp)
83008c60:	01812423          	sw	s8,8(sp)
83008c64:	02c68bb3          	mul	s7,a3,a2
83008c68:	0a0b8663          	beqz	s7,83008d14 <_sfread_r+0xdc>
83008c6c:	00050a93          	mv	s5,a0
83008c70:	00058913          	mv	s2,a1
83008c74:	00060b13          	mv	s6,a2
83008c78:	00068c13          	mv	s8,a3
83008c7c:	00070413          	mv	s0,a4
83008c80:	000b8993          	mv	s3,s7
83008c84:	00442483          	lw	s1,4(s0)
83008c88:	0534fe63          	bgeu	s1,s3,83008ce4 <_sfread_r+0xac>
83008c8c:	00048613          	mv	a2,s1
83008c90:	00042583          	lw	a1,0(s0)
83008c94:	00090513          	mv	a0,s2
83008c98:	00000097          	auipc	ra,0x0
83008c9c:	890080e7          	jalr	-1904(ra) # 83008528 <memcpy>
83008ca0:	00042783          	lw	a5,0(s0)
83008ca4:	009787b3          	add	a5,a5,s1
83008ca8:	00f42023          	sw	a5,0(s0)
83008cac:	00042223          	sw	zero,4(s0)
83008cb0:	00990933          	add	s2,s2,s1
83008cb4:	40998a33          	sub	s4,s3,s1
83008cb8:	00040593          	mv	a1,s0
83008cbc:	000a8513          	mv	a0,s5
83008cc0:	00000097          	auipc	ra,0x0
83008cc4:	f04080e7          	jalr	-252(ra) # 83008bc4 <__ssrefill_r>
83008cc8:	00051663          	bnez	a0,83008cd4 <_sfread_r+0x9c>
83008ccc:	000a0993          	mv	s3,s4
83008cd0:	fb5ff06f          	j	83008c84 <_sfread_r+0x4c>
83008cd4:	413484b3          	sub	s1,s1,s3
83008cd8:	017484b3          	add	s1,s1,s7
83008cdc:	0364dbb3          	divu	s7,s1,s6
83008ce0:	0340006f          	j	83008d14 <_sfread_r+0xdc>
83008ce4:	00098613          	mv	a2,s3
83008ce8:	00042583          	lw	a1,0(s0)
83008cec:	00090513          	mv	a0,s2
83008cf0:	00000097          	auipc	ra,0x0
83008cf4:	838080e7          	jalr	-1992(ra) # 83008528 <memcpy>
83008cf8:	00442783          	lw	a5,4(s0)
83008cfc:	413787b3          	sub	a5,a5,s3
83008d00:	00f42223          	sw	a5,4(s0)
83008d04:	00042783          	lw	a5,0(s0)
83008d08:	013787b3          	add	a5,a5,s3
83008d0c:	00f42023          	sw	a5,0(s0)
83008d10:	000c0b93          	mv	s7,s8
83008d14:	000b8513          	mv	a0,s7
83008d18:	02c12083          	lw	ra,44(sp)
83008d1c:	02812403          	lw	s0,40(sp)
83008d20:	02412483          	lw	s1,36(sp)
83008d24:	02012903          	lw	s2,32(sp)
83008d28:	01c12983          	lw	s3,28(sp)
83008d2c:	01812a03          	lw	s4,24(sp)
83008d30:	01412a83          	lw	s5,20(sp)
83008d34:	01012b03          	lw	s6,16(sp)
83008d38:	00c12b83          	lw	s7,12(sp)
83008d3c:	00812c03          	lw	s8,8(sp)
83008d40:	03010113          	addi	sp,sp,48
83008d44:	00008067          	ret

83008d48 <__ssvfiscanf_r>:
83008d48:	e7010113          	addi	sp,sp,-400
83008d4c:	18112623          	sw	ra,396(sp)
83008d50:	18812423          	sw	s0,392(sp)
83008d54:	18912223          	sw	s1,388(sp)
83008d58:	19212023          	sw	s2,384(sp)
83008d5c:	17312e23          	sw	s3,380(sp)
83008d60:	17412c23          	sw	s4,376(sp)
83008d64:	17512a23          	sw	s5,372(sp)
83008d68:	17612823          	sw	s6,368(sp)
83008d6c:	17712623          	sw	s7,364(sp)
83008d70:	17812423          	sw	s8,360(sp)
83008d74:	17912223          	sw	s9,356(sp)
83008d78:	17a12023          	sw	s10,352(sp)
83008d7c:	15b12e23          	sw	s11,348(sp)
83008d80:	00050a93          	mv	s5,a0
83008d84:	00058413          	mv	s0,a1
83008d88:	00060993          	mv	s3,a2
83008d8c:	00d12623          	sw	a3,12(sp)
83008d90:	00012223          	sw	zero,4(sp)
83008d94:	00000a13          	li	s4,0
83008d98:	00000c13          	li	s8,0
83008d9c:	00000493          	li	s1,0
83008da0:	00000d13          	li	s10,0
83008da4:	0e40006f          	j	83008e88 <__ssvfiscanf_r+0x140>
83008da8:	00058993          	mv	s3,a1
83008dac:	0dc0006f          	j	83008e88 <__ssvfiscanf_r+0x140>
83008db0:	00042783          	lw	a5,0(s0)
83008db4:	0007c703          	lbu	a4,0(a5)
83008db8:	00005697          	auipc	a3,0x5
83008dbc:	e4568693          	addi	a3,a3,-443 # 8300dbfd <_ctype_+0x1>
83008dc0:	00d70733          	add	a4,a4,a3
83008dc4:	00074703          	lbu	a4,0(a4)
83008dc8:	00877713          	andi	a4,a4,8
83008dcc:	0a070e63          	beqz	a4,83008e88 <__ssvfiscanf_r+0x140>
83008dd0:	00148493          	addi	s1,s1,1
83008dd4:	00442703          	lw	a4,4(s0)
83008dd8:	fff70713          	addi	a4,a4,-1
83008ddc:	00e42223          	sw	a4,4(s0)
83008de0:	00178793          	addi	a5,a5,1
83008de4:	00f42023          	sw	a5,0(s0)
83008de8:	00442783          	lw	a5,4(s0)
83008dec:	fcf042e3          	bgtz	a5,83008db0 <__ssvfiscanf_r+0x68>
83008df0:	00040593          	mv	a1,s0
83008df4:	000a8513          	mv	a0,s5
83008df8:	00000097          	auipc	ra,0x0
83008dfc:	dcc080e7          	jalr	-564(ra) # 83008bc4 <__ssrefill_r>
83008e00:	fa0508e3          	beqz	a0,83008db0 <__ssvfiscanf_r+0x68>
83008e04:	0840006f          	j	83008e88 <__ssvfiscanf_r+0x140>
83008e08:	00058993          	mv	s3,a1
83008e0c:	fffff797          	auipc	a5,0xfffff
83008e10:	4ac78793          	addi	a5,a5,1196 # 830082b8 <_strtoul_r>
83008e14:	00f12223          	sw	a5,4(sp)
83008e18:	00800c13          	li	s8,8
83008e1c:	00300b13          	li	s6,3
83008e20:	00442783          	lw	a5,4(s0)
83008e24:	34f05463          	blez	a5,8300916c <__ssvfiscanf_r+0x424>
83008e28:	040bf793          	andi	a5,s7,64
83008e2c:	36078663          	beqz	a5,83009198 <__ssvfiscanf_r+0x450>
83008e30:	00200793          	li	a5,2
83008e34:	04fb0ce3          	beq	s6,a5,8300968c <__ssvfiscanf_r+0x944>
83008e38:	3b67c063          	blt	a5,s6,830091d8 <__ssvfiscanf_r+0x490>
83008e3c:	3a0b0e63          	beqz	s6,830091f8 <__ssvfiscanf_r+0x4b0>
83008e40:	00100793          	li	a5,1
83008e44:	04fb1263          	bne	s6,a5,83008e88 <__ssvfiscanf_r+0x140>
83008e48:	00091463          	bnez	s2,83008e50 <__ssvfiscanf_r+0x108>
83008e4c:	fff00913          	li	s2,-1
83008e50:	001bfc93          	andi	s9,s7,1
83008e54:	580c9863          	bnez	s9,830093e4 <__ssvfiscanf_r+0x69c>
83008e58:	010bfb13          	andi	s6,s7,16
83008e5c:	740b1663          	bnez	s6,830095a8 <__ssvfiscanf_r+0x860>
83008e60:	00c12783          	lw	a5,12(sp)
83008e64:	00478713          	addi	a4,a5,4
83008e68:	00e12623          	sw	a4,12(sp)
83008e6c:	0007ab03          	lw	s6,0(a5)
83008e70:	000b0693          	mv	a3,s6
83008e74:	7980006f          	j	8300960c <__ssvfiscanf_r+0x8c4>
83008e78:	00058993          	mv	s3,a1
83008e7c:	fff98b13          	addi	s6,s3,-1
83008e80:	00000913          	li	s2,0
83008e84:	07205863          	blez	s2,83008ef4 <__ssvfiscanf_r+0x1ac>
83008e88:	0009c783          	lbu	a5,0(s3)
83008e8c:	14f12623          	sw	a5,332(sp)
83008e90:	00198993          	addi	s3,s3,1
83008e94:	0c078063          	beqz	a5,83008f54 <__ssvfiscanf_r+0x20c>
83008e98:	00005717          	auipc	a4,0x5
83008e9c:	d6570713          	addi	a4,a4,-667 # 8300dbfd <_ctype_+0x1>
83008ea0:	00e78733          	add	a4,a5,a4
83008ea4:	00074703          	lbu	a4,0(a4)
83008ea8:	00877713          	andi	a4,a4,8
83008eac:	f2071ee3          	bnez	a4,83008de8 <__ssvfiscanf_r+0xa0>
83008eb0:	02500713          	li	a4,37
83008eb4:	fce794e3          	bne	a5,a4,83008e7c <__ssvfiscanf_r+0x134>
83008eb8:	00000b93          	li	s7,0
83008ebc:	00000913          	li	s2,0
83008ec0:	00198593          	addi	a1,s3,1
83008ec4:	0009c703          	lbu	a4,0(s3)
83008ec8:	fdb70793          	addi	a5,a4,-37
83008ecc:	0ff7f613          	zext.b	a2,a5
83008ed0:	05300693          	li	a3,83
83008ed4:	08c6e063          	bltu	a3,a2,83008f54 <__ssvfiscanf_r+0x20c>
83008ed8:	00261793          	slli	a5,a2,0x2
83008edc:	00005697          	auipc	a3,0x5
83008ee0:	e2468693          	addi	a3,a3,-476 # 8300dd00 <_ctype_+0x104>
83008ee4:	00d787b3          	add	a5,a5,a3
83008ee8:	0007a783          	lw	a5,0(a5)
83008eec:	00d787b3          	add	a5,a5,a3
83008ef0:	00078067          	jr	a5
83008ef4:	00442783          	lw	a5,4(s0)
83008ef8:	02f05c63          	blez	a5,83008f30 <__ssvfiscanf_r+0x1e8>
83008efc:	00042783          	lw	a5,0(s0)
83008f00:	0007c683          	lbu	a3,0(a5)
83008f04:	000b4703          	lbu	a4,0(s6)
83008f08:	04e69663          	bne	a3,a4,83008f54 <__ssvfiscanf_r+0x20c>
83008f0c:	00442703          	lw	a4,4(s0)
83008f10:	fff70713          	addi	a4,a4,-1
83008f14:	00e42223          	sw	a4,4(s0)
83008f18:	00178793          	addi	a5,a5,1
83008f1c:	00f42023          	sw	a5,0(s0)
83008f20:	00148493          	addi	s1,s1,1
83008f24:	001b0b13          	addi	s6,s6,1
83008f28:	00190913          	addi	s2,s2,1
83008f2c:	f59ff06f          	j	83008e84 <__ssvfiscanf_r+0x13c>
83008f30:	00040593          	mv	a1,s0
83008f34:	000a8513          	mv	a0,s5
83008f38:	00000097          	auipc	ra,0x0
83008f3c:	c8c080e7          	jalr	-884(ra) # 83008bc4 <__ssrefill_r>
83008f40:	fa050ee3          	beqz	a0,83008efc <__ssvfiscanf_r+0x1b4>
83008f44:	420d0ee3          	beqz	s10,83009b80 <__ssvfiscanf_r+0xe38>
83008f48:	00c45783          	lhu	a5,12(s0)
83008f4c:	0407f793          	andi	a5,a5,64
83008f50:	420794e3          	bnez	a5,83009b78 <__ssvfiscanf_r+0xe30>
83008f54:	000d0513          	mv	a0,s10
83008f58:	18c12083          	lw	ra,396(sp)
83008f5c:	18812403          	lw	s0,392(sp)
83008f60:	18412483          	lw	s1,388(sp)
83008f64:	18012903          	lw	s2,384(sp)
83008f68:	17c12983          	lw	s3,380(sp)
83008f6c:	17812a03          	lw	s4,376(sp)
83008f70:	17412a83          	lw	s5,372(sp)
83008f74:	17012b03          	lw	s6,368(sp)
83008f78:	16c12b83          	lw	s7,364(sp)
83008f7c:	16812c03          	lw	s8,360(sp)
83008f80:	16412c83          	lw	s9,356(sp)
83008f84:	16012d03          	lw	s10,352(sp)
83008f88:	15c12d83          	lw	s11,348(sp)
83008f8c:	19010113          	addi	sp,sp,400
83008f90:	00008067          	ret
83008f94:	09fbf793          	andi	a5,s7,159
83008f98:	fa079ee3          	bnez	a5,83008f54 <__ssvfiscanf_r+0x20c>
83008f9c:	fa091ce3          	bnez	s2,83008f54 <__ssvfiscanf_r+0x20c>
83008fa0:	010beb93          	ori	s7,s7,16
83008fa4:	0100006f          	j	83008fb4 <__ssvfiscanf_r+0x26c>
83008fa8:	00fbf793          	andi	a5,s7,15
83008fac:	fa0794e3          	bnez	a5,83008f54 <__ssvfiscanf_r+0x20c>
83008fb0:	001beb93          	ori	s7,s7,1
83008fb4:	00058993          	mv	s3,a1
83008fb8:	f09ff06f          	j	83008ec0 <__ssvfiscanf_r+0x178>
83008fbc:	00fbf793          	andi	a5,s7,15
83008fc0:	f8079ae3          	bnez	a5,83008f54 <__ssvfiscanf_r+0x20c>
83008fc4:	002beb93          	ori	s7,s7,2
83008fc8:	fedff06f          	j	83008fb4 <__ssvfiscanf_r+0x26c>
83008fcc:	00fbf793          	andi	a5,s7,15
83008fd0:	f80792e3          	bnez	a5,83008f54 <__ssvfiscanf_r+0x20c>
83008fd4:	004beb93          	ori	s7,s7,4
83008fd8:	fddff06f          	j	83008fb4 <__ssvfiscanf_r+0x26c>
83008fdc:	08fbf793          	andi	a5,s7,143
83008fe0:	f6079ae3          	bnez	a5,83008f54 <__ssvfiscanf_r+0x20c>
83008fe4:	00291793          	slli	a5,s2,0x2
83008fe8:	012787b3          	add	a5,a5,s2
83008fec:	00179793          	slli	a5,a5,0x1
83008ff0:	00f70733          	add	a4,a4,a5
83008ff4:	fd070913          	addi	s2,a4,-48
83008ff8:	fbdff06f          	j	83008fb4 <__ssvfiscanf_r+0x26c>
83008ffc:	001beb93          	ori	s7,s7,1
83009000:	00058993          	mv	s3,a1
83009004:	ffffe797          	auipc	a5,0xffffe
83009008:	bc478793          	addi	a5,a5,-1084 # 83006bc8 <_strtol_r>
8300900c:	00f12223          	sw	a5,4(sp)
83009010:	00a00c13          	li	s8,10
83009014:	00300b13          	li	s6,3
83009018:	e09ff06f          	j	83008e20 <__ssvfiscanf_r+0xd8>
8300901c:	001beb93          	ori	s7,s7,1
83009020:	00058993          	mv	s3,a1
83009024:	fffff797          	auipc	a5,0xfffff
83009028:	29478793          	addi	a5,a5,660 # 830082b8 <_strtoul_r>
8300902c:	00f12223          	sw	a5,4(sp)
83009030:	00800c13          	li	s8,8
83009034:	00300b13          	li	s6,3
83009038:	de9ff06f          	j	83008e20 <__ssvfiscanf_r+0xd8>
8300903c:	00058993          	mv	s3,a1
83009040:	fffff797          	auipc	a5,0xfffff
83009044:	27878793          	addi	a5,a5,632 # 830082b8 <_strtoul_r>
83009048:	00f12223          	sw	a5,4(sp)
8300904c:	00a00c13          	li	s8,10
83009050:	00300b13          	li	s6,3
83009054:	dcdff06f          	j	83008e20 <__ssvfiscanf_r+0xd8>
83009058:	200beb93          	ori	s7,s7,512
8300905c:	00058993          	mv	s3,a1
83009060:	fffff797          	auipc	a5,0xfffff
83009064:	25878793          	addi	a5,a5,600 # 830082b8 <_strtoul_r>
83009068:	00f12223          	sw	a5,4(sp)
8300906c:	01000c13          	li	s8,16
83009070:	00300b13          	li	s6,3
83009074:	dadff06f          	j	83008e20 <__ssvfiscanf_r+0xd8>
83009078:	00058993          	mv	s3,a1
8300907c:	00200b13          	li	s6,2
83009080:	da1ff06f          	j	83008e20 <__ssvfiscanf_r+0xd8>
83009084:	04c10513          	addi	a0,sp,76
83009088:	00000097          	auipc	ra,0x0
8300908c:	890080e7          	jalr	-1904(ra) # 83008918 <__sccl>
83009090:	00050993          	mv	s3,a0
83009094:	040beb93          	ori	s7,s7,64
83009098:	00100b13          	li	s6,1
8300909c:	d85ff06f          	j	83008e20 <__ssvfiscanf_r+0xd8>
830090a0:	040beb93          	ori	s7,s7,64
830090a4:	00058993          	mv	s3,a1
830090a8:	00000b13          	li	s6,0
830090ac:	d75ff06f          	j	83008e20 <__ssvfiscanf_r+0xd8>
830090b0:	220beb93          	ori	s7,s7,544
830090b4:	00058993          	mv	s3,a1
830090b8:	fffff797          	auipc	a5,0xfffff
830090bc:	20078793          	addi	a5,a5,512 # 830082b8 <_strtoul_r>
830090c0:	00f12223          	sw	a5,4(sp)
830090c4:	01000c13          	li	s8,16
830090c8:	00300b13          	li	s6,3
830090cc:	d55ff06f          	j	83008e20 <__ssvfiscanf_r+0xd8>
830090d0:	010bf793          	andi	a5,s7,16
830090d4:	cc079ae3          	bnez	a5,83008da8 <__ssvfiscanf_r+0x60>
830090d8:	004bf793          	andi	a5,s7,4
830090dc:	02078063          	beqz	a5,830090fc <__ssvfiscanf_r+0x3b4>
830090e0:	00c12783          	lw	a5,12(sp)
830090e4:	00478713          	addi	a4,a5,4
830090e8:	00e12623          	sw	a4,12(sp)
830090ec:	0007a783          	lw	a5,0(a5)
830090f0:	00979023          	sh	s1,0(a5)
830090f4:	00058993          	mv	s3,a1
830090f8:	d91ff06f          	j	83008e88 <__ssvfiscanf_r+0x140>
830090fc:	001bfb13          	andi	s6,s7,1
83009100:	000b0e63          	beqz	s6,8300911c <__ssvfiscanf_r+0x3d4>
83009104:	00c12783          	lw	a5,12(sp)
83009108:	00478713          	addi	a4,a5,4
8300910c:	00e12623          	sw	a4,12(sp)
83009110:	0007a783          	lw	a5,0(a5)
83009114:	0097a023          	sw	s1,0(a5)
83009118:	fddff06f          	j	830090f4 <__ssvfiscanf_r+0x3ac>
8300911c:	00c12783          	lw	a5,12(sp)
83009120:	00478713          	addi	a4,a5,4
83009124:	00e12623          	sw	a4,12(sp)
83009128:	0007a783          	lw	a5,0(a5)
8300912c:	0097a023          	sw	s1,0(a5)
83009130:	fc5ff06f          	j	830090f4 <__ssvfiscanf_r+0x3ac>
83009134:	00058993          	mv	s3,a1
83009138:	ffffe797          	auipc	a5,0xffffe
8300913c:	a9078793          	addi	a5,a5,-1392 # 83006bc8 <_strtol_r>
83009140:	00f12223          	sw	a5,4(sp)
83009144:	00000c13          	li	s8,0
83009148:	00300b13          	li	s6,3
8300914c:	cd5ff06f          	j	83008e20 <__ssvfiscanf_r+0xd8>
83009150:	00058993          	mv	s3,a1
83009154:	ffffe797          	auipc	a5,0xffffe
83009158:	a7478793          	addi	a5,a5,-1420 # 83006bc8 <_strtol_r>
8300915c:	00f12223          	sw	a5,4(sp)
83009160:	00a00c13          	li	s8,10
83009164:	00300b13          	li	s6,3
83009168:	cb9ff06f          	j	83008e20 <__ssvfiscanf_r+0xd8>
8300916c:	00040593          	mv	a1,s0
83009170:	000a8513          	mv	a0,s5
83009174:	00000097          	auipc	ra,0x0
83009178:	a50080e7          	jalr	-1456(ra) # 83008bc4 <__ssrefill_r>
8300917c:	ca0506e3          	beqz	a0,83008e28 <__ssvfiscanf_r+0xe0>
83009180:	dc5ff06f          	j	83008f44 <__ssvfiscanf_r+0x1fc>
83009184:	00040593          	mv	a1,s0
83009188:	000a8513          	mv	a0,s5
8300918c:	00000097          	auipc	ra,0x0
83009190:	a38080e7          	jalr	-1480(ra) # 83008bc4 <__ssrefill_r>
83009194:	da0518e3          	bnez	a0,83008f44 <__ssvfiscanf_r+0x1fc>
83009198:	00042703          	lw	a4,0(s0)
8300919c:	00074783          	lbu	a5,0(a4)
830091a0:	00005697          	auipc	a3,0x5
830091a4:	a5d68693          	addi	a3,a3,-1443 # 8300dbfd <_ctype_+0x1>
830091a8:	00d787b3          	add	a5,a5,a3
830091ac:	0007c783          	lbu	a5,0(a5)
830091b0:	0087f793          	andi	a5,a5,8
830091b4:	c6078ee3          	beqz	a5,83008e30 <__ssvfiscanf_r+0xe8>
830091b8:	00148493          	addi	s1,s1,1
830091bc:	00442783          	lw	a5,4(s0)
830091c0:	fff78793          	addi	a5,a5,-1
830091c4:	00f42223          	sw	a5,4(s0)
830091c8:	faf05ee3          	blez	a5,83009184 <__ssvfiscanf_r+0x43c>
830091cc:	00170713          	addi	a4,a4,1
830091d0:	00e42023          	sw	a4,0(s0)
830091d4:	fc5ff06f          	j	83009198 <__ssvfiscanf_r+0x450>
830091d8:	00300793          	li	a5,3
830091dc:	cafb16e3          	bne	s6,a5,83008e88 <__ssvfiscanf_r+0x140>
830091e0:	fff90793          	addi	a5,s2,-1
830091e4:	02600713          	li	a4,38
830091e8:	74f77263          	bgeu	a4,a5,8300992c <__ssvfiscanf_r+0xbe4>
830091ec:	fd990d93          	addi	s11,s2,-39
830091f0:	02700913          	li	s2,39
830091f4:	73c0006f          	j	83009930 <__ssvfiscanf_r+0xbe8>
830091f8:	00091463          	bnez	s2,83009200 <__ssvfiscanf_r+0x4b8>
830091fc:	00100913          	li	s2,1
83009200:	001bf793          	andi	a5,s7,1
83009204:	04079263          	bnez	a5,83009248 <__ssvfiscanf_r+0x500>
83009208:	010bfb13          	andi	s6,s7,16
8300920c:	160b1e63          	bnez	s6,83009388 <__ssvfiscanf_r+0x640>
83009210:	00c12783          	lw	a5,12(sp)
83009214:	00478713          	addi	a4,a5,4
83009218:	00e12623          	sw	a4,12(sp)
8300921c:	00040713          	mv	a4,s0
83009220:	00090693          	mv	a3,s2
83009224:	00100613          	li	a2,1
83009228:	0007a583          	lw	a1,0(a5)
8300922c:	000a8513          	mv	a0,s5
83009230:	00000097          	auipc	ra,0x0
83009234:	a08080e7          	jalr	-1528(ra) # 83008c38 <_sfread_r>
83009238:	d00506e3          	beqz	a0,83008f44 <__ssvfiscanf_r+0x1fc>
8300923c:	00a484b3          	add	s1,s1,a0
83009240:	001d0d13          	addi	s10,s10,1
83009244:	c45ff06f          	j	83008e88 <__ssvfiscanf_r+0x140>
83009248:	010bf793          	andi	a5,s7,16
8300924c:	00f12423          	sw	a5,8(sp)
83009250:	12079663          	bnez	a5,8300937c <__ssvfiscanf_r+0x634>
83009254:	00c12783          	lw	a5,12(sp)
83009258:	00478713          	addi	a4,a5,4
8300925c:	00e12623          	sw	a4,12(sp)
83009260:	0007ad83          	lw	s11,0(a5)
83009264:	11c0006f          	j	83009380 <__ssvfiscanf_r+0x638>
83009268:	01c12703          	lw	a4,28(sp)
8300926c:	00400793          	li	a5,4
83009270:	0cf71263          	bne	a4,a5,83009334 <__ssvfiscanf_r+0x5ec>
83009274:	0c40006f          	j	83009338 <__ssvfiscanf_r+0x5f0>
83009278:	000c8b93          	mv	s7,s9
8300927c:	00442783          	lw	a5,4(s0)
83009280:	0cf05a63          	blez	a5,83009354 <__ssvfiscanf_r+0x60c>
83009284:	0e090463          	beqz	s2,8300936c <__ssvfiscanf_r+0x624>
83009288:	ffffd097          	auipc	ra,0xffffd
8300928c:	6d4080e7          	jalr	1748(ra) # 8300695c <__locale_mb_cur_max>
83009290:	cb750ae3          	beq	a0,s7,83008f44 <__ssvfiscanf_r+0x1fc>
83009294:	00042783          	lw	a5,0(s0)
83009298:	001b8c93          	addi	s9,s7,1
8300929c:	0007c703          	lbu	a4,0(a5)
830092a0:	150b8693          	addi	a3,s7,336
830092a4:	00268bb3          	add	s7,a3,sp
830092a8:	eceb8a23          	sb	a4,-300(s7)
830092ac:	00442703          	lw	a4,4(s0)
830092b0:	fff70713          	addi	a4,a4,-1
830092b4:	00e42223          	sw	a4,4(s0)
830092b8:	00178793          	addi	a5,a5,1
830092bc:	00f42023          	sw	a5,0(s0)
830092c0:	00300793          	li	a5,3
830092c4:	00fa1863          	bne	s4,a5,830092d4 <__ssvfiscanf_r+0x58c>
830092c8:	01c12703          	lw	a4,28(sp)
830092cc:	00400793          	li	a5,4
830092d0:	00f70c63          	beq	a4,a5,830092e8 <__ssvfiscanf_r+0x5a0>
830092d4:	00800613          	li	a2,8
830092d8:	00000593          	li	a1,0
830092dc:	01c10513          	addi	a0,sp,28
830092e0:	ffff8097          	auipc	ra,0xffff8
830092e4:	d5c080e7          	jalr	-676(ra) # 8300103c <memset>
830092e8:	01c10713          	addi	a4,sp,28
830092ec:	000c8693          	mv	a3,s9
830092f0:	02410613          	addi	a2,sp,36
830092f4:	000d8593          	mv	a1,s11
830092f8:	000a8513          	mv	a0,s5
830092fc:	ffffe097          	auipc	ra,0xffffe
83009300:	018080e7          	jalr	24(ra) # 83007314 <_mbrtowc_r>
83009304:	00050a13          	mv	s4,a0
83009308:	fff00793          	li	a5,-1
8300930c:	c2f50ce3          	beq	a0,a5,83008f44 <__ssvfiscanf_r+0x1fc>
83009310:	00051863          	bnez	a0,83009320 <__ssvfiscanf_r+0x5d8>
83009314:	00812783          	lw	a5,8(sp)
83009318:	00079463          	bnez	a5,83009320 <__ssvfiscanf_r+0x5d8>
8300931c:	000da023          	sw	zero,0(s11)
83009320:	ffe00793          	li	a5,-2
83009324:	f4fa0ae3          	beq	s4,a5,83009278 <__ssvfiscanf_r+0x530>
83009328:	019484b3          	add	s1,s1,s9
8300932c:	00300793          	li	a5,3
83009330:	f2fa0ce3          	beq	s4,a5,83009268 <__ssvfiscanf_r+0x520>
83009334:	fff90913          	addi	s2,s2,-1
83009338:	00812783          	lw	a5,8(sp)
8300933c:	00079863          	bnez	a5,8300934c <__ssvfiscanf_r+0x604>
83009340:	004d8d93          	addi	s11,s11,4
83009344:	00078b93          	mv	s7,a5
83009348:	f35ff06f          	j	8300927c <__ssvfiscanf_r+0x534>
8300934c:	000b0b93          	mv	s7,s6
83009350:	f2dff06f          	j	8300927c <__ssvfiscanf_r+0x534>
83009354:	00040593          	mv	a1,s0
83009358:	000a8513          	mv	a0,s5
8300935c:	00000097          	auipc	ra,0x0
83009360:	868080e7          	jalr	-1944(ra) # 83008bc4 <__ssrefill_r>
83009364:	f20500e3          	beqz	a0,83009284 <__ssvfiscanf_r+0x53c>
83009368:	bc0b9ee3          	bnez	s7,83008f44 <__ssvfiscanf_r+0x1fc>
8300936c:	00812783          	lw	a5,8(sp)
83009370:	b0079ce3          	bnez	a5,83008e88 <__ssvfiscanf_r+0x140>
83009374:	001d0d13          	addi	s10,s10,1
83009378:	b11ff06f          	j	83008e88 <__ssvfiscanf_r+0x140>
8300937c:	00000d93          	li	s11,0
83009380:	000b0b93          	mv	s7,s6
83009384:	f01ff06f          	j	83009284 <__ssvfiscanf_r+0x53c>
83009388:	00000b13          	li	s6,0
8300938c:	00442783          	lw	a5,4(s0)
83009390:	0327da63          	bge	a5,s2,830093c4 <__ssvfiscanf_r+0x67c>
83009394:	00fb0b33          	add	s6,s6,a5
83009398:	40f90933          	sub	s2,s2,a5
8300939c:	00042703          	lw	a4,0(s0)
830093a0:	00f707b3          	add	a5,a4,a5
830093a4:	00f42023          	sw	a5,0(s0)
830093a8:	00040593          	mv	a1,s0
830093ac:	000a8513          	mv	a0,s5
830093b0:	00000097          	auipc	ra,0x0
830093b4:	814080e7          	jalr	-2028(ra) # 83008bc4 <__ssrefill_r>
830093b8:	fc050ae3          	beqz	a0,8300938c <__ssvfiscanf_r+0x644>
830093bc:	020b1063          	bnez	s6,830093dc <__ssvfiscanf_r+0x694>
830093c0:	b85ff06f          	j	83008f44 <__ssvfiscanf_r+0x1fc>
830093c4:	012b0b33          	add	s6,s6,s2
830093c8:	412787b3          	sub	a5,a5,s2
830093cc:	00f42223          	sw	a5,4(s0)
830093d0:	00042783          	lw	a5,0(s0)
830093d4:	012787b3          	add	a5,a5,s2
830093d8:	00f42023          	sw	a5,0(s0)
830093dc:	016484b3          	add	s1,s1,s6
830093e0:	aa9ff06f          	j	83008e88 <__ssvfiscanf_r+0x140>
830093e4:	010bfd93          	andi	s11,s7,16
830093e8:	1a0d9a63          	bnez	s11,8300959c <__ssvfiscanf_r+0x854>
830093ec:	00c12783          	lw	a5,12(sp)
830093f0:	00478713          	addi	a4,a5,4
830093f4:	00e12623          	sw	a4,12(sp)
830093f8:	0007ac83          	lw	s9,0(a5)
830093fc:	1a40006f          	j	830095a0 <__ssvfiscanf_r+0x858>
83009400:	00800613          	li	a2,8
83009404:	00000593          	li	a1,0
83009408:	01410513          	addi	a0,sp,20
8300940c:	ffff8097          	auipc	ra,0xffff8
83009410:	c30080e7          	jalr	-976(ra) # 8300103c <memset>
83009414:	01410713          	addi	a4,sp,20
83009418:	000b8693          	mv	a3,s7
8300941c:	02410613          	addi	a2,sp,36
83009420:	000c8593          	mv	a1,s9
83009424:	000a8513          	mv	a0,s5
83009428:	ffffe097          	auipc	ra,0xffffe
8300942c:	eec080e7          	jalr	-276(ra) # 83007314 <_mbrtowc_r>
83009430:	00050a13          	mv	s4,a0
83009434:	fff00793          	li	a5,-1
83009438:	b0f506e3          	beq	a0,a5,83008f44 <__ssvfiscanf_r+0x1fc>
8300943c:	00051463          	bnez	a0,83009444 <__ssvfiscanf_r+0x6fc>
83009440:	000ca023          	sw	zero,0(s9)
83009444:	ffe00793          	li	a5,-2
83009448:	06fa1263          	bne	s4,a5,830094ac <__ssvfiscanf_r+0x764>
8300944c:	00442783          	lw	a5,4(s0)
83009450:	12f05863          	blez	a5,83009580 <__ssvfiscanf_r+0x838>
83009454:	000b8b13          	mv	s6,s7
83009458:	10090063          	beqz	s2,83009558 <__ssvfiscanf_r+0x810>
8300945c:	ffffd097          	auipc	ra,0xffffd
83009460:	500080e7          	jalr	1280(ra) # 8300695c <__locale_mb_cur_max>
83009464:	af6500e3          	beq	a0,s6,83008f44 <__ssvfiscanf_r+0x1fc>
83009468:	00042783          	lw	a5,0(s0)
8300946c:	001b0b93          	addi	s7,s6,1
83009470:	0007c703          	lbu	a4,0(a5)
83009474:	150b0693          	addi	a3,s6,336
83009478:	00268b33          	add	s6,a3,sp
8300947c:	eceb0a23          	sb	a4,-300(s6)
83009480:	00442703          	lw	a4,4(s0)
83009484:	fff70713          	addi	a4,a4,-1
83009488:	00e42223          	sw	a4,4(s0)
8300948c:	00178793          	addi	a5,a5,1
83009490:	00f42023          	sw	a5,0(s0)
83009494:	00300793          	li	a5,3
83009498:	f6fa14e3          	bne	s4,a5,83009400 <__ssvfiscanf_r+0x6b8>
8300949c:	01412703          	lw	a4,20(sp)
830094a0:	00400793          	li	a5,4
830094a4:	f4f71ee3          	bne	a4,a5,83009400 <__ssvfiscanf_r+0x6b8>
830094a8:	f6dff06f          	j	83009414 <__ssvfiscanf_r+0x6cc>
830094ac:	000cab03          	lw	s6,0(s9)
830094b0:	fff00793          	li	a5,-1
830094b4:	06fb0c63          	beq	s6,a5,8300952c <__ssvfiscanf_r+0x7e4>
830094b8:	00800613          	li	a2,8
830094bc:	00000593          	li	a1,0
830094c0:	01c10513          	addi	a0,sp,28
830094c4:	ffff8097          	auipc	ra,0xffff8
830094c8:	b78080e7          	jalr	-1160(ra) # 8300103c <memset>
830094cc:	01c10693          	addi	a3,sp,28
830094d0:	000b0613          	mv	a2,s6
830094d4:	01010593          	addi	a1,sp,16
830094d8:	000a8513          	mv	a0,s5
830094dc:	00006797          	auipc	a5,0x6
830094e0:	0b47a783          	lw	a5,180(a5) # 8300f590 <__global_locale+0xe0>
830094e4:	000780e7          	jalr	a5
830094e8:	00100793          	li	a5,1
830094ec:	02f50c63          	beq	a0,a5,83009524 <__ssvfiscanf_r+0x7dc>
830094f0:	00000793          	li	a5,0
830094f4:	15078793          	addi	a5,a5,336
830094f8:	002787b3          	add	a5,a5,sp
830094fc:	efc7c783          	lbu	a5,-260(a5)
83009500:	04078a63          	beqz	a5,83009554 <__ssvfiscanf_r+0x80c>
83009504:	017484b3          	add	s1,s1,s7
83009508:	00300793          	li	a5,3
8300950c:	04fa0e63          	beq	s4,a5,83009568 <__ssvfiscanf_r+0x820>
83009510:	fff90913          	addi	s2,s2,-1
83009514:	060d9263          	bnez	s11,83009578 <__ssvfiscanf_r+0x830>
83009518:	004c8c93          	addi	s9,s9,4
8300951c:	000d8b93          	mv	s7,s11
83009520:	f2dff06f          	j	8300944c <__ssvfiscanf_r+0x704>
83009524:	01014783          	lbu	a5,16(sp)
83009528:	fcdff06f          	j	830094f4 <__ssvfiscanf_r+0x7ac>
8300952c:	fff00793          	li	a5,-1
83009530:	fc5ff06f          	j	830094f4 <__ssvfiscanf_r+0x7ac>
83009534:	fffb8b93          	addi	s7,s7,-1
83009538:	150b8793          	addi	a5,s7,336
8300953c:	002787b3          	add	a5,a5,sp
83009540:	00040613          	mv	a2,s0
83009544:	ed47c583          	lbu	a1,-300(a5)
83009548:	000a8513          	mv	a0,s5
8300954c:	fffff097          	auipc	ra,0xfffff
83009550:	570080e7          	jalr	1392(ra) # 83008abc <_sungetc_r>
83009554:	fe0b90e3          	bnez	s7,83009534 <__ssvfiscanf_r+0x7ec>
83009558:	920d98e3          	bnez	s11,83008e88 <__ssvfiscanf_r+0x140>
8300955c:	000ca023          	sw	zero,0(s9)
83009560:	001d0d13          	addi	s10,s10,1
83009564:	925ff06f          	j	83008e88 <__ssvfiscanf_r+0x140>
83009568:	01412703          	lw	a4,20(sp)
8300956c:	00400793          	li	a5,4
83009570:	faf710e3          	bne	a4,a5,83009510 <__ssvfiscanf_r+0x7c8>
83009574:	fa1ff06f          	j	83009514 <__ssvfiscanf_r+0x7cc>
83009578:	00000b93          	li	s7,0
8300957c:	ed1ff06f          	j	8300944c <__ssvfiscanf_r+0x704>
83009580:	00040593          	mv	a1,s0
83009584:	000a8513          	mv	a0,s5
83009588:	fffff097          	auipc	ra,0xfffff
8300958c:	63c080e7          	jalr	1596(ra) # 83008bc4 <__ssrefill_r>
83009590:	ec0502e3          	beqz	a0,83009454 <__ssvfiscanf_r+0x70c>
83009594:	fc0b82e3          	beqz	s7,83009558 <__ssvfiscanf_r+0x810>
83009598:	9adff06f          	j	83008f44 <__ssvfiscanf_r+0x1fc>
8300959c:	14c10c93          	addi	s9,sp,332
830095a0:	00000b13          	li	s6,0
830095a4:	eb5ff06f          	j	83009458 <__ssvfiscanf_r+0x710>
830095a8:	00042783          	lw	a5,0(s0)
830095ac:	0007c703          	lbu	a4,0(a5)
830095b0:	15070713          	addi	a4,a4,336
830095b4:	00270733          	add	a4,a4,sp
830095b8:	efc74703          	lbu	a4,-260(a4)
830095bc:	04070063          	beqz	a4,830095fc <__ssvfiscanf_r+0x8b4>
830095c0:	001c8c93          	addi	s9,s9,1
830095c4:	00442703          	lw	a4,4(s0)
830095c8:	fff70713          	addi	a4,a4,-1
830095cc:	00e42223          	sw	a4,4(s0)
830095d0:	00178793          	addi	a5,a5,1
830095d4:	00f42023          	sw	a5,0(s0)
830095d8:	fff90913          	addi	s2,s2,-1
830095dc:	02090063          	beqz	s2,830095fc <__ssvfiscanf_r+0x8b4>
830095e0:	fce044e3          	bgtz	a4,830095a8 <__ssvfiscanf_r+0x860>
830095e4:	00040593          	mv	a1,s0
830095e8:	000a8513          	mv	a0,s5
830095ec:	fffff097          	auipc	ra,0xfffff
830095f0:	5d8080e7          	jalr	1496(ra) # 83008bc4 <__ssrefill_r>
830095f4:	fa050ae3          	beqz	a0,830095a8 <__ssvfiscanf_r+0x860>
830095f8:	940c86e3          	beqz	s9,83008f44 <__ssvfiscanf_r+0x1fc>
830095fc:	940c8ce3          	beqz	s9,83008f54 <__ssvfiscanf_r+0x20c>
83009600:	019484b3          	add	s1,s1,s9
83009604:	885ff06f          	j	83008e88 <__ssvfiscanf_r+0x140>
83009608:	000b8693          	mv	a3,s7
8300960c:	00042703          	lw	a4,0(s0)
83009610:	00074783          	lbu	a5,0(a4)
83009614:	15078793          	addi	a5,a5,336
83009618:	002787b3          	add	a5,a5,sp
8300961c:	efc7c783          	lbu	a5,-260(a5)
83009620:	04078863          	beqz	a5,83009670 <__ssvfiscanf_r+0x928>
83009624:	00442783          	lw	a5,4(s0)
83009628:	fff78793          	addi	a5,a5,-1
8300962c:	00f42223          	sw	a5,4(s0)
83009630:	00170793          	addi	a5,a4,1
83009634:	00f42023          	sw	a5,0(s0)
83009638:	00168b93          	addi	s7,a3,1
8300963c:	00074783          	lbu	a5,0(a4)
83009640:	00f68023          	sb	a5,0(a3)
83009644:	fff90913          	addi	s2,s2,-1
83009648:	02090663          	beqz	s2,83009674 <__ssvfiscanf_r+0x92c>
8300964c:	00442783          	lw	a5,4(s0)
83009650:	faf04ce3          	bgtz	a5,83009608 <__ssvfiscanf_r+0x8c0>
83009654:	00040593          	mv	a1,s0
83009658:	000a8513          	mv	a0,s5
8300965c:	fffff097          	auipc	ra,0xfffff
83009660:	568080e7          	jalr	1384(ra) # 83008bc4 <__ssrefill_r>
83009664:	fa0502e3          	beqz	a0,83009608 <__ssvfiscanf_r+0x8c0>
83009668:	017b1663          	bne	s6,s7,83009674 <__ssvfiscanf_r+0x92c>
8300966c:	8d9ff06f          	j	83008f44 <__ssvfiscanf_r+0x1fc>
83009670:	00068b93          	mv	s7,a3
83009674:	416b87b3          	sub	a5,s7,s6
83009678:	8d6b8ee3          	beq	s7,s6,83008f54 <__ssvfiscanf_r+0x20c>
8300967c:	000b8023          	sb	zero,0(s7)
83009680:	001d0d13          	addi	s10,s10,1
83009684:	00f484b3          	add	s1,s1,a5
83009688:	801ff06f          	j	83008e88 <__ssvfiscanf_r+0x140>
8300968c:	00091463          	bnez	s2,83009694 <__ssvfiscanf_r+0x94c>
83009690:	fff00913          	li	s2,-1
83009694:	001bfc93          	andi	s9,s7,1
83009698:	020c9263          	bnez	s9,830096bc <__ssvfiscanf_r+0x974>
8300969c:	010bfb13          	andi	s6,s7,16
830096a0:	1a0b1463          	bnez	s6,83009848 <__ssvfiscanf_r+0xb00>
830096a4:	00c12783          	lw	a5,12(sp)
830096a8:	00478713          	addi	a4,a5,4
830096ac:	00e12623          	sw	a4,12(sp)
830096b0:	0007ab03          	lw	s6,0(a5)
830096b4:	000b0693          	mv	a3,s6
830096b8:	1f40006f          	j	830098ac <__ssvfiscanf_r+0xb64>
830096bc:	010bfb13          	andi	s6,s7,16
830096c0:	180b1063          	bnez	s6,83009840 <__ssvfiscanf_r+0xaf8>
830096c4:	00c12783          	lw	a5,12(sp)
830096c8:	00478713          	addi	a4,a5,4
830096cc:	00e12623          	sw	a4,12(sp)
830096d0:	0007ac83          	lw	s9,0(a5)
830096d4:	00000d93          	li	s11,0
830096d8:	00042783          	lw	a5,0(s0)
830096dc:	0007c783          	lbu	a5,0(a5)
830096e0:	00004717          	auipc	a4,0x4
830096e4:	51d70713          	addi	a4,a4,1309 # 8300dbfd <_ctype_+0x1>
830096e8:	00e787b3          	add	a5,a5,a4
830096ec:	0007c783          	lbu	a5,0(a5)
830096f0:	0087f793          	andi	a5,a5,8
830096f4:	00079463          	bnez	a5,830096fc <__ssvfiscanf_r+0x9b4>
830096f8:	00091a63          	bnez	s2,8300970c <__ssvfiscanf_r+0x9c4>
830096fc:	f80b1663          	bnez	s6,83008e88 <__ssvfiscanf_r+0x140>
83009700:	000ca023          	sw	zero,0(s9)
83009704:	001d0d13          	addi	s10,s10,1
83009708:	f80ff06f          	j	83008e88 <__ssvfiscanf_r+0x140>
8300970c:	ffffd097          	auipc	ra,0xffffd
83009710:	250080e7          	jalr	592(ra) # 8300695c <__locale_mb_cur_max>
83009714:	83b508e3          	beq	a0,s11,83008f44 <__ssvfiscanf_r+0x1fc>
83009718:	00042783          	lw	a5,0(s0)
8300971c:	001d8b93          	addi	s7,s11,1
83009720:	0007c683          	lbu	a3,0(a5)
83009724:	150d8713          	addi	a4,s11,336
83009728:	00270733          	add	a4,a4,sp
8300972c:	ecd70a23          	sb	a3,-300(a4)
83009730:	00442703          	lw	a4,4(s0)
83009734:	fff70713          	addi	a4,a4,-1
83009738:	00e42223          	sw	a4,4(s0)
8300973c:	00178793          	addi	a5,a5,1
83009740:	00f42023          	sw	a5,0(s0)
83009744:	00300793          	li	a5,3
83009748:	00fa1863          	bne	s4,a5,83009758 <__ssvfiscanf_r+0xa10>
8300974c:	01c12703          	lw	a4,28(sp)
83009750:	00400793          	li	a5,4
83009754:	00f70c63          	beq	a4,a5,8300976c <__ssvfiscanf_r+0xa24>
83009758:	00800613          	li	a2,8
8300975c:	00000593          	li	a1,0
83009760:	01c10513          	addi	a0,sp,28
83009764:	ffff8097          	auipc	ra,0xffff8
83009768:	8d8080e7          	jalr	-1832(ra) # 8300103c <memset>
8300976c:	01c10713          	addi	a4,sp,28
83009770:	000b8693          	mv	a3,s7
83009774:	02410613          	addi	a2,sp,36
83009778:	000c8593          	mv	a1,s9
8300977c:	000a8513          	mv	a0,s5
83009780:	ffffe097          	auipc	ra,0xffffe
83009784:	b94080e7          	jalr	-1132(ra) # 83007314 <_mbrtowc_r>
83009788:	00050a13          	mv	s4,a0
8300978c:	fff00793          	li	a5,-1
83009790:	faf50a63          	beq	a0,a5,83008f44 <__ssvfiscanf_r+0x1fc>
83009794:	00051463          	bnez	a0,8300979c <__ssvfiscanf_r+0xa54>
83009798:	000ca023          	sw	zero,0(s9)
8300979c:	ffe00793          	li	a5,-2
830097a0:	00fa1a63          	bne	s4,a5,830097b4 <__ssvfiscanf_r+0xa6c>
830097a4:	00442783          	lw	a5,4(s0)
830097a8:	06f05e63          	blez	a5,83009824 <__ssvfiscanf_r+0xadc>
830097ac:	000b8d93          	mv	s11,s7
830097b0:	f29ff06f          	j	830096d8 <__ssvfiscanf_r+0x990>
830097b4:	000ca503          	lw	a0,0(s9)
830097b8:	fffff097          	auipc	ra,0xfffff
830097bc:	c0c080e7          	jalr	-1012(ra) # 830083c4 <iswspace>
830097c0:	04051263          	bnez	a0,83009804 <__ssvfiscanf_r+0xabc>
830097c4:	017484b3          	add	s1,s1,s7
830097c8:	00300793          	li	a5,3
830097cc:	04fa0063          	beq	s4,a5,8300980c <__ssvfiscanf_r+0xac4>
830097d0:	fff90913          	addi	s2,s2,-1
830097d4:	040b1463          	bnez	s6,8300981c <__ssvfiscanf_r+0xad4>
830097d8:	004c8c93          	addi	s9,s9,4
830097dc:	000b0b93          	mv	s7,s6
830097e0:	fc5ff06f          	j	830097a4 <__ssvfiscanf_r+0xa5c>
830097e4:	fffb8b93          	addi	s7,s7,-1
830097e8:	150b8793          	addi	a5,s7,336
830097ec:	002787b3          	add	a5,a5,sp
830097f0:	00040613          	mv	a2,s0
830097f4:	ed47c583          	lbu	a1,-300(a5)
830097f8:	000a8513          	mv	a0,s5
830097fc:	fffff097          	auipc	ra,0xfffff
83009800:	2c0080e7          	jalr	704(ra) # 83008abc <_sungetc_r>
83009804:	fe0b90e3          	bnez	s7,830097e4 <__ssvfiscanf_r+0xa9c>
83009808:	ef5ff06f          	j	830096fc <__ssvfiscanf_r+0x9b4>
8300980c:	01c12703          	lw	a4,28(sp)
83009810:	00400793          	li	a5,4
83009814:	faf71ee3          	bne	a4,a5,830097d0 <__ssvfiscanf_r+0xa88>
83009818:	fbdff06f          	j	830097d4 <__ssvfiscanf_r+0xa8c>
8300981c:	00050b93          	mv	s7,a0
83009820:	f85ff06f          	j	830097a4 <__ssvfiscanf_r+0xa5c>
83009824:	00040593          	mv	a1,s0
83009828:	000a8513          	mv	a0,s5
8300982c:	fffff097          	auipc	ra,0xfffff
83009830:	398080e7          	jalr	920(ra) # 83008bc4 <__ssrefill_r>
83009834:	f6050ce3          	beqz	a0,830097ac <__ssvfiscanf_r+0xa64>
83009838:	f00b9663          	bnez	s7,83008f44 <__ssvfiscanf_r+0x1fc>
8300983c:	ec1ff06f          	j	830096fc <__ssvfiscanf_r+0x9b4>
83009840:	14c10c93          	addi	s9,sp,332
83009844:	e91ff06f          	j	830096d4 <__ssvfiscanf_r+0x98c>
83009848:	00042783          	lw	a5,0(s0)
8300984c:	0007c703          	lbu	a4,0(a5)
83009850:	00004697          	auipc	a3,0x4
83009854:	3ad68693          	addi	a3,a3,941 # 8300dbfd <_ctype_+0x1>
83009858:	00d70733          	add	a4,a4,a3
8300985c:	00074703          	lbu	a4,0(a4)
83009860:	00877713          	andi	a4,a4,8
83009864:	02071e63          	bnez	a4,830098a0 <__ssvfiscanf_r+0xb58>
83009868:	001c8c93          	addi	s9,s9,1
8300986c:	00442703          	lw	a4,4(s0)
83009870:	fff70713          	addi	a4,a4,-1
83009874:	00e42223          	sw	a4,4(s0)
83009878:	00178793          	addi	a5,a5,1
8300987c:	00f42023          	sw	a5,0(s0)
83009880:	fff90913          	addi	s2,s2,-1
83009884:	00090e63          	beqz	s2,830098a0 <__ssvfiscanf_r+0xb58>
83009888:	fce040e3          	bgtz	a4,83009848 <__ssvfiscanf_r+0xb00>
8300988c:	00040593          	mv	a1,s0
83009890:	000a8513          	mv	a0,s5
83009894:	fffff097          	auipc	ra,0xfffff
83009898:	330080e7          	jalr	816(ra) # 83008bc4 <__ssrefill_r>
8300989c:	fa0506e3          	beqz	a0,83009848 <__ssvfiscanf_r+0xb00>
830098a0:	019484b3          	add	s1,s1,s9
830098a4:	de4ff06f          	j	83008e88 <__ssvfiscanf_r+0x140>
830098a8:	000b8693          	mv	a3,s7
830098ac:	00042703          	lw	a4,0(s0)
830098b0:	00074783          	lbu	a5,0(a4)
830098b4:	00004617          	auipc	a2,0x4
830098b8:	34960613          	addi	a2,a2,841 # 8300dbfd <_ctype_+0x1>
830098bc:	00c787b3          	add	a5,a5,a2
830098c0:	0007c783          	lbu	a5,0(a5)
830098c4:	0087f793          	andi	a5,a5,8
830098c8:	04079663          	bnez	a5,83009914 <__ssvfiscanf_r+0xbcc>
830098cc:	00442783          	lw	a5,4(s0)
830098d0:	fff78793          	addi	a5,a5,-1
830098d4:	00f42223          	sw	a5,4(s0)
830098d8:	00170793          	addi	a5,a4,1
830098dc:	00f42023          	sw	a5,0(s0)
830098e0:	00168b93          	addi	s7,a3,1
830098e4:	00074783          	lbu	a5,0(a4)
830098e8:	00f68023          	sb	a5,0(a3)
830098ec:	fff90913          	addi	s2,s2,-1
830098f0:	02090463          	beqz	s2,83009918 <__ssvfiscanf_r+0xbd0>
830098f4:	00442783          	lw	a5,4(s0)
830098f8:	faf048e3          	bgtz	a5,830098a8 <__ssvfiscanf_r+0xb60>
830098fc:	00040593          	mv	a1,s0
83009900:	000a8513          	mv	a0,s5
83009904:	fffff097          	auipc	ra,0xfffff
83009908:	2c0080e7          	jalr	704(ra) # 83008bc4 <__ssrefill_r>
8300990c:	f8050ee3          	beqz	a0,830098a8 <__ssvfiscanf_r+0xb60>
83009910:	0080006f          	j	83009918 <__ssvfiscanf_r+0xbd0>
83009914:	00068b93          	mv	s7,a3
83009918:	000b8023          	sb	zero,0(s7)
8300991c:	416b8bb3          	sub	s7,s7,s6
83009920:	017484b3          	add	s1,s1,s7
83009924:	001d0d13          	addi	s10,s10,1
83009928:	d60ff06f          	j	83008e88 <__ssvfiscanf_r+0x140>
8300992c:	00000d93          	li	s11,0
83009930:	000017b7          	lui	a5,0x1
83009934:	d8078793          	addi	a5,a5,-640 # d80 <_ZL9set_i_maxv-0x82fff334>
83009938:	00fbeb33          	or	s6,s7,a5
8300993c:	00000c93          	li	s9,0
83009940:	02410b93          	addi	s7,sp,36
83009944:	0900006f          	j	830099d4 <__ssvfiscanf_r+0xc8c>
83009948:	000017b7          	lui	a5,0x1
8300994c:	80078793          	addi	a5,a5,-2048 # 800 <_ZL9set_i_maxv-0x82fff8b4>
83009950:	00fb77b3          	and	a5,s6,a5
83009954:	04078c63          	beqz	a5,830099ac <__ssvfiscanf_r+0xc64>
83009958:	000c1663          	bnez	s8,83009964 <__ssvfiscanf_r+0xc1c>
8300995c:	200b6b13          	ori	s6,s6,512
83009960:	00800c13          	li	s8,8
83009964:	400b7793          	andi	a5,s6,1024
83009968:	00078663          	beqz	a5,83009974 <__ssvfiscanf_r+0xc2c>
8300996c:	a7fb7b13          	andi	s6,s6,-1409
83009970:	03c0006f          	j	830099ac <__ssvfiscanf_r+0xc64>
83009974:	c7fb7b13          	andi	s6,s6,-897
83009978:	000d8663          	beqz	s11,83009984 <__ssvfiscanf_r+0xc3c>
8300997c:	fffd8d93          	addi	s11,s11,-1
83009980:	00190913          	addi	s2,s2,1
83009984:	001c8c93          	addi	s9,s9,1
83009988:	02c0006f          	j	830099b4 <__ssvfiscanf_r+0xc6c>
8300998c:	001c1c13          	slli	s8,s8,0x1
83009990:	00004797          	auipc	a5,0x4
83009994:	5f878793          	addi	a5,a5,1528 # 8300df88 <basefix.0>
83009998:	018787b3          	add	a5,a5,s8
8300999c:	00079c03          	lh	s8,0(a5)
830099a0:	fffff7b7          	lui	a5,0xfffff
830099a4:	47f78793          	addi	a5,a5,1151 # fffff47f <__BSS_END__+0x7cfef977>
830099a8:	00fb7b33          	and	s6,s6,a5
830099ac:	00eb8023          	sb	a4,0(s7)
830099b0:	001b8b93          	addi	s7,s7,1
830099b4:	00442783          	lw	a5,4(s0)
830099b8:	fff78793          	addi	a5,a5,-1
830099bc:	00f42223          	sw	a5,4(s0)
830099c0:	0af05e63          	blez	a5,83009a7c <__ssvfiscanf_r+0xd34>
830099c4:	00042783          	lw	a5,0(s0)
830099c8:	00178793          	addi	a5,a5,1
830099cc:	00f42023          	sw	a5,0(s0)
830099d0:	fff90913          	addi	s2,s2,-1
830099d4:	0a090e63          	beqz	s2,83009a90 <__ssvfiscanf_r+0xd48>
830099d8:	00042783          	lw	a5,0(s0)
830099dc:	0007c703          	lbu	a4,0(a5)
830099e0:	fd570793          	addi	a5,a4,-43
830099e4:	0ff7f613          	zext.b	a2,a5
830099e8:	04d00693          	li	a3,77
830099ec:	0ac6e263          	bltu	a3,a2,83009a90 <__ssvfiscanf_r+0xd48>
830099f0:	00261793          	slli	a5,a2,0x2
830099f4:	00004697          	auipc	a3,0x4
830099f8:	45c68693          	addi	a3,a3,1116 # 8300de50 <_ctype_+0x254>
830099fc:	00d787b3          	add	a5,a5,a3
83009a00:	0007a783          	lw	a5,0(a5)
83009a04:	00d787b3          	add	a5,a5,a3
83009a08:	00078067          	jr	a5
83009a0c:	001c1c13          	slli	s8,s8,0x1
83009a10:	00004797          	auipc	a5,0x4
83009a14:	57878793          	addi	a5,a5,1400 # 8300df88 <basefix.0>
83009a18:	018787b3          	add	a5,a5,s8
83009a1c:	00079c03          	lh	s8,0(a5)
83009a20:	00800793          	li	a5,8
83009a24:	0787d663          	bge	a5,s8,83009a90 <__ssvfiscanf_r+0xd48>
83009a28:	fffff7b7          	lui	a5,0xfffff
83009a2c:	47f78793          	addi	a5,a5,1151 # fffff47f <__BSS_END__+0x7cfef977>
83009a30:	00fb7b33          	and	s6,s6,a5
83009a34:	f79ff06f          	j	830099ac <__ssvfiscanf_r+0xc64>
83009a38:	00a00793          	li	a5,10
83009a3c:	0587da63          	bge	a5,s8,83009a90 <__ssvfiscanf_r+0xd48>
83009a40:	fffff7b7          	lui	a5,0xfffff
83009a44:	47f78793          	addi	a5,a5,1151 # fffff47f <__BSS_END__+0x7cfef977>
83009a48:	00fb7b33          	and	s6,s6,a5
83009a4c:	f61ff06f          	j	830099ac <__ssvfiscanf_r+0xc64>
83009a50:	080b7793          	andi	a5,s6,128
83009a54:	02078e63          	beqz	a5,83009a90 <__ssvfiscanf_r+0xd48>
83009a58:	f7fb7b13          	andi	s6,s6,-129
83009a5c:	f51ff06f          	j	830099ac <__ssvfiscanf_r+0xc64>
83009a60:	600b7793          	andi	a5,s6,1536
83009a64:	20000693          	li	a3,512
83009a68:	02d79463          	bne	a5,a3,83009a90 <__ssvfiscanf_r+0xd48>
83009a6c:	dffb7b13          	andi	s6,s6,-513
83009a70:	500b6b13          	ori	s6,s6,1280
83009a74:	01000c13          	li	s8,16
83009a78:	f35ff06f          	j	830099ac <__ssvfiscanf_r+0xc64>
83009a7c:	00040593          	mv	a1,s0
83009a80:	000a8513          	mv	a0,s5
83009a84:	fffff097          	auipc	ra,0xfffff
83009a88:	140080e7          	jalr	320(ra) # 83008bc4 <__ssrefill_r>
83009a8c:	f40502e3          	beqz	a0,830099d0 <__ssvfiscanf_r+0xc88>
83009a90:	100b7793          	andi	a5,s6,256
83009a94:	00078a63          	beqz	a5,83009aa8 <__ssvfiscanf_r+0xd60>
83009a98:	02410793          	addi	a5,sp,36
83009a9c:	0777e263          	bltu	a5,s7,83009b00 <__ssvfiscanf_r+0xdb8>
83009aa0:	02410793          	addi	a5,sp,36
83009aa4:	cafb8863          	beq	s7,a5,83008f54 <__ssvfiscanf_r+0x20c>
83009aa8:	010b7793          	andi	a5,s6,16
83009aac:	04079063          	bnez	a5,83009aec <__ssvfiscanf_r+0xda4>
83009ab0:	000b8023          	sb	zero,0(s7)
83009ab4:	000c0693          	mv	a3,s8
83009ab8:	00000613          	li	a2,0
83009abc:	02410593          	addi	a1,sp,36
83009ac0:	000a8513          	mv	a0,s5
83009ac4:	00412783          	lw	a5,4(sp)
83009ac8:	000780e7          	jalr	a5
83009acc:	020b7793          	andi	a5,s6,32
83009ad0:	04078863          	beqz	a5,83009b20 <__ssvfiscanf_r+0xdd8>
83009ad4:	00c12783          	lw	a5,12(sp)
83009ad8:	00478713          	addi	a4,a5,4
83009adc:	00e12623          	sw	a4,12(sp)
83009ae0:	0007a783          	lw	a5,0(a5)
83009ae4:	00a7a023          	sw	a0,0(a5)
83009ae8:	001d0d13          	addi	s10,s10,1
83009aec:	02410793          	addi	a5,sp,36
83009af0:	40fb8bb3          	sub	s7,s7,a5
83009af4:	019b8bb3          	add	s7,s7,s9
83009af8:	017484b3          	add	s1,s1,s7
83009afc:	b8cff06f          	j	83008e88 <__ssvfiscanf_r+0x140>
83009b00:	fffb8913          	addi	s2,s7,-1
83009b04:	00040613          	mv	a2,s0
83009b08:	fffbc583          	lbu	a1,-1(s7)
83009b0c:	000a8513          	mv	a0,s5
83009b10:	fffff097          	auipc	ra,0xfffff
83009b14:	fac080e7          	jalr	-84(ra) # 83008abc <_sungetc_r>
83009b18:	00090b93          	mv	s7,s2
83009b1c:	f85ff06f          	j	83009aa0 <__ssvfiscanf_r+0xd58>
83009b20:	004b7793          	andi	a5,s6,4
83009b24:	00078e63          	beqz	a5,83009b40 <__ssvfiscanf_r+0xdf8>
83009b28:	00c12783          	lw	a5,12(sp)
83009b2c:	00478713          	addi	a4,a5,4
83009b30:	00e12623          	sw	a4,12(sp)
83009b34:	0007a783          	lw	a5,0(a5)
83009b38:	00a79023          	sh	a0,0(a5)
83009b3c:	fadff06f          	j	83009ae8 <__ssvfiscanf_r+0xda0>
83009b40:	001b7b13          	andi	s6,s6,1
83009b44:	000b0e63          	beqz	s6,83009b60 <__ssvfiscanf_r+0xe18>
83009b48:	00c12783          	lw	a5,12(sp)
83009b4c:	00478713          	addi	a4,a5,4
83009b50:	00e12623          	sw	a4,12(sp)
83009b54:	0007a783          	lw	a5,0(a5)
83009b58:	00a7a023          	sw	a0,0(a5)
83009b5c:	f8dff06f          	j	83009ae8 <__ssvfiscanf_r+0xda0>
83009b60:	00c12783          	lw	a5,12(sp)
83009b64:	00478713          	addi	a4,a5,4
83009b68:	00e12623          	sw	a4,12(sp)
83009b6c:	0007a783          	lw	a5,0(a5)
83009b70:	00a7a023          	sw	a0,0(a5)
83009b74:	f75ff06f          	j	83009ae8 <__ssvfiscanf_r+0xda0>
83009b78:	fff00d13          	li	s10,-1
83009b7c:	bd8ff06f          	j	83008f54 <__ssvfiscanf_r+0x20c>
83009b80:	fff00d13          	li	s10,-1
83009b84:	bd0ff06f          	j	83008f54 <__ssvfiscanf_r+0x20c>

83009b88 <__sfvwrite_r>:
83009b88:	00862783          	lw	a5,8(a2)
83009b8c:	48078c63          	beqz	a5,8300a024 <__sfvwrite_r+0x49c>
83009b90:	fd010113          	addi	sp,sp,-48
83009b94:	02112623          	sw	ra,44(sp)
83009b98:	02812423          	sw	s0,40(sp)
83009b9c:	02912223          	sw	s1,36(sp)
83009ba0:	03212023          	sw	s2,32(sp)
83009ba4:	01312e23          	sw	s3,28(sp)
83009ba8:	01412c23          	sw	s4,24(sp)
83009bac:	01512a23          	sw	s5,20(sp)
83009bb0:	01612823          	sw	s6,16(sp)
83009bb4:	01712623          	sw	s7,12(sp)
83009bb8:	01812423          	sw	s8,8(sp)
83009bbc:	01912223          	sw	s9,4(sp)
83009bc0:	01a12023          	sw	s10,0(sp)
83009bc4:	00050b13          	mv	s6,a0
83009bc8:	00058413          	mv	s0,a1
83009bcc:	00060a13          	mv	s4,a2
83009bd0:	00c5d783          	lhu	a5,12(a1)
83009bd4:	0087f793          	andi	a5,a5,8
83009bd8:	00078663          	beqz	a5,83009be4 <__sfvwrite_r+0x5c>
83009bdc:	0105a783          	lw	a5,16(a1)
83009be0:	00079c63          	bnez	a5,83009bf8 <__sfvwrite_r+0x70>
83009be4:	00040593          	mv	a1,s0
83009be8:	000b0513          	mv	a0,s6
83009bec:	ffff9097          	auipc	ra,0xffff9
83009bf0:	0f4080e7          	jalr	244(ra) # 83002ce0 <__swsetup_r>
83009bf4:	42051c63          	bnez	a0,8300a02c <__sfvwrite_r+0x4a4>
83009bf8:	000a2483          	lw	s1,0(s4)
83009bfc:	00c45783          	lhu	a5,12(s0)
83009c00:	0027f713          	andi	a4,a5,2
83009c04:	06071e63          	bnez	a4,83009c80 <__sfvwrite_r+0xf8>
83009c08:	0017f793          	andi	a5,a5,1
83009c0c:	18078a63          	beqz	a5,83009da0 <__sfvwrite_r+0x218>
83009c10:	00000993          	li	s3,0
83009c14:	00000c13          	li	s8,0
83009c18:	00000b93          	li	s7,0
83009c1c:	00000a93          	li	s5,0
83009c20:	2900006f          	j	83009eb0 <__sfvwrite_r+0x328>
83009c24:	0004a983          	lw	s3,0(s1)
83009c28:	0044a903          	lw	s2,4(s1)
83009c2c:	00848493          	addi	s1,s1,8
83009c30:	fe090ae3          	beqz	s2,83009c24 <__sfvwrite_r+0x9c>
83009c34:	02442703          	lw	a4,36(s0)
83009c38:	00090693          	mv	a3,s2
83009c3c:	800007b7          	lui	a5,0x80000
83009c40:	c007c793          	xori	a5,a5,-1024
83009c44:	0127f463          	bgeu	a5,s2,83009c4c <__sfvwrite_r+0xc4>
83009c48:	00078693          	mv	a3,a5
83009c4c:	00098613          	mv	a2,s3
83009c50:	01c42583          	lw	a1,28(s0)
83009c54:	000b0513          	mv	a0,s6
83009c58:	000700e7          	jalr	a4
83009c5c:	38a05063          	blez	a0,83009fdc <__sfvwrite_r+0x454>
83009c60:	00a989b3          	add	s3,s3,a0
83009c64:	40a90933          	sub	s2,s2,a0
83009c68:	008a2783          	lw	a5,8(s4)
83009c6c:	40a787b3          	sub	a5,a5,a0
83009c70:	00fa2423          	sw	a5,8(s4)
83009c74:	fa079ee3          	bnez	a5,83009c30 <__sfvwrite_r+0xa8>
83009c78:	00000513          	li	a0,0
83009c7c:	3700006f          	j	83009fec <__sfvwrite_r+0x464>
83009c80:	00000993          	li	s3,0
83009c84:	00000913          	li	s2,0
83009c88:	fa9ff06f          	j	83009c30 <__sfvwrite_r+0xa8>
83009c8c:	0004ab83          	lw	s7,0(s1)
83009c90:	0044a903          	lw	s2,4(s1)
83009c94:	00848493          	addi	s1,s1,8
83009c98:	fe090ae3          	beqz	s2,83009c8c <__sfvwrite_r+0x104>
83009c9c:	00842983          	lw	s3,8(s0)
83009ca0:	00c45783          	lhu	a5,12(s0)
83009ca4:	2007f713          	andi	a4,a5,512
83009ca8:	14070863          	beqz	a4,83009df8 <__sfvwrite_r+0x270>
83009cac:	09396e63          	bltu	s2,s3,83009d48 <__sfvwrite_r+0x1c0>
83009cb0:	4807f713          	andi	a4,a5,1152
83009cb4:	08070a63          	beqz	a4,83009d48 <__sfvwrite_r+0x1c0>
83009cb8:	00042c03          	lw	s8,0(s0)
83009cbc:	01042583          	lw	a1,16(s0)
83009cc0:	40bc0c33          	sub	s8,s8,a1
83009cc4:	01442683          	lw	a3,20(s0)
83009cc8:	00169713          	slli	a4,a3,0x1
83009ccc:	00d70733          	add	a4,a4,a3
83009cd0:	01f75a93          	srli	s5,a4,0x1f
83009cd4:	00ea8ab3          	add	s5,s5,a4
83009cd8:	401ada93          	srai	s5,s5,0x1
83009cdc:	012c0733          	add	a4,s8,s2
83009ce0:	00170713          	addi	a4,a4,1
83009ce4:	00eaf463          	bgeu	s5,a4,83009cec <__sfvwrite_r+0x164>
83009ce8:	00070a93          	mv	s5,a4
83009cec:	4007f793          	andi	a5,a5,1024
83009cf0:	0c078463          	beqz	a5,83009db8 <__sfvwrite_r+0x230>
83009cf4:	000a8593          	mv	a1,s5
83009cf8:	000b0513          	mv	a0,s6
83009cfc:	ffffe097          	auipc	ra,0xffffe
83009d00:	e40080e7          	jalr	-448(ra) # 83007b3c <_malloc_r>
83009d04:	00050993          	mv	s3,a0
83009d08:	0a050263          	beqz	a0,83009dac <__sfvwrite_r+0x224>
83009d0c:	000c0613          	mv	a2,s8
83009d10:	01042583          	lw	a1,16(s0)
83009d14:	fffff097          	auipc	ra,0xfffff
83009d18:	814080e7          	jalr	-2028(ra) # 83008528 <memcpy>
83009d1c:	00c41783          	lh	a5,12(s0)
83009d20:	b7f7f793          	andi	a5,a5,-1153
83009d24:	0807e793          	ori	a5,a5,128
83009d28:	00f41623          	sh	a5,12(s0)
83009d2c:	01342823          	sw	s3,16(s0)
83009d30:	018989b3          	add	s3,s3,s8
83009d34:	01342023          	sw	s3,0(s0)
83009d38:	01542a23          	sw	s5,20(s0)
83009d3c:	00090993          	mv	s3,s2
83009d40:	418a8ab3          	sub	s5,s5,s8
83009d44:	01542423          	sw	s5,8(s0)
83009d48:	01397463          	bgeu	s2,s3,83009d50 <__sfvwrite_r+0x1c8>
83009d4c:	00090993          	mv	s3,s2
83009d50:	00098613          	mv	a2,s3
83009d54:	000b8593          	mv	a1,s7
83009d58:	00042503          	lw	a0,0(s0)
83009d5c:	ffffe097          	auipc	ra,0xffffe
83009d60:	688080e7          	jalr	1672(ra) # 830083e4 <memmove>
83009d64:	00842783          	lw	a5,8(s0)
83009d68:	413787b3          	sub	a5,a5,s3
83009d6c:	00f42423          	sw	a5,8(s0)
83009d70:	00042783          	lw	a5,0(s0)
83009d74:	013787b3          	add	a5,a5,s3
83009d78:	00f42023          	sw	a5,0(s0)
83009d7c:	00090a93          	mv	s5,s2
83009d80:	015b8bb3          	add	s7,s7,s5
83009d84:	41590933          	sub	s2,s2,s5
83009d88:	008a2783          	lw	a5,8(s4)
83009d8c:	415787b3          	sub	a5,a5,s5
83009d90:	00fa2423          	sw	a5,8(s4)
83009d94:	f00792e3          	bnez	a5,83009c98 <__sfvwrite_r+0x110>
83009d98:	00000513          	li	a0,0
83009d9c:	2500006f          	j	83009fec <__sfvwrite_r+0x464>
83009da0:	00000b93          	li	s7,0
83009da4:	00000913          	li	s2,0
83009da8:	ef1ff06f          	j	83009c98 <__sfvwrite_r+0x110>
83009dac:	00c00793          	li	a5,12
83009db0:	00fb2023          	sw	a5,0(s6)
83009db4:	2280006f          	j	83009fdc <__sfvwrite_r+0x454>
83009db8:	000a8613          	mv	a2,s5
83009dbc:	000b0513          	mv	a0,s6
83009dc0:	ffffd097          	auipc	ra,0xffffd
83009dc4:	f38080e7          	jalr	-200(ra) # 83006cf8 <_realloc_r>
83009dc8:	00050993          	mv	s3,a0
83009dcc:	f60510e3          	bnez	a0,83009d2c <__sfvwrite_r+0x1a4>
83009dd0:	01042583          	lw	a1,16(s0)
83009dd4:	000b0513          	mv	a0,s6
83009dd8:	ffffd097          	auipc	ra,0xffffd
83009ddc:	7a0080e7          	jalr	1952(ra) # 83007578 <_free_r>
83009de0:	00c45783          	lhu	a5,12(s0)
83009de4:	f7f7f793          	andi	a5,a5,-129
83009de8:	00f41623          	sh	a5,12(s0)
83009dec:	00c00793          	li	a5,12
83009df0:	00fb2023          	sw	a5,0(s6)
83009df4:	1e80006f          	j	83009fdc <__sfvwrite_r+0x454>
83009df8:	00042503          	lw	a0,0(s0)
83009dfc:	01042783          	lw	a5,16(s0)
83009e00:	00a7e663          	bltu	a5,a0,83009e0c <__sfvwrite_r+0x284>
83009e04:	01442783          	lw	a5,20(s0)
83009e08:	04f97a63          	bgeu	s2,a5,83009e5c <__sfvwrite_r+0x2d4>
83009e0c:	01397463          	bgeu	s2,s3,83009e14 <__sfvwrite_r+0x28c>
83009e10:	00090993          	mv	s3,s2
83009e14:	00098a93          	mv	s5,s3
83009e18:	00098613          	mv	a2,s3
83009e1c:	000b8593          	mv	a1,s7
83009e20:	ffffe097          	auipc	ra,0xffffe
83009e24:	5c4080e7          	jalr	1476(ra) # 830083e4 <memmove>
83009e28:	00842783          	lw	a5,8(s0)
83009e2c:	413787b3          	sub	a5,a5,s3
83009e30:	00f42423          	sw	a5,8(s0)
83009e34:	00042703          	lw	a4,0(s0)
83009e38:	01370733          	add	a4,a4,s3
83009e3c:	00e42023          	sw	a4,0(s0)
83009e40:	f40790e3          	bnez	a5,83009d80 <__sfvwrite_r+0x1f8>
83009e44:	00040593          	mv	a1,s0
83009e48:	000b0513          	mv	a0,s6
83009e4c:	ffffa097          	auipc	ra,0xffffa
83009e50:	e0c080e7          	jalr	-500(ra) # 83003c58 <_fflush_r>
83009e54:	f20506e3          	beqz	a0,83009d80 <__sfvwrite_r+0x1f8>
83009e58:	1840006f          	j	83009fdc <__sfvwrite_r+0x454>
83009e5c:	80000737          	lui	a4,0x80000
83009e60:	ffe74713          	xori	a4,a4,-2
83009e64:	03276863          	bltu	a4,s2,83009e94 <__sfvwrite_r+0x30c>
83009e68:	00090693          	mv	a3,s2
83009e6c:	02f6c6b3          	div	a3,a3,a5
83009e70:	02442703          	lw	a4,36(s0)
83009e74:	02d786b3          	mul	a3,a5,a3
83009e78:	000b8613          	mv	a2,s7
83009e7c:	01c42583          	lw	a1,28(s0)
83009e80:	000b0513          	mv	a0,s6
83009e84:	000700e7          	jalr	a4 # 80000000 <__BSS_END__+0xfcff04f8>
83009e88:	00050a93          	mv	s5,a0
83009e8c:	eea04ae3          	bgtz	a0,83009d80 <__sfvwrite_r+0x1f8>
83009e90:	14c0006f          	j	83009fdc <__sfvwrite_r+0x454>
83009e94:	800006b7          	lui	a3,0x80000
83009e98:	fff6c693          	not	a3,a3
83009e9c:	fd1ff06f          	j	83009e6c <__sfvwrite_r+0x2e4>
83009ea0:	0004ab83          	lw	s7,0(s1)
83009ea4:	0044aa83          	lw	s5,4(s1)
83009ea8:	00848493          	addi	s1,s1,8
83009eac:	00000c13          	li	s8,0
83009eb0:	fe0a88e3          	beqz	s5,83009ea0 <__sfvwrite_r+0x318>
83009eb4:	060c0c63          	beqz	s8,83009f2c <__sfvwrite_r+0x3a4>
83009eb8:	00098c93          	mv	s9,s3
83009ebc:	013af463          	bgeu	s5,s3,83009ec4 <__sfvwrite_r+0x33c>
83009ec0:	000a8c93          	mv	s9,s5
83009ec4:	000c8d13          	mv	s10,s9
83009ec8:	00842903          	lw	s2,8(s0)
83009ecc:	01442683          	lw	a3,20(s0)
83009ed0:	00d90933          	add	s2,s2,a3
83009ed4:	00042503          	lw	a0,0(s0)
83009ed8:	01042783          	lw	a5,16(s0)
83009edc:	00a7f463          	bgeu	a5,a0,83009ee4 <__sfvwrite_r+0x35c>
83009ee0:	09994063          	blt	s2,s9,83009f60 <__sfvwrite_r+0x3d8>
83009ee4:	0add4863          	blt	s10,a3,83009f94 <__sfvwrite_r+0x40c>
83009ee8:	02442783          	lw	a5,36(s0)
83009eec:	000b8613          	mv	a2,s7
83009ef0:	01c42583          	lw	a1,28(s0)
83009ef4:	000b0513          	mv	a0,s6
83009ef8:	000780e7          	jalr	a5 # 80000000 <__BSS_END__+0xfcff04f8>
83009efc:	00050913          	mv	s2,a0
83009f00:	0ca05e63          	blez	a0,83009fdc <__sfvwrite_r+0x454>
83009f04:	412989b3          	sub	s3,s3,s2
83009f08:	0a098e63          	beqz	s3,83009fc4 <__sfvwrite_r+0x43c>
83009f0c:	012b8bb3          	add	s7,s7,s2
83009f10:	412a8ab3          	sub	s5,s5,s2
83009f14:	008a2783          	lw	a5,8(s4)
83009f18:	412787b3          	sub	a5,a5,s2
83009f1c:	00fa2423          	sw	a5,8(s4)
83009f20:	f80798e3          	bnez	a5,83009eb0 <__sfvwrite_r+0x328>
83009f24:	00000513          	li	a0,0
83009f28:	0c40006f          	j	83009fec <__sfvwrite_r+0x464>
83009f2c:	000a8613          	mv	a2,s5
83009f30:	00a00593          	li	a1,10
83009f34:	000b8513          	mv	a0,s7
83009f38:	ffffe097          	auipc	ra,0xffffe
83009f3c:	694080e7          	jalr	1684(ra) # 830085cc <memchr>
83009f40:	00050a63          	beqz	a0,83009f54 <__sfvwrite_r+0x3cc>
83009f44:	00150513          	addi	a0,a0,1
83009f48:	417509b3          	sub	s3,a0,s7
83009f4c:	00100c13          	li	s8,1
83009f50:	f69ff06f          	j	83009eb8 <__sfvwrite_r+0x330>
83009f54:	001a8993          	addi	s3,s5,1
83009f58:	00100c13          	li	s8,1
83009f5c:	f5dff06f          	j	83009eb8 <__sfvwrite_r+0x330>
83009f60:	00090613          	mv	a2,s2
83009f64:	000b8593          	mv	a1,s7
83009f68:	ffffe097          	auipc	ra,0xffffe
83009f6c:	47c080e7          	jalr	1148(ra) # 830083e4 <memmove>
83009f70:	00042783          	lw	a5,0(s0)
83009f74:	012787b3          	add	a5,a5,s2
83009f78:	00f42023          	sw	a5,0(s0)
83009f7c:	00040593          	mv	a1,s0
83009f80:	000b0513          	mv	a0,s6
83009f84:	ffffa097          	auipc	ra,0xffffa
83009f88:	cd4080e7          	jalr	-812(ra) # 83003c58 <_fflush_r>
83009f8c:	f6050ce3          	beqz	a0,83009f04 <__sfvwrite_r+0x37c>
83009f90:	04c0006f          	j	83009fdc <__sfvwrite_r+0x454>
83009f94:	000c8613          	mv	a2,s9
83009f98:	000b8593          	mv	a1,s7
83009f9c:	ffffe097          	auipc	ra,0xffffe
83009fa0:	448080e7          	jalr	1096(ra) # 830083e4 <memmove>
83009fa4:	00842783          	lw	a5,8(s0)
83009fa8:	41a787b3          	sub	a5,a5,s10
83009fac:	00f42423          	sw	a5,8(s0)
83009fb0:	00042783          	lw	a5,0(s0)
83009fb4:	019787b3          	add	a5,a5,s9
83009fb8:	00f42023          	sw	a5,0(s0)
83009fbc:	000d0913          	mv	s2,s10
83009fc0:	f45ff06f          	j	83009f04 <__sfvwrite_r+0x37c>
83009fc4:	00040593          	mv	a1,s0
83009fc8:	000b0513          	mv	a0,s6
83009fcc:	ffffa097          	auipc	ra,0xffffa
83009fd0:	c8c080e7          	jalr	-884(ra) # 83003c58 <_fflush_r>
83009fd4:	00050c13          	mv	s8,a0
83009fd8:	f2050ae3          	beqz	a0,83009f0c <__sfvwrite_r+0x384>
83009fdc:	00c45783          	lhu	a5,12(s0)
83009fe0:	0407e793          	ori	a5,a5,64
83009fe4:	00f41623          	sh	a5,12(s0)
83009fe8:	fff00513          	li	a0,-1
83009fec:	02c12083          	lw	ra,44(sp)
83009ff0:	02812403          	lw	s0,40(sp)
83009ff4:	02412483          	lw	s1,36(sp)
83009ff8:	02012903          	lw	s2,32(sp)
83009ffc:	01c12983          	lw	s3,28(sp)
8300a000:	01812a03          	lw	s4,24(sp)
8300a004:	01412a83          	lw	s5,20(sp)
8300a008:	01012b03          	lw	s6,16(sp)
8300a00c:	00c12b83          	lw	s7,12(sp)
8300a010:	00812c03          	lw	s8,8(sp)
8300a014:	00412c83          	lw	s9,4(sp)
8300a018:	00012d03          	lw	s10,0(sp)
8300a01c:	03010113          	addi	sp,sp,48
8300a020:	00008067          	ret
8300a024:	00000513          	li	a0,0
8300a028:	00008067          	ret
8300a02c:	fff00513          	li	a0,-1
8300a030:	fbdff06f          	j	83009fec <__sfvwrite_r+0x464>

8300a034 <__sflags>:
8300a034:	0005c783          	lbu	a5,0(a1)
8300a038:	07200713          	li	a4,114
8300a03c:	06e78063          	beq	a5,a4,8300a09c <__sflags+0x68>
8300a040:	07700713          	li	a4,119
8300a044:	06e78463          	beq	a5,a4,8300a0ac <__sflags+0x78>
8300a048:	06100713          	li	a4,97
8300a04c:	06e78863          	beq	a5,a4,8300a0bc <__sflags+0x88>
8300a050:	01600793          	li	a5,22
8300a054:	00f52023          	sw	a5,0(a0)
8300a058:	00000513          	li	a0,0
8300a05c:	00008067          	ret
8300a060:	fe357513          	andi	a0,a0,-29
8300a064:	01056513          	ori	a0,a0,16
8300a068:	ffc77713          	andi	a4,a4,-4
8300a06c:	00276713          	ori	a4,a4,2
8300a070:	00158593          	addi	a1,a1,1
8300a074:	0005c783          	lbu	a5,0(a1)
8300a078:	04078a63          	beqz	a5,8300a0cc <__sflags+0x98>
8300a07c:	02b00693          	li	a3,43
8300a080:	fed780e3          	beq	a5,a3,8300a060 <__sflags+0x2c>
8300a084:	07800693          	li	a3,120
8300a088:	fed794e3          	bne	a5,a3,8300a070 <__sflags+0x3c>
8300a08c:	000017b7          	lui	a5,0x1
8300a090:	80078793          	addi	a5,a5,-2048 # 800 <_ZL9set_i_maxv-0x82fff8b4>
8300a094:	00f76733          	or	a4,a4,a5
8300a098:	fd9ff06f          	j	8300a070 <__sflags+0x3c>
8300a09c:	00000813          	li	a6,0
8300a0a0:	00000713          	li	a4,0
8300a0a4:	00400513          	li	a0,4
8300a0a8:	fc9ff06f          	j	8300a070 <__sflags+0x3c>
8300a0ac:	60000813          	li	a6,1536
8300a0b0:	00100713          	li	a4,1
8300a0b4:	00800513          	li	a0,8
8300a0b8:	fb9ff06f          	j	8300a070 <__sflags+0x3c>
8300a0bc:	20800813          	li	a6,520
8300a0c0:	00100713          	li	a4,1
8300a0c4:	10800513          	li	a0,264
8300a0c8:	fa9ff06f          	j	8300a070 <__sflags+0x3c>
8300a0cc:	01076733          	or	a4,a4,a6
8300a0d0:	00e62023          	sw	a4,0(a2)
8300a0d4:	00008067          	ret

8300a0d8 <_fiprintf_r>:
8300a0d8:	fc010113          	addi	sp,sp,-64
8300a0dc:	00112e23          	sw	ra,28(sp)
8300a0e0:	02d12623          	sw	a3,44(sp)
8300a0e4:	02e12823          	sw	a4,48(sp)
8300a0e8:	02f12a23          	sw	a5,52(sp)
8300a0ec:	03012c23          	sw	a6,56(sp)
8300a0f0:	03112e23          	sw	a7,60(sp)
8300a0f4:	02c10693          	addi	a3,sp,44
8300a0f8:	00d12623          	sw	a3,12(sp)
8300a0fc:	ffffb097          	auipc	ra,0xffffb
8300a100:	b10080e7          	jalr	-1264(ra) # 83004c0c <_vfiprintf_r>
8300a104:	01c12083          	lw	ra,28(sp)
8300a108:	04010113          	addi	sp,sp,64
8300a10c:	00008067          	ret

8300a110 <fiprintf>:
8300a110:	fc010113          	addi	sp,sp,-64
8300a114:	00112e23          	sw	ra,28(sp)
8300a118:	02c12423          	sw	a2,40(sp)
8300a11c:	02d12623          	sw	a3,44(sp)
8300a120:	02e12823          	sw	a4,48(sp)
8300a124:	02f12a23          	sw	a5,52(sp)
8300a128:	03012c23          	sw	a6,56(sp)
8300a12c:	03112e23          	sw	a7,60(sp)
8300a130:	02810693          	addi	a3,sp,40
8300a134:	00d12623          	sw	a3,12(sp)
8300a138:	00058613          	mv	a2,a1
8300a13c:	00050593          	mv	a1,a0
8300a140:	00006517          	auipc	a0,0x6
8300a144:	94052503          	lw	a0,-1728(a0) # 8300fa80 <_impure_ptr>
8300a148:	ffffb097          	auipc	ra,0xffffb
8300a14c:	ac4080e7          	jalr	-1340(ra) # 83004c0c <_vfiprintf_r>
8300a150:	01c12083          	lw	ra,28(sp)
8300a154:	04010113          	addi	sp,sp,64
8300a158:	00008067          	ret

8300a15c <__submore>:
8300a15c:	fe010113          	addi	sp,sp,-32
8300a160:	00112e23          	sw	ra,28(sp)
8300a164:	00812c23          	sw	s0,24(sp)
8300a168:	00912a23          	sw	s1,20(sp)
8300a16c:	01212823          	sw	s2,16(sp)
8300a170:	01312623          	sw	s3,12(sp)
8300a174:	01412423          	sw	s4,8(sp)
8300a178:	00058413          	mv	s0,a1
8300a17c:	0305a583          	lw	a1,48(a1)
8300a180:	04040793          	addi	a5,s0,64
8300a184:	06f58463          	beq	a1,a5,8300a1ec <__submore+0x90>
8300a188:	03442903          	lw	s2,52(s0)
8300a18c:	00191993          	slli	s3,s2,0x1
8300a190:	00098613          	mv	a2,s3
8300a194:	ffffd097          	auipc	ra,0xffffd
8300a198:	b64080e7          	jalr	-1180(ra) # 83006cf8 <_realloc_r>
8300a19c:	00050493          	mv	s1,a0
8300a1a0:	0a050063          	beqz	a0,8300a240 <__submore+0xe4>
8300a1a4:	01250a33          	add	s4,a0,s2
8300a1a8:	00090613          	mv	a2,s2
8300a1ac:	00050593          	mv	a1,a0
8300a1b0:	000a0513          	mv	a0,s4
8300a1b4:	ffffe097          	auipc	ra,0xffffe
8300a1b8:	374080e7          	jalr	884(ra) # 83008528 <memcpy>
8300a1bc:	01442023          	sw	s4,0(s0)
8300a1c0:	02942823          	sw	s1,48(s0)
8300a1c4:	03342a23          	sw	s3,52(s0)
8300a1c8:	00000513          	li	a0,0
8300a1cc:	01c12083          	lw	ra,28(sp)
8300a1d0:	01812403          	lw	s0,24(sp)
8300a1d4:	01412483          	lw	s1,20(sp)
8300a1d8:	01012903          	lw	s2,16(sp)
8300a1dc:	00c12983          	lw	s3,12(sp)
8300a1e0:	00812a03          	lw	s4,8(sp)
8300a1e4:	02010113          	addi	sp,sp,32
8300a1e8:	00008067          	ret
8300a1ec:	40000593          	li	a1,1024
8300a1f0:	ffffe097          	auipc	ra,0xffffe
8300a1f4:	94c080e7          	jalr	-1716(ra) # 83007b3c <_malloc_r>
8300a1f8:	04050063          	beqz	a0,8300a238 <__submore+0xdc>
8300a1fc:	02a42823          	sw	a0,48(s0)
8300a200:	40000793          	li	a5,1024
8300a204:	02f42a23          	sw	a5,52(s0)
8300a208:	3fd50513          	addi	a0,a0,1021
8300a20c:	00300793          	li	a5,3
8300a210:	0140006f          	j	8300a224 <__submore+0xc8>
8300a214:	00f50733          	add	a4,a0,a5
8300a218:	00f406b3          	add	a3,s0,a5
8300a21c:	0406c683          	lbu	a3,64(a3) # 80000040 <__BSS_END__+0xfcff0538>
8300a220:	00d70023          	sb	a3,0(a4)
8300a224:	fff78793          	addi	a5,a5,-1
8300a228:	fe07d6e3          	bgez	a5,8300a214 <__submore+0xb8>
8300a22c:	00a42023          	sw	a0,0(s0)
8300a230:	00000513          	li	a0,0
8300a234:	f99ff06f          	j	8300a1cc <__submore+0x70>
8300a238:	fff00513          	li	a0,-1
8300a23c:	f91ff06f          	j	8300a1cc <__submore+0x70>
8300a240:	fff00513          	li	a0,-1
8300a244:	f89ff06f          	j	8300a1cc <__submore+0x70>

8300a248 <_ungetc_r>:
8300a248:	fe010113          	addi	sp,sp,-32
8300a24c:	00112e23          	sw	ra,28(sp)
8300a250:	00812c23          	sw	s0,24(sp)
8300a254:	00912a23          	sw	s1,20(sp)
8300a258:	01212823          	sw	s2,16(sp)
8300a25c:	01312623          	sw	s3,12(sp)
8300a260:	00058493          	mv	s1,a1
8300a264:	fff00793          	li	a5,-1
8300a268:	08f58863          	beq	a1,a5,8300a2f8 <_ungetc_r+0xb0>
8300a26c:	00050913          	mv	s2,a0
8300a270:	00060413          	mv	s0,a2
8300a274:	00050663          	beqz	a0,8300a280 <_ungetc_r+0x38>
8300a278:	03852783          	lw	a5,56(a0)
8300a27c:	08078e63          	beqz	a5,8300a318 <_ungetc_r+0xd0>
8300a280:	00c45783          	lhu	a5,12(s0)
8300a284:	fdf7f793          	andi	a5,a5,-33
8300a288:	01079793          	slli	a5,a5,0x10
8300a28c:	4107d793          	srai	a5,a5,0x10
8300a290:	00f41623          	sh	a5,12(s0)
8300a294:	01079713          	slli	a4,a5,0x10
8300a298:	01075713          	srli	a4,a4,0x10
8300a29c:	0047f793          	andi	a5,a5,4
8300a2a0:	02079063          	bnez	a5,8300a2c0 <_ungetc_r+0x78>
8300a2a4:	01077793          	andi	a5,a4,16
8300a2a8:	12078663          	beqz	a5,8300a3d4 <_ungetc_r+0x18c>
8300a2ac:	00877713          	andi	a4,a4,8
8300a2b0:	06071a63          	bnez	a4,8300a324 <_ungetc_r+0xdc>
8300a2b4:	00c45783          	lhu	a5,12(s0)
8300a2b8:	0047e793          	ori	a5,a5,4
8300a2bc:	00f41623          	sh	a5,12(s0)
8300a2c0:	0ff4f993          	zext.b	s3,s1
8300a2c4:	0ff4f493          	zext.b	s1,s1
8300a2c8:	03042783          	lw	a5,48(s0)
8300a2cc:	0a078063          	beqz	a5,8300a36c <_ungetc_r+0x124>
8300a2d0:	00442703          	lw	a4,4(s0)
8300a2d4:	03442783          	lw	a5,52(s0)
8300a2d8:	06f75c63          	bge	a4,a5,8300a350 <_ungetc_r+0x108>
8300a2dc:	00042783          	lw	a5,0(s0)
8300a2e0:	fff78713          	addi	a4,a5,-1
8300a2e4:	00e42023          	sw	a4,0(s0)
8300a2e8:	ff378fa3          	sb	s3,-1(a5)
8300a2ec:	00442783          	lw	a5,4(s0)
8300a2f0:	00178793          	addi	a5,a5,1
8300a2f4:	00f42223          	sw	a5,4(s0)
8300a2f8:	00048513          	mv	a0,s1
8300a2fc:	01c12083          	lw	ra,28(sp)
8300a300:	01812403          	lw	s0,24(sp)
8300a304:	01412483          	lw	s1,20(sp)
8300a308:	01012903          	lw	s2,16(sp)
8300a30c:	00c12983          	lw	s3,12(sp)
8300a310:	02010113          	addi	sp,sp,32
8300a314:	00008067          	ret
8300a318:	ffff7097          	auipc	ra,0xffff7
8300a31c:	280080e7          	jalr	640(ra) # 83001598 <__sinit>
8300a320:	f61ff06f          	j	8300a280 <_ungetc_r+0x38>
8300a324:	00040593          	mv	a1,s0
8300a328:	00090513          	mv	a0,s2
8300a32c:	ffffa097          	auipc	ra,0xffffa
8300a330:	92c080e7          	jalr	-1748(ra) # 83003c58 <_fflush_r>
8300a334:	0a051463          	bnez	a0,8300a3dc <_ungetc_r+0x194>
8300a338:	00c45783          	lhu	a5,12(s0)
8300a33c:	ff77f793          	andi	a5,a5,-9
8300a340:	00f41623          	sh	a5,12(s0)
8300a344:	00042423          	sw	zero,8(s0)
8300a348:	00042c23          	sw	zero,24(s0)
8300a34c:	f69ff06f          	j	8300a2b4 <_ungetc_r+0x6c>
8300a350:	00040593          	mv	a1,s0
8300a354:	00090513          	mv	a0,s2
8300a358:	00000097          	auipc	ra,0x0
8300a35c:	e04080e7          	jalr	-508(ra) # 8300a15c <__submore>
8300a360:	f6050ee3          	beqz	a0,8300a2dc <_ungetc_r+0x94>
8300a364:	fff00493          	li	s1,-1
8300a368:	f91ff06f          	j	8300a2f8 <_ungetc_r+0xb0>
8300a36c:	01042783          	lw	a5,16(s0)
8300a370:	00078a63          	beqz	a5,8300a384 <_ungetc_r+0x13c>
8300a374:	00042703          	lw	a4,0(s0)
8300a378:	00e7f663          	bgeu	a5,a4,8300a384 <_ungetc_r+0x13c>
8300a37c:	fff74783          	lbu	a5,-1(a4)
8300a380:	02978e63          	beq	a5,s1,8300a3bc <_ungetc_r+0x174>
8300a384:	00442783          	lw	a5,4(s0)
8300a388:	02f42e23          	sw	a5,60(s0)
8300a38c:	00042783          	lw	a5,0(s0)
8300a390:	02f42c23          	sw	a5,56(s0)
8300a394:	04040793          	addi	a5,s0,64
8300a398:	02f42823          	sw	a5,48(s0)
8300a39c:	00300793          	li	a5,3
8300a3a0:	02f42a23          	sw	a5,52(s0)
8300a3a4:	05340123          	sb	s3,66(s0)
8300a3a8:	04240793          	addi	a5,s0,66
8300a3ac:	00f42023          	sw	a5,0(s0)
8300a3b0:	00100793          	li	a5,1
8300a3b4:	00f42223          	sw	a5,4(s0)
8300a3b8:	f41ff06f          	j	8300a2f8 <_ungetc_r+0xb0>
8300a3bc:	fff70713          	addi	a4,a4,-1
8300a3c0:	00e42023          	sw	a4,0(s0)
8300a3c4:	00442783          	lw	a5,4(s0)
8300a3c8:	00178793          	addi	a5,a5,1
8300a3cc:	00f42223          	sw	a5,4(s0)
8300a3d0:	f29ff06f          	j	8300a2f8 <_ungetc_r+0xb0>
8300a3d4:	fff00493          	li	s1,-1
8300a3d8:	f21ff06f          	j	8300a2f8 <_ungetc_r+0xb0>
8300a3dc:	fff00493          	li	s1,-1
8300a3e0:	f19ff06f          	j	8300a2f8 <_ungetc_r+0xb0>

8300a3e4 <ungetc>:
8300a3e4:	ff010113          	addi	sp,sp,-16
8300a3e8:	00112623          	sw	ra,12(sp)
8300a3ec:	00058613          	mv	a2,a1
8300a3f0:	00050593          	mv	a1,a0
8300a3f4:	00005517          	auipc	a0,0x5
8300a3f8:	68c52503          	lw	a0,1676(a0) # 8300fa80 <_impure_ptr>
8300a3fc:	00000097          	auipc	ra,0x0
8300a400:	e4c080e7          	jalr	-436(ra) # 8300a248 <_ungetc_r>
8300a404:	00c12083          	lw	ra,12(sp)
8300a408:	01010113          	addi	sp,sp,16
8300a40c:	00008067          	ret

8300a410 <_sbrk_r>:
8300a410:	ff010113          	addi	sp,sp,-16
8300a414:	00112623          	sw	ra,12(sp)
8300a418:	00812423          	sw	s0,8(sp)
8300a41c:	00050413          	mv	s0,a0
8300a420:	00005797          	auipc	a5,0x5
8300a424:	6807a423          	sw	zero,1672(a5) # 8300faa8 <errno>
8300a428:	00058513          	mv	a0,a1
8300a42c:	00002097          	auipc	ra,0x2
8300a430:	004080e7          	jalr	4(ra) # 8300c430 <_sbrk>
8300a434:	fff00793          	li	a5,-1
8300a438:	00f50a63          	beq	a0,a5,8300a44c <_sbrk_r+0x3c>
8300a43c:	00c12083          	lw	ra,12(sp)
8300a440:	00812403          	lw	s0,8(sp)
8300a444:	01010113          	addi	sp,sp,16
8300a448:	00008067          	ret
8300a44c:	00005797          	auipc	a5,0x5
8300a450:	65c7a783          	lw	a5,1628(a5) # 8300faa8 <errno>
8300a454:	fe0784e3          	beqz	a5,8300a43c <_sbrk_r+0x2c>
8300a458:	00f42023          	sw	a5,0(s0)
8300a45c:	fe1ff06f          	j	8300a43c <_sbrk_r+0x2c>

8300a460 <__errno>:
8300a460:	00005517          	auipc	a0,0x5
8300a464:	62052503          	lw	a0,1568(a0) # 8300fa80 <_impure_ptr>
8300a468:	00008067          	ret

8300a46c <__malloc_lock>:
8300a46c:	00008067          	ret

8300a470 <__malloc_unlock>:
8300a470:	00008067          	ret

8300a474 <abort>:
8300a474:	ff010113          	addi	sp,sp,-16
8300a478:	00112623          	sw	ra,12(sp)
8300a47c:	00600513          	li	a0,6
8300a480:	00000097          	auipc	ra,0x0
8300a484:	3d4080e7          	jalr	980(ra) # 8300a854 <raise>
8300a488:	00100513          	li	a0,1
8300a48c:	00002097          	auipc	ra,0x2
8300a490:	f28080e7          	jalr	-216(ra) # 8300c3b4 <_exit>

8300a494 <iswspace_l>:
8300a494:	0ff00793          	li	a5,255
8300a498:	00a7ee63          	bltu	a5,a0,8300a4b4 <iswspace_l+0x20>
8300a49c:	00003797          	auipc	a5,0x3
8300a4a0:	76178793          	addi	a5,a5,1889 # 8300dbfd <_ctype_+0x1>
8300a4a4:	00f50533          	add	a0,a0,a5
8300a4a8:	00054503          	lbu	a0,0(a0)
8300a4ac:	00857513          	andi	a0,a0,8
8300a4b0:	00008067          	ret
8300a4b4:	00000513          	li	a0,0
8300a4b8:	00008067          	ret

8300a4bc <_putc_r>:
8300a4bc:	ff010113          	addi	sp,sp,-16
8300a4c0:	00112623          	sw	ra,12(sp)
8300a4c4:	00812423          	sw	s0,8(sp)
8300a4c8:	00912223          	sw	s1,4(sp)
8300a4cc:	01212023          	sw	s2,0(sp)
8300a4d0:	00050913          	mv	s2,a0
8300a4d4:	00058413          	mv	s0,a1
8300a4d8:	00060493          	mv	s1,a2
8300a4dc:	00050663          	beqz	a0,8300a4e8 <_putc_r+0x2c>
8300a4e0:	03852783          	lw	a5,56(a0)
8300a4e4:	04078a63          	beqz	a5,8300a538 <_putc_r+0x7c>
8300a4e8:	0084a783          	lw	a5,8(s1)
8300a4ec:	fff78793          	addi	a5,a5,-1
8300a4f0:	00f4a423          	sw	a5,8(s1)
8300a4f4:	0007dc63          	bgez	a5,8300a50c <_putc_r+0x50>
8300a4f8:	0184a703          	lw	a4,24(s1)
8300a4fc:	04e7c463          	blt	a5,a4,8300a544 <_putc_r+0x88>
8300a500:	0ff47793          	zext.b	a5,s0
8300a504:	00a00713          	li	a4,10
8300a508:	02e78e63          	beq	a5,a4,8300a544 <_putc_r+0x88>
8300a50c:	0004a783          	lw	a5,0(s1)
8300a510:	00178713          	addi	a4,a5,1
8300a514:	00e4a023          	sw	a4,0(s1)
8300a518:	0ff47513          	zext.b	a0,s0
8300a51c:	00a78023          	sb	a0,0(a5)
8300a520:	00c12083          	lw	ra,12(sp)
8300a524:	00812403          	lw	s0,8(sp)
8300a528:	00412483          	lw	s1,4(sp)
8300a52c:	00012903          	lw	s2,0(sp)
8300a530:	01010113          	addi	sp,sp,16
8300a534:	00008067          	ret
8300a538:	ffff7097          	auipc	ra,0xffff7
8300a53c:	060080e7          	jalr	96(ra) # 83001598 <__sinit>
8300a540:	fa9ff06f          	j	8300a4e8 <_putc_r+0x2c>
8300a544:	00048613          	mv	a2,s1
8300a548:	00040593          	mv	a1,s0
8300a54c:	00090513          	mv	a0,s2
8300a550:	ffffe097          	auipc	ra,0xffffe
8300a554:	130080e7          	jalr	304(ra) # 83008680 <__swbuf_r>
8300a558:	fc9ff06f          	j	8300a520 <_putc_r+0x64>

8300a55c <putc>:
8300a55c:	ff010113          	addi	sp,sp,-16
8300a560:	00112623          	sw	ra,12(sp)
8300a564:	00812423          	sw	s0,8(sp)
8300a568:	00912223          	sw	s1,4(sp)
8300a56c:	01212023          	sw	s2,0(sp)
8300a570:	00050413          	mv	s0,a0
8300a574:	00058493          	mv	s1,a1
8300a578:	00005917          	auipc	s2,0x5
8300a57c:	50892903          	lw	s2,1288(s2) # 8300fa80 <_impure_ptr>
8300a580:	00090663          	beqz	s2,8300a58c <putc+0x30>
8300a584:	03892783          	lw	a5,56(s2)
8300a588:	04078a63          	beqz	a5,8300a5dc <putc+0x80>
8300a58c:	0084a783          	lw	a5,8(s1)
8300a590:	fff78793          	addi	a5,a5,-1
8300a594:	00f4a423          	sw	a5,8(s1)
8300a598:	0007dc63          	bgez	a5,8300a5b0 <putc+0x54>
8300a59c:	0184a703          	lw	a4,24(s1)
8300a5a0:	04e7c663          	blt	a5,a4,8300a5ec <putc+0x90>
8300a5a4:	0ff47793          	zext.b	a5,s0
8300a5a8:	00a00713          	li	a4,10
8300a5ac:	04e78063          	beq	a5,a4,8300a5ec <putc+0x90>
8300a5b0:	0004a783          	lw	a5,0(s1)
8300a5b4:	00178713          	addi	a4,a5,1
8300a5b8:	00e4a023          	sw	a4,0(s1)
8300a5bc:	0ff47513          	zext.b	a0,s0
8300a5c0:	00a78023          	sb	a0,0(a5)
8300a5c4:	00c12083          	lw	ra,12(sp)
8300a5c8:	00812403          	lw	s0,8(sp)
8300a5cc:	00412483          	lw	s1,4(sp)
8300a5d0:	00012903          	lw	s2,0(sp)
8300a5d4:	01010113          	addi	sp,sp,16
8300a5d8:	00008067          	ret
8300a5dc:	00090513          	mv	a0,s2
8300a5e0:	ffff7097          	auipc	ra,0xffff7
8300a5e4:	fb8080e7          	jalr	-72(ra) # 83001598 <__sinit>
8300a5e8:	fa5ff06f          	j	8300a58c <putc+0x30>
8300a5ec:	00048613          	mv	a2,s1
8300a5f0:	00040593          	mv	a1,s0
8300a5f4:	00090513          	mv	a0,s2
8300a5f8:	ffffe097          	auipc	ra,0xffffe
8300a5fc:	088080e7          	jalr	136(ra) # 83008680 <__swbuf_r>
8300a600:	fc5ff06f          	j	8300a5c4 <putc+0x68>

8300a604 <_init_signal_r>:
8300a604:	2dc52783          	lw	a5,732(a0)
8300a608:	00078663          	beqz	a5,8300a614 <_init_signal_r+0x10>
8300a60c:	00000513          	li	a0,0
8300a610:	00008067          	ret
8300a614:	ff010113          	addi	sp,sp,-16
8300a618:	00112623          	sw	ra,12(sp)
8300a61c:	00812423          	sw	s0,8(sp)
8300a620:	00050413          	mv	s0,a0
8300a624:	08000593          	li	a1,128
8300a628:	ffffd097          	auipc	ra,0xffffd
8300a62c:	514080e7          	jalr	1300(ra) # 83007b3c <_malloc_r>
8300a630:	2ca42e23          	sw	a0,732(s0)
8300a634:	02050e63          	beqz	a0,8300a670 <_init_signal_r+0x6c>
8300a638:	00000793          	li	a5,0
8300a63c:	0180006f          	j	8300a654 <_init_signal_r+0x50>
8300a640:	2dc42703          	lw	a4,732(s0)
8300a644:	00279693          	slli	a3,a5,0x2
8300a648:	00d70733          	add	a4,a4,a3
8300a64c:	00072023          	sw	zero,0(a4)
8300a650:	00178793          	addi	a5,a5,1
8300a654:	01f00713          	li	a4,31
8300a658:	fef754e3          	bge	a4,a5,8300a640 <_init_signal_r+0x3c>
8300a65c:	00000513          	li	a0,0
8300a660:	00c12083          	lw	ra,12(sp)
8300a664:	00812403          	lw	s0,8(sp)
8300a668:	01010113          	addi	sp,sp,16
8300a66c:	00008067          	ret
8300a670:	fff00513          	li	a0,-1
8300a674:	fedff06f          	j	8300a660 <_init_signal_r+0x5c>

8300a678 <_signal_r>:
8300a678:	ff010113          	addi	sp,sp,-16
8300a67c:	00112623          	sw	ra,12(sp)
8300a680:	00812423          	sw	s0,8(sp)
8300a684:	00912223          	sw	s1,4(sp)
8300a688:	01212023          	sw	s2,0(sp)
8300a68c:	00050493          	mv	s1,a0
8300a690:	01f00793          	li	a5,31
8300a694:	04b7e063          	bltu	a5,a1,8300a6d4 <_signal_r+0x5c>
8300a698:	00058413          	mv	s0,a1
8300a69c:	00060913          	mv	s2,a2
8300a6a0:	2dc52783          	lw	a5,732(a0)
8300a6a4:	04078063          	beqz	a5,8300a6e4 <_signal_r+0x6c>
8300a6a8:	2dc4a783          	lw	a5,732(s1)
8300a6ac:	00241413          	slli	s0,s0,0x2
8300a6b0:	008787b3          	add	a5,a5,s0
8300a6b4:	0007a503          	lw	a0,0(a5)
8300a6b8:	0127a023          	sw	s2,0(a5)
8300a6bc:	00c12083          	lw	ra,12(sp)
8300a6c0:	00812403          	lw	s0,8(sp)
8300a6c4:	00412483          	lw	s1,4(sp)
8300a6c8:	00012903          	lw	s2,0(sp)
8300a6cc:	01010113          	addi	sp,sp,16
8300a6d0:	00008067          	ret
8300a6d4:	01600793          	li	a5,22
8300a6d8:	00f52023          	sw	a5,0(a0)
8300a6dc:	fff00513          	li	a0,-1
8300a6e0:	fddff06f          	j	8300a6bc <_signal_r+0x44>
8300a6e4:	00000097          	auipc	ra,0x0
8300a6e8:	f20080e7          	jalr	-224(ra) # 8300a604 <_init_signal_r>
8300a6ec:	fa050ee3          	beqz	a0,8300a6a8 <_signal_r+0x30>
8300a6f0:	fff00513          	li	a0,-1
8300a6f4:	fc9ff06f          	j	8300a6bc <_signal_r+0x44>

8300a6f8 <_raise_r>:
8300a6f8:	ff010113          	addi	sp,sp,-16
8300a6fc:	00112623          	sw	ra,12(sp)
8300a700:	00812423          	sw	s0,8(sp)
8300a704:	00912223          	sw	s1,4(sp)
8300a708:	00050493          	mv	s1,a0
8300a70c:	01f00793          	li	a5,31
8300a710:	04b7ea63          	bltu	a5,a1,8300a764 <_raise_r+0x6c>
8300a714:	00058413          	mv	s0,a1
8300a718:	2dc52783          	lw	a5,732(a0)
8300a71c:	04078c63          	beqz	a5,8300a774 <_raise_r+0x7c>
8300a720:	00259713          	slli	a4,a1,0x2
8300a724:	00e787b3          	add	a5,a5,a4
8300a728:	0007a703          	lw	a4,0(a5)
8300a72c:	04070463          	beqz	a4,8300a774 <_raise_r+0x7c>
8300a730:	00100693          	li	a3,1
8300a734:	06d70a63          	beq	a4,a3,8300a7a8 <_raise_r+0xb0>
8300a738:	fff00693          	li	a3,-1
8300a73c:	04d70e63          	beq	a4,a3,8300a798 <_raise_r+0xa0>
8300a740:	0007a023          	sw	zero,0(a5)
8300a744:	00058513          	mv	a0,a1
8300a748:	000700e7          	jalr	a4
8300a74c:	00000513          	li	a0,0
8300a750:	00c12083          	lw	ra,12(sp)
8300a754:	00812403          	lw	s0,8(sp)
8300a758:	00412483          	lw	s1,4(sp)
8300a75c:	01010113          	addi	sp,sp,16
8300a760:	00008067          	ret
8300a764:	01600793          	li	a5,22
8300a768:	00f52023          	sw	a5,0(a0)
8300a76c:	fff00513          	li	a0,-1
8300a770:	fe1ff06f          	j	8300a750 <_raise_r+0x58>
8300a774:	00048513          	mv	a0,s1
8300a778:	00000097          	auipc	ra,0x0
8300a77c:	1d0080e7          	jalr	464(ra) # 8300a948 <_getpid_r>
8300a780:	00050593          	mv	a1,a0
8300a784:	00040613          	mv	a2,s0
8300a788:	00048513          	mv	a0,s1
8300a78c:	00000097          	auipc	ra,0x0
8300a790:	168080e7          	jalr	360(ra) # 8300a8f4 <_kill_r>
8300a794:	fbdff06f          	j	8300a750 <_raise_r+0x58>
8300a798:	01600793          	li	a5,22
8300a79c:	00f52023          	sw	a5,0(a0)
8300a7a0:	00100513          	li	a0,1
8300a7a4:	fadff06f          	j	8300a750 <_raise_r+0x58>
8300a7a8:	00000513          	li	a0,0
8300a7ac:	fa5ff06f          	j	8300a750 <_raise_r+0x58>

8300a7b0 <__sigtramp_r>:
8300a7b0:	01f00793          	li	a5,31
8300a7b4:	08b7e063          	bltu	a5,a1,8300a834 <__sigtramp_r+0x84>
8300a7b8:	ff010113          	addi	sp,sp,-16
8300a7bc:	00112623          	sw	ra,12(sp)
8300a7c0:	00812423          	sw	s0,8(sp)
8300a7c4:	00912223          	sw	s1,4(sp)
8300a7c8:	00050493          	mv	s1,a0
8300a7cc:	00058413          	mv	s0,a1
8300a7d0:	2dc52783          	lw	a5,732(a0)
8300a7d4:	04078663          	beqz	a5,8300a820 <__sigtramp_r+0x70>
8300a7d8:	2dc4a783          	lw	a5,732(s1)
8300a7dc:	00241713          	slli	a4,s0,0x2
8300a7e0:	00e787b3          	add	a5,a5,a4
8300a7e4:	0007a703          	lw	a4,0(a5)
8300a7e8:	04070a63          	beqz	a4,8300a83c <__sigtramp_r+0x8c>
8300a7ec:	fff00693          	li	a3,-1
8300a7f0:	04d70a63          	beq	a4,a3,8300a844 <__sigtramp_r+0x94>
8300a7f4:	00100693          	li	a3,1
8300a7f8:	04d70a63          	beq	a4,a3,8300a84c <__sigtramp_r+0x9c>
8300a7fc:	0007a023          	sw	zero,0(a5)
8300a800:	00040513          	mv	a0,s0
8300a804:	000700e7          	jalr	a4
8300a808:	00000513          	li	a0,0
8300a80c:	00c12083          	lw	ra,12(sp)
8300a810:	00812403          	lw	s0,8(sp)
8300a814:	00412483          	lw	s1,4(sp)
8300a818:	01010113          	addi	sp,sp,16
8300a81c:	00008067          	ret
8300a820:	00000097          	auipc	ra,0x0
8300a824:	de4080e7          	jalr	-540(ra) # 8300a604 <_init_signal_r>
8300a828:	fa0508e3          	beqz	a0,8300a7d8 <__sigtramp_r+0x28>
8300a82c:	fff00513          	li	a0,-1
8300a830:	fddff06f          	j	8300a80c <__sigtramp_r+0x5c>
8300a834:	fff00513          	li	a0,-1
8300a838:	00008067          	ret
8300a83c:	00100513          	li	a0,1
8300a840:	fcdff06f          	j	8300a80c <__sigtramp_r+0x5c>
8300a844:	00200513          	li	a0,2
8300a848:	fc5ff06f          	j	8300a80c <__sigtramp_r+0x5c>
8300a84c:	00300513          	li	a0,3
8300a850:	fbdff06f          	j	8300a80c <__sigtramp_r+0x5c>

8300a854 <raise>:
8300a854:	ff010113          	addi	sp,sp,-16
8300a858:	00112623          	sw	ra,12(sp)
8300a85c:	00050593          	mv	a1,a0
8300a860:	00005517          	auipc	a0,0x5
8300a864:	22052503          	lw	a0,544(a0) # 8300fa80 <_impure_ptr>
8300a868:	00000097          	auipc	ra,0x0
8300a86c:	e90080e7          	jalr	-368(ra) # 8300a6f8 <_raise_r>
8300a870:	00c12083          	lw	ra,12(sp)
8300a874:	01010113          	addi	sp,sp,16
8300a878:	00008067          	ret

8300a87c <signal>:
8300a87c:	ff010113          	addi	sp,sp,-16
8300a880:	00112623          	sw	ra,12(sp)
8300a884:	00058613          	mv	a2,a1
8300a888:	00050593          	mv	a1,a0
8300a88c:	00005517          	auipc	a0,0x5
8300a890:	1f452503          	lw	a0,500(a0) # 8300fa80 <_impure_ptr>
8300a894:	00000097          	auipc	ra,0x0
8300a898:	de4080e7          	jalr	-540(ra) # 8300a678 <_signal_r>
8300a89c:	00c12083          	lw	ra,12(sp)
8300a8a0:	01010113          	addi	sp,sp,16
8300a8a4:	00008067          	ret

8300a8a8 <_init_signal>:
8300a8a8:	ff010113          	addi	sp,sp,-16
8300a8ac:	00112623          	sw	ra,12(sp)
8300a8b0:	00005517          	auipc	a0,0x5
8300a8b4:	1d052503          	lw	a0,464(a0) # 8300fa80 <_impure_ptr>
8300a8b8:	00000097          	auipc	ra,0x0
8300a8bc:	d4c080e7          	jalr	-692(ra) # 8300a604 <_init_signal_r>
8300a8c0:	00c12083          	lw	ra,12(sp)
8300a8c4:	01010113          	addi	sp,sp,16
8300a8c8:	00008067          	ret

8300a8cc <__sigtramp>:
8300a8cc:	ff010113          	addi	sp,sp,-16
8300a8d0:	00112623          	sw	ra,12(sp)
8300a8d4:	00050593          	mv	a1,a0
8300a8d8:	00005517          	auipc	a0,0x5
8300a8dc:	1a852503          	lw	a0,424(a0) # 8300fa80 <_impure_ptr>
8300a8e0:	00000097          	auipc	ra,0x0
8300a8e4:	ed0080e7          	jalr	-304(ra) # 8300a7b0 <__sigtramp_r>
8300a8e8:	00c12083          	lw	ra,12(sp)
8300a8ec:	01010113          	addi	sp,sp,16
8300a8f0:	00008067          	ret

8300a8f4 <_kill_r>:
8300a8f4:	ff010113          	addi	sp,sp,-16
8300a8f8:	00112623          	sw	ra,12(sp)
8300a8fc:	00812423          	sw	s0,8(sp)
8300a900:	00050413          	mv	s0,a0
8300a904:	00058513          	mv	a0,a1
8300a908:	00005797          	auipc	a5,0x5
8300a90c:	1a07a023          	sw	zero,416(a5) # 8300faa8 <errno>
8300a910:	00060593          	mv	a1,a2
8300a914:	00002097          	auipc	ra,0x2
8300a918:	ce4080e7          	jalr	-796(ra) # 8300c5f8 <_kill>
8300a91c:	fff00793          	li	a5,-1
8300a920:	00f50a63          	beq	a0,a5,8300a934 <_kill_r+0x40>
8300a924:	00c12083          	lw	ra,12(sp)
8300a928:	00812403          	lw	s0,8(sp)
8300a92c:	01010113          	addi	sp,sp,16
8300a930:	00008067          	ret
8300a934:	00005797          	auipc	a5,0x5
8300a938:	1747a783          	lw	a5,372(a5) # 8300faa8 <errno>
8300a93c:	fe0784e3          	beqz	a5,8300a924 <_kill_r+0x30>
8300a940:	00f42023          	sw	a5,0(s0)
8300a944:	fe1ff06f          	j	8300a924 <_kill_r+0x30>

8300a948 <_getpid_r>:
8300a948:	ff010113          	addi	sp,sp,-16
8300a94c:	00112623          	sw	ra,12(sp)
8300a950:	00002097          	auipc	ra,0x2
8300a954:	cbc080e7          	jalr	-836(ra) # 8300c60c <_getpid>
8300a958:	00c12083          	lw	ra,12(sp)
8300a95c:	01010113          	addi	sp,sp,16
8300a960:	00008067          	ret

8300a964 <SDL_PushEvent>:
8300a964:	00000513          	li	a0,0
8300a968:	00008067          	ret

8300a96c <SDL_PollEvent>:
8300a96c:	fc010113          	addi	sp,sp,-64
8300a970:	02112e23          	sw	ra,60(sp)
8300a974:	02812c23          	sw	s0,56(sp)
8300a978:	02912a23          	sw	s1,52(sp)
8300a97c:	00050493          	mv	s1,a0
8300a980:	01000613          	li	a2,16
8300a984:	02010593          	addi	a1,sp,32
8300a988:	00300513          	li	a0,3
8300a98c:	00002097          	auipc	ra,0x2
8300a990:	ff4080e7          	jalr	-12(ra) # 8300c980 <read>
8300a994:	00051c63          	bnez	a0,8300a9ac <SDL_PollEvent+0x40>
8300a998:	03c12083          	lw	ra,60(sp)
8300a99c:	03812403          	lw	s0,56(sp)
8300a9a0:	03412483          	lw	s1,52(sp)
8300a9a4:	04010113          	addi	sp,sp,64
8300a9a8:	00008067          	ret
8300a9ac:	00c10693          	addi	a3,sp,12
8300a9b0:	01810613          	addi	a2,sp,24
8300a9b4:	00003597          	auipc	a1,0x3
8300a9b8:	5f858593          	addi	a1,a1,1528 # 8300dfac <basefix.0+0x24>
8300a9bc:	02010513          	addi	a0,sp,32
8300a9c0:	ffff7097          	auipc	ra,0xffff7
8300a9c4:	86c080e7          	jalr	-1940(ra) # 8300122c <sscanf>
8300a9c8:	00003597          	auipc	a1,0x3
8300a9cc:	5ec58593          	addi	a1,a1,1516 # 8300dfb4 <basefix.0+0x2c>
8300a9d0:	01810513          	addi	a0,sp,24
8300a9d4:	ffff6097          	auipc	ra,0xffff6
8300a9d8:	5f4080e7          	jalr	1524(ra) # 83000fc8 <strcmp>
8300a9dc:	00051e63          	bnez	a0,8300a9f8 <SDL_PollEvent+0x8c>
8300a9e0:	00200793          	li	a5,2
8300a9e4:	00f48023          	sb	a5,0(s1)
8300a9e8:	00000097          	auipc	ra,0x0
8300a9ec:	1e0080e7          	jalr	480(ra) # 8300abc8 <CallbackHelper>
8300a9f0:	00100513          	li	a0,1
8300a9f4:	fa5ff06f          	j	8300a998 <SDL_PollEvent+0x2c>
8300a9f8:	00003597          	auipc	a1,0x3
8300a9fc:	5c458593          	addi	a1,a1,1476 # 8300dfbc <basefix.0+0x34>
8300aa00:	01810513          	addi	a0,sp,24
8300aa04:	ffff6097          	auipc	ra,0xffff6
8300aa08:	5c4080e7          	jalr	1476(ra) # 83000fc8 <strcmp>
8300aa0c:	04051863          	bnez	a0,8300aa5c <SDL_PollEvent+0xf0>
8300aa10:	01914783          	lbu	a5,25(sp)
8300aa14:	07500713          	li	a4,117
8300aa18:	06e78063          	beq	a5,a4,8300aa78 <SDL_PollEvent+0x10c>
8300aa1c:	06400713          	li	a4,100
8300aa20:	06e78263          	beq	a5,a4,8300aa84 <SDL_PollEvent+0x118>
8300aa24:	00000413          	li	s0,0
8300aa28:	05200793          	li	a5,82
8300aa2c:	fa87cee3          	blt	a5,s0,8300a9e8 <SDL_PollEvent+0x7c>
8300aa30:	00241713          	slli	a4,s0,0x2
8300aa34:	00003797          	auipc	a5,0x3
8300aa38:	73878793          	addi	a5,a5,1848 # 8300e16c <keyname>
8300aa3c:	00e787b3          	add	a5,a5,a4
8300aa40:	0007a583          	lw	a1,0(a5)
8300aa44:	00c10513          	addi	a0,sp,12
8300aa48:	ffff6097          	auipc	ra,0xffff6
8300aa4c:	580080e7          	jalr	1408(ra) # 83000fc8 <strcmp>
8300aa50:	02050e63          	beqz	a0,8300aa8c <SDL_PollEvent+0x120>
8300aa54:	00140413          	addi	s0,s0,1
8300aa58:	fd1ff06f          	j	8300aa28 <SDL_PollEvent+0xbc>
8300aa5c:	00003597          	auipc	a1,0x3
8300aa60:	56458593          	addi	a1,a1,1380 # 8300dfc0 <basefix.0+0x38>
8300aa64:	01810513          	addi	a0,sp,24
8300aa68:	ffff6097          	auipc	ra,0xffff6
8300aa6c:	560080e7          	jalr	1376(ra) # 83000fc8 <strcmp>
8300aa70:	f6051ce3          	bnez	a0,8300a9e8 <SDL_PollEvent+0x7c>
8300aa74:	f9dff06f          	j	8300aa10 <SDL_PollEvent+0xa4>
8300aa78:	00100793          	li	a5,1
8300aa7c:	00f48023          	sb	a5,0(s1)
8300aa80:	fa5ff06f          	j	8300aa24 <SDL_PollEvent+0xb8>
8300aa84:	00048023          	sb	zero,0(s1)
8300aa88:	f9dff06f          	j	8300aa24 <SDL_PollEvent+0xb8>
8300aa8c:	008480a3          	sb	s0,1(s1)
8300aa90:	f59ff06f          	j	8300a9e8 <SDL_PollEvent+0x7c>

8300aa94 <SDL_WaitEvent>:
8300aa94:	fc010113          	addi	sp,sp,-64
8300aa98:	02112e23          	sw	ra,60(sp)
8300aa9c:	02812c23          	sw	s0,56(sp)
8300aaa0:	02912a23          	sw	s1,52(sp)
8300aaa4:	00050493          	mv	s1,a0
8300aaa8:	00000097          	auipc	ra,0x0
8300aaac:	120080e7          	jalr	288(ra) # 8300abc8 <CallbackHelper>
8300aab0:	01000613          	li	a2,16
8300aab4:	02010593          	addi	a1,sp,32
8300aab8:	00300513          	li	a0,3
8300aabc:	00002097          	auipc	ra,0x2
8300aac0:	ec4080e7          	jalr	-316(ra) # 8300c980 <read>
8300aac4:	fe0506e3          	beqz	a0,8300aab0 <SDL_WaitEvent+0x1c>
8300aac8:	00c10693          	addi	a3,sp,12
8300aacc:	01810613          	addi	a2,sp,24
8300aad0:	00003597          	auipc	a1,0x3
8300aad4:	4dc58593          	addi	a1,a1,1244 # 8300dfac <basefix.0+0x24>
8300aad8:	02010513          	addi	a0,sp,32
8300aadc:	ffff6097          	auipc	ra,0xffff6
8300aae0:	750080e7          	jalr	1872(ra) # 8300122c <sscanf>
8300aae4:	00003597          	auipc	a1,0x3
8300aae8:	4d058593          	addi	a1,a1,1232 # 8300dfb4 <basefix.0+0x2c>
8300aaec:	01810513          	addi	a0,sp,24
8300aaf0:	ffff6097          	auipc	ra,0xffff6
8300aaf4:	4d8080e7          	jalr	1240(ra) # 83000fc8 <strcmp>
8300aaf8:	02051263          	bnez	a0,8300ab1c <SDL_WaitEvent+0x88>
8300aafc:	00200793          	li	a5,2
8300ab00:	00f48023          	sb	a5,0(s1)
8300ab04:	00100513          	li	a0,1
8300ab08:	03c12083          	lw	ra,60(sp)
8300ab0c:	03812403          	lw	s0,56(sp)
8300ab10:	03412483          	lw	s1,52(sp)
8300ab14:	04010113          	addi	sp,sp,64
8300ab18:	00008067          	ret
8300ab1c:	00003597          	auipc	a1,0x3
8300ab20:	4a058593          	addi	a1,a1,1184 # 8300dfbc <basefix.0+0x34>
8300ab24:	01810513          	addi	a0,sp,24
8300ab28:	ffff6097          	auipc	ra,0xffff6
8300ab2c:	4a0080e7          	jalr	1184(ra) # 83000fc8 <strcmp>
8300ab30:	04051863          	bnez	a0,8300ab80 <SDL_WaitEvent+0xec>
8300ab34:	01914783          	lbu	a5,25(sp)
8300ab38:	07500713          	li	a4,117
8300ab3c:	06e78063          	beq	a5,a4,8300ab9c <SDL_WaitEvent+0x108>
8300ab40:	06400713          	li	a4,100
8300ab44:	06e78263          	beq	a5,a4,8300aba8 <SDL_WaitEvent+0x114>
8300ab48:	00000413          	li	s0,0
8300ab4c:	05200793          	li	a5,82
8300ab50:	fa87cae3          	blt	a5,s0,8300ab04 <SDL_WaitEvent+0x70>
8300ab54:	00241713          	slli	a4,s0,0x2
8300ab58:	00003797          	auipc	a5,0x3
8300ab5c:	61478793          	addi	a5,a5,1556 # 8300e16c <keyname>
8300ab60:	00e787b3          	add	a5,a5,a4
8300ab64:	0007a583          	lw	a1,0(a5)
8300ab68:	00c10513          	addi	a0,sp,12
8300ab6c:	ffff6097          	auipc	ra,0xffff6
8300ab70:	45c080e7          	jalr	1116(ra) # 83000fc8 <strcmp>
8300ab74:	02050e63          	beqz	a0,8300abb0 <SDL_WaitEvent+0x11c>
8300ab78:	00140413          	addi	s0,s0,1
8300ab7c:	fd1ff06f          	j	8300ab4c <SDL_WaitEvent+0xb8>
8300ab80:	00003597          	auipc	a1,0x3
8300ab84:	44058593          	addi	a1,a1,1088 # 8300dfc0 <basefix.0+0x38>
8300ab88:	01810513          	addi	a0,sp,24
8300ab8c:	ffff6097          	auipc	ra,0xffff6
8300ab90:	43c080e7          	jalr	1084(ra) # 83000fc8 <strcmp>
8300ab94:	f60518e3          	bnez	a0,8300ab04 <SDL_WaitEvent+0x70>
8300ab98:	f9dff06f          	j	8300ab34 <SDL_WaitEvent+0xa0>
8300ab9c:	00100793          	li	a5,1
8300aba0:	00f48023          	sb	a5,0(s1)
8300aba4:	fa5ff06f          	j	8300ab48 <SDL_WaitEvent+0xb4>
8300aba8:	00048023          	sb	zero,0(s1)
8300abac:	f9dff06f          	j	8300ab48 <SDL_WaitEvent+0xb4>
8300abb0:	008480a3          	sb	s0,1(s1)
8300abb4:	f51ff06f          	j	8300ab04 <SDL_WaitEvent+0x70>

8300abb8 <SDL_PeepEvents>:
8300abb8:	00000513          	li	a0,0
8300abbc:	00008067          	ret

8300abc0 <SDL_GetKeyState>:
8300abc0:	00000513          	li	a0,0
8300abc4:	00008067          	ret

8300abc8 <CallbackHelper>:
8300abc8:	00005797          	auipc	a5,0x5
8300abcc:	ef87a783          	lw	a5,-264(a5) # 8300fac0 <is_CallbackHelper_reenter>
8300abd0:	00078463          	beqz	a5,8300abd8 <CallbackHelper+0x10>
8300abd4:	00008067          	ret
8300abd8:	ff010113          	addi	sp,sp,-16
8300abdc:	00112623          	sw	ra,12(sp)
8300abe0:	00812423          	sw	s0,8(sp)
8300abe4:	00100793          	li	a5,1
8300abe8:	00005717          	auipc	a4,0x5
8300abec:	ecf72c23          	sw	a5,-296(a4) # 8300fac0 <is_CallbackHelper_reenter>
8300abf0:	00001097          	auipc	ra,0x1
8300abf4:	774080e7          	jalr	1908(ra) # 8300c364 <NDL_QueryAudio>
8300abf8:	00005617          	auipc	a2,0x5
8300abfc:	ecc65603          	lhu	a2,-308(a2) # 8300fac4 <lengthWanted>
8300ac00:	02c54c63          	blt	a0,a2,8300ac38 <CallbackHelper+0x70>
8300ac04:	00005797          	auipc	a5,0x5
8300ac08:	ec47a783          	lw	a5,-316(a5) # 8300fac8 <callback>
8300ac0c:	02078663          	beqz	a5,8300ac38 <CallbackHelper+0x70>
8300ac10:	00005417          	auipc	s0,0x5
8300ac14:	ebc40413          	addi	s0,s0,-324 # 8300facc <buffer>
8300ac18:	00042583          	lw	a1,0(s0)
8300ac1c:	00000513          	li	a0,0
8300ac20:	000780e7          	jalr	a5
8300ac24:	00005597          	auipc	a1,0x5
8300ac28:	ea05d583          	lhu	a1,-352(a1) # 8300fac4 <lengthWanted>
8300ac2c:	00042503          	lw	a0,0(s0)
8300ac30:	00001097          	auipc	ra,0x1
8300ac34:	70c080e7          	jalr	1804(ra) # 8300c33c <NDL_PlayAudio>
8300ac38:	00005797          	auipc	a5,0x5
8300ac3c:	e807a423          	sw	zero,-376(a5) # 8300fac0 <is_CallbackHelper_reenter>
8300ac40:	00c12083          	lw	ra,12(sp)
8300ac44:	00812403          	lw	s0,8(sp)
8300ac48:	01010113          	addi	sp,sp,16
8300ac4c:	00008067          	ret

8300ac50 <SDL_OpenAudio>:
8300ac50:	ff010113          	addi	sp,sp,-16
8300ac54:	00112623          	sw	ra,12(sp)
8300ac58:	00812423          	sw	s0,8(sp)
8300ac5c:	00050413          	mv	s0,a0
8300ac60:	00855603          	lhu	a2,8(a0)
8300ac64:	00654583          	lbu	a1,6(a0)
8300ac68:	00052503          	lw	a0,0(a0)
8300ac6c:	00001097          	auipc	ra,0x1
8300ac70:	698080e7          	jalr	1688(ra) # 8300c304 <NDL_OpenAudio>
8300ac74:	01042783          	lw	a5,16(s0)
8300ac78:	00005717          	auipc	a4,0x5
8300ac7c:	e4f72823          	sw	a5,-432(a4) # 8300fac8 <callback>
8300ac80:	00845503          	lhu	a0,8(s0)
8300ac84:	00644783          	lbu	a5,6(s0)
8300ac88:	02f50533          	mul	a0,a0,a5
8300ac8c:	00151513          	slli	a0,a0,0x1
8300ac90:	01051513          	slli	a0,a0,0x10
8300ac94:	01055513          	srli	a0,a0,0x10
8300ac98:	00005797          	auipc	a5,0x5
8300ac9c:	e2a79623          	sh	a0,-468(a5) # 8300fac4 <lengthWanted>
8300aca0:	ffffc097          	auipc	ra,0xffffc
8300aca4:	624080e7          	jalr	1572(ra) # 830072c4 <malloc>
8300aca8:	00005797          	auipc	a5,0x5
8300acac:	e2a7a223          	sw	a0,-476(a5) # 8300facc <buffer>
8300acb0:	00000513          	li	a0,0
8300acb4:	00c12083          	lw	ra,12(sp)
8300acb8:	00812403          	lw	s0,8(sp)
8300acbc:	01010113          	addi	sp,sp,16
8300acc0:	00008067          	ret

8300acc4 <SDL_CloseAudio>:
8300acc4:	ff010113          	addi	sp,sp,-16
8300acc8:	00112623          	sw	ra,12(sp)
8300accc:	00005797          	auipc	a5,0x5
8300acd0:	de079c23          	sh	zero,-520(a5) # 8300fac4 <lengthWanted>
8300acd4:	00005517          	auipc	a0,0x5
8300acd8:	df852503          	lw	a0,-520(a0) # 8300facc <buffer>
8300acdc:	ffffc097          	auipc	ra,0xffffc
8300ace0:	610080e7          	jalr	1552(ra) # 830072ec <free>
8300ace4:	00c12083          	lw	ra,12(sp)
8300ace8:	01010113          	addi	sp,sp,16
8300acec:	00008067          	ret

8300acf0 <SDL_PauseAudio>:
8300acf0:	00008067          	ret

8300acf4 <SDL_MixAudio>:
8300acf4:	00165613          	srli	a2,a2,0x1
8300acf8:	00000893          	li	a7,0
8300acfc:	0180006f          	j	8300ad14 <SDL_MixAudio+0x20>
8300ad00:	ffff87b7          	lui	a5,0xffff8
8300ad04:	00f51023          	sh	a5,0(a0)
8300ad08:	00258593          	addi	a1,a1,2
8300ad0c:	00250513          	addi	a0,a0,2
8300ad10:	00188893          	addi	a7,a7,1
8300ad14:	04c8d063          	bge	a7,a2,8300ad54 <SDL_MixAudio+0x60>
8300ad18:	00059703          	lh	a4,0(a1)
8300ad1c:	00051803          	lh	a6,0(a0)
8300ad20:	02d80833          	mul	a6,a6,a3
8300ad24:	41f85793          	srai	a5,a6,0x1f
8300ad28:	07f7f793          	andi	a5,a5,127
8300ad2c:	010787b3          	add	a5,a5,a6
8300ad30:	4077d793          	srai	a5,a5,0x7
8300ad34:	00f707b3          	add	a5,a4,a5
8300ad38:	ffff8737          	lui	a4,0xffff8
8300ad3c:	fce7c2e3          	blt	a5,a4,8300ad00 <SDL_MixAudio+0xc>
8300ad40:	00008737          	lui	a4,0x8
8300ad44:	fce7c0e3          	blt	a5,a4,8300ad04 <SDL_MixAudio+0x10>
8300ad48:	000087b7          	lui	a5,0x8
8300ad4c:	fff78793          	addi	a5,a5,-1 # 7fff <_ZL9set_i_maxv-0x82ff80b5>
8300ad50:	fb5ff06f          	j	8300ad04 <SDL_MixAudio+0x10>
8300ad54:	00008067          	ret

8300ad58 <SDL_LoadWAV>:
8300ad58:	fd010113          	addi	sp,sp,-48
8300ad5c:	02112623          	sw	ra,44(sp)
8300ad60:	02812423          	sw	s0,40(sp)
8300ad64:	02912223          	sw	s1,36(sp)
8300ad68:	03212023          	sw	s2,32(sp)
8300ad6c:	01312e23          	sw	s3,28(sp)
8300ad70:	01412c23          	sw	s4,24(sp)
8300ad74:	00058993          	mv	s3,a1
8300ad78:	00060913          	mv	s2,a2
8300ad7c:	00068493          	mv	s1,a3
8300ad80:	00000593          	li	a1,0
8300ad84:	00002097          	auipc	ra,0x2
8300ad88:	b20080e7          	jalr	-1248(ra) # 8300c8a4 <open>
8300ad8c:	00050413          	mv	s0,a0
8300ad90:	00400613          	li	a2,4
8300ad94:	00c10593          	addi	a1,sp,12
8300ad98:	00002097          	auipc	ra,0x2
8300ad9c:	be8080e7          	jalr	-1048(ra) # 8300c980 <read>
8300ada0:	00400793          	li	a5,4
8300ada4:	14f51263          	bne	a0,a5,8300aee8 <SDL_LoadWAV+0x190>
8300ada8:	00c12703          	lw	a4,12(sp)
8300adac:	464657b7          	lui	a5,0x46465
8300adb0:	95278793          	addi	a5,a5,-1710 # 46464952 <_ZL9set_i_maxv-0x3cb9b762>
8300adb4:	12f71e63          	bne	a4,a5,8300aef0 <SDL_LoadWAV+0x198>
8300adb8:	00000613          	li	a2,0
8300adbc:	01600593          	li	a1,22
8300adc0:	00040513          	mv	a0,s0
8300adc4:	00002097          	auipc	ra,0x2
8300adc8:	b64080e7          	jalr	-1180(ra) # 8300c928 <lseek>
8300adcc:	01600793          	li	a5,22
8300add0:	14f51263          	bne	a0,a5,8300af14 <SDL_LoadWAV+0x1bc>
8300add4:	00200613          	li	a2,2
8300add8:	00a10593          	addi	a1,sp,10
8300addc:	00040513          	mv	a0,s0
8300ade0:	00002097          	auipc	ra,0x2
8300ade4:	ba0080e7          	jalr	-1120(ra) # 8300c980 <read>
8300ade8:	00200793          	li	a5,2
8300adec:	12f51863          	bne	a0,a5,8300af1c <SDL_LoadWAV+0x1c4>
8300adf0:	00200613          	li	a2,2
8300adf4:	00810593          	addi	a1,sp,8
8300adf8:	00040513          	mv	a0,s0
8300adfc:	00002097          	auipc	ra,0x2
8300ae00:	b84080e7          	jalr	-1148(ra) # 8300c980 <read>
8300ae04:	00200793          	li	a5,2
8300ae08:	10f51e63          	bne	a0,a5,8300af24 <SDL_LoadWAV+0x1cc>
8300ae0c:	00000613          	li	a2,0
8300ae10:	02200593          	li	a1,34
8300ae14:	00040513          	mv	a0,s0
8300ae18:	00002097          	auipc	ra,0x2
8300ae1c:	b10080e7          	jalr	-1264(ra) # 8300c928 <lseek>
8300ae20:	02200793          	li	a5,34
8300ae24:	10f51463          	bne	a0,a5,8300af2c <SDL_LoadWAV+0x1d4>
8300ae28:	00200613          	li	a2,2
8300ae2c:	00610593          	addi	a1,sp,6
8300ae30:	00040513          	mv	a0,s0
8300ae34:	00002097          	auipc	ra,0x2
8300ae38:	b4c080e7          	jalr	-1204(ra) # 8300c980 <read>
8300ae3c:	00200793          	li	a5,2
8300ae40:	0ef51a63          	bne	a0,a5,8300af34 <SDL_LoadWAV+0x1dc>
8300ae44:	00000613          	li	a2,0
8300ae48:	02800593          	li	a1,40
8300ae4c:	00040513          	mv	a0,s0
8300ae50:	00002097          	auipc	ra,0x2
8300ae54:	ad8080e7          	jalr	-1320(ra) # 8300c928 <lseek>
8300ae58:	02800793          	li	a5,40
8300ae5c:	0ef51063          	bne	a0,a5,8300af3c <SDL_LoadWAV+0x1e4>
8300ae60:	00400613          	li	a2,4
8300ae64:	00010593          	mv	a1,sp
8300ae68:	00040513          	mv	a0,s0
8300ae6c:	00002097          	auipc	ra,0x2
8300ae70:	b14080e7          	jalr	-1260(ra) # 8300c980 <read>
8300ae74:	00400793          	li	a5,4
8300ae78:	0cf51663          	bne	a0,a5,8300af44 <SDL_LoadWAV+0x1ec>
8300ae7c:	00012503          	lw	a0,0(sp)
8300ae80:	ffffc097          	auipc	ra,0xffffc
8300ae84:	444080e7          	jalr	1092(ra) # 830072c4 <malloc>
8300ae88:	00050a13          	mv	s4,a0
8300ae8c:	00012603          	lw	a2,0(sp)
8300ae90:	00050593          	mv	a1,a0
8300ae94:	00040513          	mv	a0,s0
8300ae98:	00002097          	auipc	ra,0x2
8300ae9c:	ae8080e7          	jalr	-1304(ra) # 8300c980 <read>
8300aea0:	00012783          	lw	a5,0(sp)
8300aea4:	02f51863          	bne	a0,a5,8300aed4 <SDL_LoadWAV+0x17c>
8300aea8:	01492023          	sw	s4,0(s2)
8300aeac:	00012783          	lw	a5,0(sp)
8300aeb0:	00f4a023          	sw	a5,0(s1)
8300aeb4:	00815783          	lhu	a5,8(sp)
8300aeb8:	00f9a023          	sw	a5,0(s3)
8300aebc:	00615783          	lhu	a5,6(sp)
8300aec0:	00f99423          	sh	a5,8(s3)
8300aec4:	00a15783          	lhu	a5,10(sp)
8300aec8:	00f98323          	sb	a5,6(s3)
8300aecc:	00098513          	mv	a0,s3
8300aed0:	0240006f          	j	8300aef4 <SDL_LoadWAV+0x19c>
8300aed4:	000a0513          	mv	a0,s4
8300aed8:	ffffc097          	auipc	ra,0xffffc
8300aedc:	414080e7          	jalr	1044(ra) # 830072ec <free>
8300aee0:	00000513          	li	a0,0
8300aee4:	0100006f          	j	8300aef4 <SDL_LoadWAV+0x19c>
8300aee8:	00000513          	li	a0,0
8300aeec:	0080006f          	j	8300aef4 <SDL_LoadWAV+0x19c>
8300aef0:	00000513          	li	a0,0
8300aef4:	02c12083          	lw	ra,44(sp)
8300aef8:	02812403          	lw	s0,40(sp)
8300aefc:	02412483          	lw	s1,36(sp)
8300af00:	02012903          	lw	s2,32(sp)
8300af04:	01c12983          	lw	s3,28(sp)
8300af08:	01812a03          	lw	s4,24(sp)
8300af0c:	03010113          	addi	sp,sp,48
8300af10:	00008067          	ret
8300af14:	00000513          	li	a0,0
8300af18:	fddff06f          	j	8300aef4 <SDL_LoadWAV+0x19c>
8300af1c:	00000513          	li	a0,0
8300af20:	fd5ff06f          	j	8300aef4 <SDL_LoadWAV+0x19c>
8300af24:	00000513          	li	a0,0
8300af28:	fcdff06f          	j	8300aef4 <SDL_LoadWAV+0x19c>
8300af2c:	00000513          	li	a0,0
8300af30:	fc5ff06f          	j	8300aef4 <SDL_LoadWAV+0x19c>
8300af34:	00000513          	li	a0,0
8300af38:	fbdff06f          	j	8300aef4 <SDL_LoadWAV+0x19c>
8300af3c:	00000513          	li	a0,0
8300af40:	fb5ff06f          	j	8300aef4 <SDL_LoadWAV+0x19c>
8300af44:	00000513          	li	a0,0
8300af48:	fadff06f          	j	8300aef4 <SDL_LoadWAV+0x19c>

8300af4c <SDL_FreeWAV>:
8300af4c:	ff010113          	addi	sp,sp,-16
8300af50:	00112623          	sw	ra,12(sp)
8300af54:	ffffc097          	auipc	ra,0xffffc
8300af58:	398080e7          	jalr	920(ra) # 830072ec <free>
8300af5c:	00c12083          	lw	ra,12(sp)
8300af60:	01010113          	addi	sp,sp,16
8300af64:	00008067          	ret

8300af68 <SDL_LockAudio>:
8300af68:	00008067          	ret

8300af6c <SDL_UnlockAudio>:
8300af6c:	00008067          	ret

8300af70 <SDL_Init>:
8300af70:	ff010113          	addi	sp,sp,-16
8300af74:	00112623          	sw	ra,12(sp)
8300af78:	00812423          	sw	s0,8(sp)
8300af7c:	00050413          	mv	s0,a0
8300af80:	00001097          	auipc	ra,0x1
8300af84:	100080e7          	jalr	256(ra) # 8300c080 <NDL_GetTicks>
8300af88:	3e800793          	li	a5,1000
8300af8c:	02f55533          	divu	a0,a0,a5
8300af90:	00005797          	auipc	a5,0x5
8300af94:	b4a7a023          	sw	a0,-1216(a5) # 8300fad0 <SDL_startTicks>
8300af98:	00040513          	mv	a0,s0
8300af9c:	00001097          	auipc	ra,0x1
8300afa0:	3f4080e7          	jalr	1012(ra) # 8300c390 <NDL_Init>
8300afa4:	00c12083          	lw	ra,12(sp)
8300afa8:	00812403          	lw	s0,8(sp)
8300afac:	01010113          	addi	sp,sp,16
8300afb0:	00008067          	ret

8300afb4 <SDL_Quit>:
8300afb4:	ff010113          	addi	sp,sp,-16
8300afb8:	00112623          	sw	ra,12(sp)
8300afbc:	00001097          	auipc	ra,0x1
8300afc0:	3dc080e7          	jalr	988(ra) # 8300c398 <NDL_Quit>
8300afc4:	00c12083          	lw	ra,12(sp)
8300afc8:	01010113          	addi	sp,sp,16
8300afcc:	00008067          	ret

8300afd0 <SDL_GetError>:
8300afd0:	00003517          	auipc	a0,0x3
8300afd4:	2e850513          	addi	a0,a0,744 # 8300e2b8 <keyname+0x14c>
8300afd8:	00008067          	ret

8300afdc <SDL_SetError>:
8300afdc:	fe010113          	addi	sp,sp,-32
8300afe0:	00b12223          	sw	a1,4(sp)
8300afe4:	00c12423          	sw	a2,8(sp)
8300afe8:	00d12623          	sw	a3,12(sp)
8300afec:	00e12823          	sw	a4,16(sp)
8300aff0:	00f12a23          	sw	a5,20(sp)
8300aff4:	01012c23          	sw	a6,24(sp)
8300aff8:	01112e23          	sw	a7,28(sp)
8300affc:	fff00513          	li	a0,-1
8300b000:	02010113          	addi	sp,sp,32
8300b004:	00008067          	ret

8300b008 <SDL_ShowCursor>:
8300b008:	00000513          	li	a0,0
8300b00c:	00008067          	ret

8300b010 <SDL_WM_SetCaption>:
8300b010:	00008067          	ret

8300b014 <ConvertPixelsARGB_ABGR>:
8300b014:	ff067693          	andi	a3,a2,-16
8300b018:	00000793          	li	a5,0
8300b01c:	2440006f          	j	8300b260 <ConvertPixelsARGB_ABGR+0x24c>
8300b020:	00279713          	slli	a4,a5,0x2
8300b024:	00e58833          	add	a6,a1,a4
8300b028:	00082803          	lw	a6,0(a6)
8300b02c:	00e50733          	add	a4,a0,a4
8300b030:	01072023          	sw	a6,0(a4) # 8000 <_ZL9set_i_maxv-0x82ff80b4>
8300b034:	01085893          	srli	a7,a6,0x10
8300b038:	01170023          	sb	a7,0(a4)
8300b03c:	01070123          	sb	a6,2(a4)
8300b040:	00178713          	addi	a4,a5,1
8300b044:	00271713          	slli	a4,a4,0x2
8300b048:	00e58833          	add	a6,a1,a4
8300b04c:	00082803          	lw	a6,0(a6)
8300b050:	00e50733          	add	a4,a0,a4
8300b054:	01072023          	sw	a6,0(a4)
8300b058:	01085893          	srli	a7,a6,0x10
8300b05c:	01170023          	sb	a7,0(a4)
8300b060:	01070123          	sb	a6,2(a4)
8300b064:	00278713          	addi	a4,a5,2
8300b068:	00271713          	slli	a4,a4,0x2
8300b06c:	00e58833          	add	a6,a1,a4
8300b070:	00082803          	lw	a6,0(a6)
8300b074:	00e50733          	add	a4,a0,a4
8300b078:	01072023          	sw	a6,0(a4)
8300b07c:	01085893          	srli	a7,a6,0x10
8300b080:	01170023          	sb	a7,0(a4)
8300b084:	01070123          	sb	a6,2(a4)
8300b088:	00378713          	addi	a4,a5,3
8300b08c:	00271713          	slli	a4,a4,0x2
8300b090:	00e58833          	add	a6,a1,a4
8300b094:	00082803          	lw	a6,0(a6)
8300b098:	00e50733          	add	a4,a0,a4
8300b09c:	01072023          	sw	a6,0(a4)
8300b0a0:	01085893          	srli	a7,a6,0x10
8300b0a4:	01170023          	sb	a7,0(a4)
8300b0a8:	01070123          	sb	a6,2(a4)
8300b0ac:	00478713          	addi	a4,a5,4
8300b0b0:	00271713          	slli	a4,a4,0x2
8300b0b4:	00e58833          	add	a6,a1,a4
8300b0b8:	00082803          	lw	a6,0(a6)
8300b0bc:	00e50733          	add	a4,a0,a4
8300b0c0:	01072023          	sw	a6,0(a4)
8300b0c4:	01085893          	srli	a7,a6,0x10
8300b0c8:	01170023          	sb	a7,0(a4)
8300b0cc:	01070123          	sb	a6,2(a4)
8300b0d0:	00578713          	addi	a4,a5,5
8300b0d4:	00271713          	slli	a4,a4,0x2
8300b0d8:	00e58833          	add	a6,a1,a4
8300b0dc:	00082803          	lw	a6,0(a6)
8300b0e0:	00e50733          	add	a4,a0,a4
8300b0e4:	01072023          	sw	a6,0(a4)
8300b0e8:	01085893          	srli	a7,a6,0x10
8300b0ec:	01170023          	sb	a7,0(a4)
8300b0f0:	01070123          	sb	a6,2(a4)
8300b0f4:	00678713          	addi	a4,a5,6
8300b0f8:	00271713          	slli	a4,a4,0x2
8300b0fc:	00e58833          	add	a6,a1,a4
8300b100:	00082803          	lw	a6,0(a6)
8300b104:	00e50733          	add	a4,a0,a4
8300b108:	01072023          	sw	a6,0(a4)
8300b10c:	01085893          	srli	a7,a6,0x10
8300b110:	01170023          	sb	a7,0(a4)
8300b114:	01070123          	sb	a6,2(a4)
8300b118:	00778713          	addi	a4,a5,7
8300b11c:	00271713          	slli	a4,a4,0x2
8300b120:	00e58833          	add	a6,a1,a4
8300b124:	00082803          	lw	a6,0(a6)
8300b128:	00e50733          	add	a4,a0,a4
8300b12c:	01072023          	sw	a6,0(a4)
8300b130:	01085893          	srli	a7,a6,0x10
8300b134:	01170023          	sb	a7,0(a4)
8300b138:	01070123          	sb	a6,2(a4)
8300b13c:	00878713          	addi	a4,a5,8
8300b140:	00271713          	slli	a4,a4,0x2
8300b144:	00e58833          	add	a6,a1,a4
8300b148:	00082803          	lw	a6,0(a6)
8300b14c:	00e50733          	add	a4,a0,a4
8300b150:	01072023          	sw	a6,0(a4)
8300b154:	01085893          	srli	a7,a6,0x10
8300b158:	01170023          	sb	a7,0(a4)
8300b15c:	01070123          	sb	a6,2(a4)
8300b160:	00978713          	addi	a4,a5,9
8300b164:	00271713          	slli	a4,a4,0x2
8300b168:	00e58833          	add	a6,a1,a4
8300b16c:	00082803          	lw	a6,0(a6)
8300b170:	00e50733          	add	a4,a0,a4
8300b174:	01072023          	sw	a6,0(a4)
8300b178:	01085893          	srli	a7,a6,0x10
8300b17c:	01170023          	sb	a7,0(a4)
8300b180:	01070123          	sb	a6,2(a4)
8300b184:	00a78713          	addi	a4,a5,10
8300b188:	00271713          	slli	a4,a4,0x2
8300b18c:	00e58833          	add	a6,a1,a4
8300b190:	00082803          	lw	a6,0(a6)
8300b194:	00e50733          	add	a4,a0,a4
8300b198:	01072023          	sw	a6,0(a4)
8300b19c:	01085893          	srli	a7,a6,0x10
8300b1a0:	01170023          	sb	a7,0(a4)
8300b1a4:	01070123          	sb	a6,2(a4)
8300b1a8:	00b78713          	addi	a4,a5,11
8300b1ac:	00271713          	slli	a4,a4,0x2
8300b1b0:	00e58833          	add	a6,a1,a4
8300b1b4:	00082803          	lw	a6,0(a6)
8300b1b8:	00e50733          	add	a4,a0,a4
8300b1bc:	01072023          	sw	a6,0(a4)
8300b1c0:	01085893          	srli	a7,a6,0x10
8300b1c4:	01170023          	sb	a7,0(a4)
8300b1c8:	01070123          	sb	a6,2(a4)
8300b1cc:	00c78713          	addi	a4,a5,12
8300b1d0:	00271713          	slli	a4,a4,0x2
8300b1d4:	00e58833          	add	a6,a1,a4
8300b1d8:	00082803          	lw	a6,0(a6)
8300b1dc:	00e50733          	add	a4,a0,a4
8300b1e0:	01072023          	sw	a6,0(a4)
8300b1e4:	01085893          	srli	a7,a6,0x10
8300b1e8:	01170023          	sb	a7,0(a4)
8300b1ec:	01070123          	sb	a6,2(a4)
8300b1f0:	00d78713          	addi	a4,a5,13
8300b1f4:	00271713          	slli	a4,a4,0x2
8300b1f8:	00e58833          	add	a6,a1,a4
8300b1fc:	00082803          	lw	a6,0(a6)
8300b200:	00e50733          	add	a4,a0,a4
8300b204:	01072023          	sw	a6,0(a4)
8300b208:	01085893          	srli	a7,a6,0x10
8300b20c:	01170023          	sb	a7,0(a4)
8300b210:	01070123          	sb	a6,2(a4)
8300b214:	00e78713          	addi	a4,a5,14
8300b218:	00271713          	slli	a4,a4,0x2
8300b21c:	00e58833          	add	a6,a1,a4
8300b220:	00082803          	lw	a6,0(a6)
8300b224:	00e50733          	add	a4,a0,a4
8300b228:	01072023          	sw	a6,0(a4)
8300b22c:	01085893          	srli	a7,a6,0x10
8300b230:	01170023          	sb	a7,0(a4)
8300b234:	01070123          	sb	a6,2(a4)
8300b238:	00f78713          	addi	a4,a5,15
8300b23c:	00271713          	slli	a4,a4,0x2
8300b240:	00e58833          	add	a6,a1,a4
8300b244:	00082803          	lw	a6,0(a6)
8300b248:	00e50733          	add	a4,a0,a4
8300b24c:	01072023          	sw	a6,0(a4)
8300b250:	01085893          	srli	a7,a6,0x10
8300b254:	01170023          	sb	a7,0(a4)
8300b258:	01070123          	sb	a6,2(a4)
8300b25c:	01078793          	addi	a5,a5,16
8300b260:	dcd7c0e3          	blt	a5,a3,8300b020 <ConvertPixelsARGB_ABGR+0xc>
8300b264:	0280006f          	j	8300b28c <ConvertPixelsARGB_ABGR+0x278>
8300b268:	00279713          	slli	a4,a5,0x2
8300b26c:	00e586b3          	add	a3,a1,a4
8300b270:	0006a683          	lw	a3,0(a3)
8300b274:	00e50733          	add	a4,a0,a4
8300b278:	00d72023          	sw	a3,0(a4)
8300b27c:	0106d813          	srli	a6,a3,0x10
8300b280:	01070023          	sb	a6,0(a4)
8300b284:	00d70123          	sb	a3,2(a4)
8300b288:	00178793          	addi	a5,a5,1
8300b28c:	fcc7cee3          	blt	a5,a2,8300b268 <ConvertPixelsARGB_ABGR+0x254>
8300b290:	00008067          	ret

8300b294 <SDL_BlitSurface>:
8300b294:	ff010113          	addi	sp,sp,-16
8300b298:	00112623          	sw	ra,12(sp)
8300b29c:	04060663          	beqz	a2,8300b2e8 <SDL_BlitSurface+0x54>
8300b2a0:	00060893          	mv	a7,a2
8300b2a4:	04050263          	beqz	a0,8300b2e8 <SDL_BlitSurface+0x54>
8300b2a8:	00462783          	lw	a5,4(a2)
8300b2ac:	0047c703          	lbu	a4,4(a5)
8300b2b0:	00452783          	lw	a5,4(a0)
8300b2b4:	0047c783          	lbu	a5,4(a5)
8300b2b8:	04f71a63          	bne	a4,a5,8300b30c <SDL_BlitSurface+0x78>
8300b2bc:	06058a63          	beqz	a1,8300b330 <SDL_BlitSurface+0x9c>
8300b2c0:	0a058463          	beqz	a1,8300b368 <SDL_BlitSurface+0xd4>
8300b2c4:	0065d283          	lhu	t0,6(a1)
8300b2c8:	0045d303          	lhu	t1,4(a1)
8300b2cc:	00059e03          	lh	t3,0(a1)
8300b2d0:	00259e83          	lh	t4,2(a1)
8300b2d4:	0a068463          	beqz	a3,8300b37c <SDL_BlitSurface+0xe8>
8300b2d8:	00069f03          	lh	t5,0(a3)
8300b2dc:	00269f83          	lh	t6,2(a3)
8300b2e0:	00000813          	li	a6,0
8300b2e4:	0f80006f          	j	8300b3dc <SDL_BlitSurface+0x148>
8300b2e8:	00003697          	auipc	a3,0x3
8300b2ec:	ff868693          	addi	a3,a3,-8 # 8300e2e0 <keyname+0x174>
8300b2f0:	00003617          	auipc	a2,0x3
8300b2f4:	29060613          	addi	a2,a2,656 # 8300e580 <__func__.7>
8300b2f8:	00b00593          	li	a1,11
8300b2fc:	00003517          	auipc	a0,0x3
8300b300:	ff050513          	addi	a0,a0,-16 # 8300e2ec <keyname+0x180>
8300b304:	ffffc097          	auipc	ra,0xffffc
8300b308:	548080e7          	jalr	1352(ra) # 8300784c <__assert_func>
8300b30c:	00003697          	auipc	a3,0x3
8300b310:	02c68693          	addi	a3,a3,44 # 8300e338 <keyname+0x1cc>
8300b314:	00003617          	auipc	a2,0x3
8300b318:	26c60613          	addi	a2,a2,620 # 8300e580 <__func__.7>
8300b31c:	00c00593          	li	a1,12
8300b320:	00003517          	auipc	a0,0x3
8300b324:	fcc50513          	addi	a0,a0,-52 # 8300e2ec <keyname+0x180>
8300b328:	ffffc097          	auipc	ra,0xffffc
8300b32c:	524080e7          	jalr	1316(ra) # 8300784c <__assert_func>
8300b330:	f80698e3          	bnez	a3,8300b2c0 <SDL_BlitSurface+0x2c>
8300b334:	00c52603          	lw	a2,12(a0)
8300b338:	00852783          	lw	a5,8(a0)
8300b33c:	02f60633          	mul	a2,a2,a5
8300b340:	00261613          	slli	a2,a2,0x2
8300b344:	01452583          	lw	a1,20(a0)
8300b348:	0148a503          	lw	a0,20(a7)
8300b34c:	ffffd097          	auipc	ra,0xffffd
8300b350:	1dc080e7          	jalr	476(ra) # 83008528 <memcpy>
8300b354:	00000097          	auipc	ra,0x0
8300b358:	874080e7          	jalr	-1932(ra) # 8300abc8 <CallbackHelper>
8300b35c:	00c12083          	lw	ra,12(sp)
8300b360:	01010113          	addi	sp,sp,16
8300b364:	00008067          	ret
8300b368:	00c52283          	lw	t0,12(a0)
8300b36c:	00852303          	lw	t1,8(a0)
8300b370:	00000e93          	li	t4,0
8300b374:	00000e13          	li	t3,0
8300b378:	f5dff06f          	j	8300b2d4 <SDL_BlitSurface+0x40>
8300b37c:	00000f93          	li	t6,0
8300b380:	00000f13          	li	t5,0
8300b384:	f5dff06f          	j	8300b2e0 <SDL_BlitSurface+0x4c>
8300b388:	01452583          	lw	a1,20(a0)
8300b38c:	010e87b3          	add	a5,t4,a6
8300b390:	00852683          	lw	a3,8(a0)
8300b394:	02d787b3          	mul	a5,a5,a3
8300b398:	00ee06b3          	add	a3,t3,a4
8300b39c:	00d787b3          	add	a5,a5,a3
8300b3a0:	00279793          	slli	a5,a5,0x2
8300b3a4:	00f585b3          	add	a1,a1,a5
8300b3a8:	0148a683          	lw	a3,20(a7)
8300b3ac:	010f87b3          	add	a5,t6,a6
8300b3b0:	0088a603          	lw	a2,8(a7)
8300b3b4:	02c787b3          	mul	a5,a5,a2
8300b3b8:	00ef0633          	add	a2,t5,a4
8300b3bc:	00c787b3          	add	a5,a5,a2
8300b3c0:	00279793          	slli	a5,a5,0x2
8300b3c4:	00f687b3          	add	a5,a3,a5
8300b3c8:	0005a683          	lw	a3,0(a1)
8300b3cc:	00d7a023          	sw	a3,0(a5)
8300b3d0:	00170713          	addi	a4,a4,1
8300b3d4:	fa674ae3          	blt	a4,t1,8300b388 <SDL_BlitSurface+0xf4>
8300b3d8:	00180813          	addi	a6,a6,1
8300b3dc:	f6585ce3          	bge	a6,t0,8300b354 <SDL_BlitSurface+0xc0>
8300b3e0:	00000713          	li	a4,0
8300b3e4:	ff1ff06f          	j	8300b3d4 <SDL_BlitSurface+0x140>

8300b3e8 <SDL_FillRect>:
8300b3e8:	ff010113          	addi	sp,sp,-16
8300b3ec:	00112623          	sw	ra,12(sp)
8300b3f0:	00058663          	beqz	a1,8300b3fc <SDL_FillRect+0x14>
8300b3f4:	00259803          	lh	a6,2(a1)
8300b3f8:	0740006f          	j	8300b46c <SDL_FillRect+0x84>
8300b3fc:	00852583          	lw	a1,8(a0)
8300b400:	00c52783          	lw	a5,12(a0)
8300b404:	02f585b3          	mul	a1,a1,a5
8300b408:	00000793          	li	a5,0
8300b40c:	0180006f          	j	8300b424 <SDL_FillRect+0x3c>
8300b410:	01452703          	lw	a4,20(a0)
8300b414:	00279693          	slli	a3,a5,0x2
8300b418:	00d70733          	add	a4,a4,a3
8300b41c:	00c72023          	sw	a2,0(a4)
8300b420:	00178793          	addi	a5,a5,1
8300b424:	feb7c6e3          	blt	a5,a1,8300b410 <SDL_FillRect+0x28>
8300b428:	fffff097          	auipc	ra,0xfffff
8300b42c:	7a0080e7          	jalr	1952(ra) # 8300abc8 <CallbackHelper>
8300b430:	00c12083          	lw	ra,12(sp)
8300b434:	01010113          	addi	sp,sp,16
8300b438:	00008067          	ret
8300b43c:	01452703          	lw	a4,20(a0)
8300b440:	030787b3          	mul	a5,a5,a6
8300b444:	00d787b3          	add	a5,a5,a3
8300b448:	00279793          	slli	a5,a5,0x2
8300b44c:	00f707b3          	add	a5,a4,a5
8300b450:	00c7a023          	sw	a2,0(a5)
8300b454:	00168693          	addi	a3,a3,1
8300b458:	00059703          	lh	a4,0(a1)
8300b45c:	0045d783          	lhu	a5,4(a1)
8300b460:	00f70733          	add	a4,a4,a5
8300b464:	fce6cce3          	blt	a3,a4,8300b43c <SDL_FillRect+0x54>
8300b468:	00180813          	addi	a6,a6,1
8300b46c:	00259783          	lh	a5,2(a1)
8300b470:	0065d703          	lhu	a4,6(a1)
8300b474:	00e787b3          	add	a5,a5,a4
8300b478:	faf858e3          	bge	a6,a5,8300b428 <SDL_FillRect+0x40>
8300b47c:	00059683          	lh	a3,0(a1)
8300b480:	fd9ff06f          	j	8300b458 <SDL_FillRect+0x70>

8300b484 <SDL_UpdateRect>:
8300b484:	fe010113          	addi	sp,sp,-32
8300b488:	00112e23          	sw	ra,28(sp)
8300b48c:	00812c23          	sw	s0,24(sp)
8300b490:	00912a23          	sw	s1,20(sp)
8300b494:	01212823          	sw	s2,16(sp)
8300b498:	01312623          	sw	s3,12(sp)
8300b49c:	01412423          	sw	s4,8(sp)
8300b4a0:	01512223          	sw	s5,4(sp)
8300b4a4:	00050a93          	mv	s5,a0
8300b4a8:	00c5e7b3          	or	a5,a1,a2
8300b4ac:	00d7e7b3          	or	a5,a5,a3
8300b4b0:	00e7e7b3          	or	a5,a5,a4
8300b4b4:	00078e63          	beqz	a5,8300b4d0 <SDL_UpdateRect+0x4c>
8300b4b8:	00058913          	mv	s2,a1
8300b4bc:	00060493          	mv	s1,a2
8300b4c0:	00068993          	mv	s3,a3
8300b4c4:	00070a13          	mv	s4,a4
8300b4c8:	00060413          	mv	s0,a2
8300b4cc:	0540006f          	j	8300b520 <SDL_UpdateRect+0x9c>
8300b4d0:	00000713          	li	a4,0
8300b4d4:	00000693          	li	a3,0
8300b4d8:	00000613          	li	a2,0
8300b4dc:	00000593          	li	a1,0
8300b4e0:	01452503          	lw	a0,20(a0)
8300b4e4:	00001097          	auipc	ra,0x1
8300b4e8:	d30080e7          	jalr	-720(ra) # 8300c214 <NDL_DrawRect>
8300b4ec:	03c0006f          	j	8300b528 <SDL_UpdateRect+0xa4>
8300b4f0:	014aa503          	lw	a0,20(s5)
8300b4f4:	033487b3          	mul	a5,s1,s3
8300b4f8:	012787b3          	add	a5,a5,s2
8300b4fc:	00279793          	slli	a5,a5,0x2
8300b500:	00100713          	li	a4,1
8300b504:	00098693          	mv	a3,s3
8300b508:	00040613          	mv	a2,s0
8300b50c:	00090593          	mv	a1,s2
8300b510:	00f50533          	add	a0,a0,a5
8300b514:	00001097          	auipc	ra,0x1
8300b518:	d00080e7          	jalr	-768(ra) # 8300c214 <NDL_DrawRect>
8300b51c:	00140413          	addi	s0,s0,1
8300b520:	014487b3          	add	a5,s1,s4
8300b524:	fcf446e3          	blt	s0,a5,8300b4f0 <SDL_UpdateRect+0x6c>
8300b528:	fffff097          	auipc	ra,0xfffff
8300b52c:	6a0080e7          	jalr	1696(ra) # 8300abc8 <CallbackHelper>
8300b530:	01c12083          	lw	ra,28(sp)
8300b534:	01812403          	lw	s0,24(sp)
8300b538:	01412483          	lw	s1,20(sp)
8300b53c:	01012903          	lw	s2,16(sp)
8300b540:	00c12983          	lw	s3,12(sp)
8300b544:	00812a03          	lw	s4,8(sp)
8300b548:	00412a83          	lw	s5,4(sp)
8300b54c:	02010113          	addi	sp,sp,32
8300b550:	00008067          	ret

8300b554 <SDL_CreateRGBSurface>:
8300b554:	fd010113          	addi	sp,sp,-48
8300b558:	02112623          	sw	ra,44(sp)
8300b55c:	02812423          	sw	s0,40(sp)
8300b560:	02912223          	sw	s1,36(sp)
8300b564:	03212023          	sw	s2,32(sp)
8300b568:	01312e23          	sw	s3,28(sp)
8300b56c:	01412c23          	sw	s4,24(sp)
8300b570:	01512a23          	sw	s5,20(sp)
8300b574:	01612823          	sw	s6,16(sp)
8300b578:	01712623          	sw	s7,12(sp)
8300b57c:	01812423          	sw	s8,8(sp)
8300b580:	01912223          	sw	s9,4(sp)
8300b584:	00050913          	mv	s2,a0
8300b588:	00058993          	mv	s3,a1
8300b58c:	00060a13          	mv	s4,a2
8300b590:	00068493          	mv	s1,a3
8300b594:	00070a93          	mv	s5,a4
8300b598:	00078c13          	mv	s8,a5
8300b59c:	00080b93          	mv	s7,a6
8300b5a0:	00088b13          	mv	s6,a7
8300b5a4:	00800793          	li	a5,8
8300b5a8:	00f68663          	beq	a3,a5,8300b5b4 <SDL_CreateRGBSurface+0x60>
8300b5ac:	02000793          	li	a5,32
8300b5b0:	1cf69c63          	bne	a3,a5,8300b788 <SDL_CreateRGBSurface+0x234>
8300b5b4:	01800513          	li	a0,24
8300b5b8:	ffffc097          	auipc	ra,0xffffc
8300b5bc:	d0c080e7          	jalr	-756(ra) # 830072c4 <malloc>
8300b5c0:	00050413          	mv	s0,a0
8300b5c4:	1e050463          	beqz	a0,8300b7ac <SDL_CreateRGBSurface+0x258>
8300b5c8:	01252023          	sw	s2,0(a0)
8300b5cc:	02000513          	li	a0,32
8300b5d0:	ffffc097          	auipc	ra,0xffffc
8300b5d4:	cf4080e7          	jalr	-780(ra) # 830072c4 <malloc>
8300b5d8:	00050c93          	mv	s9,a0
8300b5dc:	00a42223          	sw	a0,4(s0)
8300b5e0:	1e050863          	beqz	a0,8300b7d0 <SDL_CreateRGBSurface+0x27c>
8300b5e4:	00800793          	li	a5,8
8300b5e8:	20f48663          	beq	s1,a5,8300b7f4 <SDL_CreateRGBSurface+0x2a0>
8300b5ec:	00052023          	sw	zero,0(a0)
8300b5f0:	00442783          	lw	a5,4(s0)
8300b5f4:	0157a823          	sw	s5,16(a5)
8300b5f8:	000107b7          	lui	a5,0x10
8300b5fc:	f0078793          	addi	a5,a5,-256 # ff00 <_ZL9set_i_maxv-0x82ff01b4>
8300b600:	2cfa8c63          	beq	s5,a5,8300b8d8 <SDL_CreateRGBSurface+0x384>
8300b604:	000107b7          	lui	a5,0x10
8300b608:	f0078793          	addi	a5,a5,-256 # ff00 <_ZL9set_i_maxv-0x82ff01b4>
8300b60c:	2957e863          	bltu	a5,s5,8300b89c <SDL_CreateRGBSurface+0x348>
8300b610:	2c0a8863          	beqz	s5,8300b8e0 <SDL_CreateRGBSurface+0x38c>
8300b614:	0ff00793          	li	a5,255
8300b618:	28fa9e63          	bne	s5,a5,8300b8b4 <SDL_CreateRGBSurface+0x360>
8300b61c:	00000793          	li	a5,0
8300b620:	00442703          	lw	a4,4(s0)
8300b624:	00f70523          	sb	a5,10(a4)
8300b628:	00442783          	lw	a5,4(s0)
8300b62c:	00078323          	sb	zero,6(a5)
8300b630:	00442783          	lw	a5,4(s0)
8300b634:	0187aa23          	sw	s8,20(a5)
8300b638:	000107b7          	lui	a5,0x10
8300b63c:	f0078793          	addi	a5,a5,-256 # ff00 <_ZL9set_i_maxv-0x82ff01b4>
8300b640:	2efc0663          	beq	s8,a5,8300b92c <SDL_CreateRGBSurface+0x3d8>
8300b644:	000107b7          	lui	a5,0x10
8300b648:	f0078793          	addi	a5,a5,-256 # ff00 <_ZL9set_i_maxv-0x82ff01b4>
8300b64c:	2b87e263          	bltu	a5,s8,8300b8f0 <SDL_CreateRGBSurface+0x39c>
8300b650:	2e0c0263          	beqz	s8,8300b934 <SDL_CreateRGBSurface+0x3e0>
8300b654:	0ff00793          	li	a5,255
8300b658:	2afc1863          	bne	s8,a5,8300b908 <SDL_CreateRGBSurface+0x3b4>
8300b65c:	00000793          	li	a5,0
8300b660:	00442703          	lw	a4,4(s0)
8300b664:	00f705a3          	sb	a5,11(a4)
8300b668:	00442783          	lw	a5,4(s0)
8300b66c:	000783a3          	sb	zero,7(a5)
8300b670:	00442783          	lw	a5,4(s0)
8300b674:	0177ac23          	sw	s7,24(a5)
8300b678:	000107b7          	lui	a5,0x10
8300b67c:	f0078793          	addi	a5,a5,-256 # ff00 <_ZL9set_i_maxv-0x82ff01b4>
8300b680:	30fb8063          	beq	s7,a5,8300b980 <SDL_CreateRGBSurface+0x42c>
8300b684:	000107b7          	lui	a5,0x10
8300b688:	f0078793          	addi	a5,a5,-256 # ff00 <_ZL9set_i_maxv-0x82ff01b4>
8300b68c:	2b77ec63          	bltu	a5,s7,8300b944 <SDL_CreateRGBSurface+0x3f0>
8300b690:	2e0b8c63          	beqz	s7,8300b988 <SDL_CreateRGBSurface+0x434>
8300b694:	0ff00793          	li	a5,255
8300b698:	2cfb9263          	bne	s7,a5,8300b95c <SDL_CreateRGBSurface+0x408>
8300b69c:	00000793          	li	a5,0
8300b6a0:	00442703          	lw	a4,4(s0)
8300b6a4:	00f70623          	sb	a5,12(a4)
8300b6a8:	00442783          	lw	a5,4(s0)
8300b6ac:	00078423          	sb	zero,8(a5)
8300b6b0:	00442783          	lw	a5,4(s0)
8300b6b4:	0167ae23          	sw	s6,28(a5)
8300b6b8:	000107b7          	lui	a5,0x10
8300b6bc:	f0078793          	addi	a5,a5,-256 # ff00 <_ZL9set_i_maxv-0x82ff01b4>
8300b6c0:	30fb0a63          	beq	s6,a5,8300b9d4 <SDL_CreateRGBSurface+0x480>
8300b6c4:	000107b7          	lui	a5,0x10
8300b6c8:	f0078793          	addi	a5,a5,-256 # ff00 <_ZL9set_i_maxv-0x82ff01b4>
8300b6cc:	2d67e663          	bltu	a5,s6,8300b998 <SDL_CreateRGBSurface+0x444>
8300b6d0:	300b0663          	beqz	s6,8300b9dc <SDL_CreateRGBSurface+0x488>
8300b6d4:	0ff00793          	li	a5,255
8300b6d8:	2cfb1c63          	bne	s6,a5,8300b9b0 <SDL_CreateRGBSurface+0x45c>
8300b6dc:	00000793          	li	a5,0
8300b6e0:	00442703          	lw	a4,4(s0)
8300b6e4:	00f706a3          	sb	a5,13(a4)
8300b6e8:	00442783          	lw	a5,4(s0)
8300b6ec:	000784a3          	sb	zero,9(a5)
8300b6f0:	00442783          	lw	a5,4(s0)
8300b6f4:	00978223          	sb	s1,4(a5)
8300b6f8:	41f4d793          	srai	a5,s1,0x1f
8300b6fc:	0077f793          	andi	a5,a5,7
8300b700:	009787b3          	add	a5,a5,s1
8300b704:	4037d793          	srai	a5,a5,0x3
8300b708:	00442703          	lw	a4,4(s0)
8300b70c:	00f702a3          	sb	a5,5(a4)
8300b710:	01342423          	sw	s3,8(s0)
8300b714:	01442623          	sw	s4,12(s0)
8300b718:	033484b3          	mul	s1,s1,s3
8300b71c:	41f4d793          	srai	a5,s1,0x1f
8300b720:	0077f793          	andi	a5,a5,7
8300b724:	009787b3          	add	a5,a5,s1
8300b728:	4037d793          	srai	a5,a5,0x3
8300b72c:	01079793          	slli	a5,a5,0x10
8300b730:	0107d793          	srli	a5,a5,0x10
8300b734:	00f41823          	sh	a5,16(s0)
8300b738:	00442703          	lw	a4,4(s0)
8300b73c:	00574703          	lbu	a4,5(a4)
8300b740:	03370733          	mul	a4,a4,s3
8300b744:	2ae79463          	bne	a5,a4,8300b9ec <SDL_CreateRGBSurface+0x498>
8300b748:	01097913          	andi	s2,s2,16
8300b74c:	2c090263          	beqz	s2,8300ba10 <SDL_CreateRGBSurface+0x4bc>
8300b750:	00040513          	mv	a0,s0
8300b754:	02c12083          	lw	ra,44(sp)
8300b758:	02812403          	lw	s0,40(sp)
8300b75c:	02412483          	lw	s1,36(sp)
8300b760:	02012903          	lw	s2,32(sp)
8300b764:	01c12983          	lw	s3,28(sp)
8300b768:	01812a03          	lw	s4,24(sp)
8300b76c:	01412a83          	lw	s5,20(sp)
8300b770:	01012b03          	lw	s6,16(sp)
8300b774:	00c12b83          	lw	s7,12(sp)
8300b778:	00812c03          	lw	s8,8(sp)
8300b77c:	00412c83          	lw	s9,4(sp)
8300b780:	03010113          	addi	sp,sp,48
8300b784:	00008067          	ret
8300b788:	00003697          	auipc	a3,0x3
8300b78c:	be868693          	addi	a3,a3,-1048 # 8300e370 <keyname+0x204>
8300b790:	00003617          	auipc	a2,0x3
8300b794:	e0060613          	addi	a2,a2,-512 # 8300e590 <__func__.6>
8300b798:	04e00593          	li	a1,78
8300b79c:	00003517          	auipc	a0,0x3
8300b7a0:	b5050513          	addi	a0,a0,-1200 # 8300e2ec <keyname+0x180>
8300b7a4:	ffffc097          	auipc	ra,0xffffc
8300b7a8:	0a8080e7          	jalr	168(ra) # 8300784c <__assert_func>
8300b7ac:	00001697          	auipc	a3,0x1
8300b7b0:	4c068693          	addi	a3,a3,1216 # 8300cc6c <__call_exitprocs+0x188>
8300b7b4:	00003617          	auipc	a2,0x3
8300b7b8:	ddc60613          	addi	a2,a2,-548 # 8300e590 <__func__.6>
8300b7bc:	05000593          	li	a1,80
8300b7c0:	00003517          	auipc	a0,0x3
8300b7c4:	b2c50513          	addi	a0,a0,-1236 # 8300e2ec <keyname+0x180>
8300b7c8:	ffffc097          	auipc	ra,0xffffc
8300b7cc:	084080e7          	jalr	132(ra) # 8300784c <__assert_func>
8300b7d0:	00003697          	auipc	a3,0x3
8300b7d4:	bbc68693          	addi	a3,a3,-1092 # 8300e38c <keyname+0x220>
8300b7d8:	00003617          	auipc	a2,0x3
8300b7dc:	db860613          	addi	a2,a2,-584 # 8300e590 <__func__.6>
8300b7e0:	05300593          	li	a1,83
8300b7e4:	00003517          	auipc	a0,0x3
8300b7e8:	b0850513          	addi	a0,a0,-1272 # 8300e2ec <keyname+0x180>
8300b7ec:	ffffc097          	auipc	ra,0xffffc
8300b7f0:	060080e7          	jalr	96(ra) # 8300784c <__assert_func>
8300b7f4:	00800513          	li	a0,8
8300b7f8:	ffffc097          	auipc	ra,0xffffc
8300b7fc:	acc080e7          	jalr	-1332(ra) # 830072c4 <malloc>
8300b800:	00aca023          	sw	a0,0(s9)
8300b804:	00442783          	lw	a5,4(s0)
8300b808:	0007aa83          	lw	s5,0(a5)
8300b80c:	040a8463          	beqz	s5,8300b854 <SDL_CreateRGBSurface+0x300>
8300b810:	40000513          	li	a0,1024
8300b814:	ffffc097          	auipc	ra,0xffffc
8300b818:	ab0080e7          	jalr	-1360(ra) # 830072c4 <malloc>
8300b81c:	00aaa223          	sw	a0,4(s5)
8300b820:	00442783          	lw	a5,4(s0)
8300b824:	0007a783          	lw	a5,0(a5)
8300b828:	0047a503          	lw	a0,4(a5)
8300b82c:	04050663          	beqz	a0,8300b878 <SDL_CreateRGBSurface+0x324>
8300b830:	40000613          	li	a2,1024
8300b834:	00000593          	li	a1,0
8300b838:	ffff6097          	auipc	ra,0xffff6
8300b83c:	804080e7          	jalr	-2044(ra) # 8300103c <memset>
8300b840:	00442783          	lw	a5,4(s0)
8300b844:	0007a783          	lw	a5,0(a5)
8300b848:	10000713          	li	a4,256
8300b84c:	00e7a023          	sw	a4,0(a5)
8300b850:	ea1ff06f          	j	8300b6f0 <SDL_CreateRGBSurface+0x19c>
8300b854:	00003697          	auipc	a3,0x3
8300b858:	b4468693          	addi	a3,a3,-1212 # 8300e398 <keyname+0x22c>
8300b85c:	00003617          	auipc	a2,0x3
8300b860:	d3460613          	addi	a2,a2,-716 # 8300e590 <__func__.6>
8300b864:	05600593          	li	a1,86
8300b868:	00003517          	auipc	a0,0x3
8300b86c:	a8450513          	addi	a0,a0,-1404 # 8300e2ec <keyname+0x180>
8300b870:	ffffc097          	auipc	ra,0xffffc
8300b874:	fdc080e7          	jalr	-36(ra) # 8300784c <__assert_func>
8300b878:	00003697          	auipc	a3,0x3
8300b87c:	b3468693          	addi	a3,a3,-1228 # 8300e3ac <keyname+0x240>
8300b880:	00003617          	auipc	a2,0x3
8300b884:	d1060613          	addi	a2,a2,-752 # 8300e590 <__func__.6>
8300b888:	05800593          	li	a1,88
8300b88c:	00003517          	auipc	a0,0x3
8300b890:	a6050513          	addi	a0,a0,-1440 # 8300e2ec <keyname+0x180>
8300b894:	ffffc097          	auipc	ra,0xffffc
8300b898:	fb8080e7          	jalr	-72(ra) # 8300784c <__assert_func>
8300b89c:	00ff07b7          	lui	a5,0xff0
8300b8a0:	04fa8463          	beq	s5,a5,8300b8e8 <SDL_CreateRGBSurface+0x394>
8300b8a4:	ff0007b7          	lui	a5,0xff000
8300b8a8:	00fa9663          	bne	s5,a5,8300b8b4 <SDL_CreateRGBSurface+0x360>
8300b8ac:	01800793          	li	a5,24
8300b8b0:	d71ff06f          	j	8300b620 <SDL_CreateRGBSurface+0xcc>
8300b8b4:	00002697          	auipc	a3,0x2
8300b8b8:	28c68693          	addi	a3,a3,652 # 8300db40 <zeroes.0+0x10>
8300b8bc:	00003617          	auipc	a2,0x3
8300b8c0:	cec60613          	addi	a2,a2,-788 # 8300e5a8 <__func__.5>
8300b8c4:	04800593          	li	a1,72
8300b8c8:	00003517          	auipc	a0,0x3
8300b8cc:	a2450513          	addi	a0,a0,-1500 # 8300e2ec <keyname+0x180>
8300b8d0:	ffffc097          	auipc	ra,0xffffc
8300b8d4:	f7c080e7          	jalr	-132(ra) # 8300784c <__assert_func>
8300b8d8:	00800793          	li	a5,8
8300b8dc:	d45ff06f          	j	8300b620 <SDL_CreateRGBSurface+0xcc>
8300b8e0:	01800793          	li	a5,24
8300b8e4:	d3dff06f          	j	8300b620 <SDL_CreateRGBSurface+0xcc>
8300b8e8:	01000793          	li	a5,16
8300b8ec:	d35ff06f          	j	8300b620 <SDL_CreateRGBSurface+0xcc>
8300b8f0:	00ff07b7          	lui	a5,0xff0
8300b8f4:	04fc0463          	beq	s8,a5,8300b93c <SDL_CreateRGBSurface+0x3e8>
8300b8f8:	ff0007b7          	lui	a5,0xff000
8300b8fc:	00fc1663          	bne	s8,a5,8300b908 <SDL_CreateRGBSurface+0x3b4>
8300b900:	01800793          	li	a5,24
8300b904:	d5dff06f          	j	8300b660 <SDL_CreateRGBSurface+0x10c>
8300b908:	00002697          	auipc	a3,0x2
8300b90c:	23868693          	addi	a3,a3,568 # 8300db40 <zeroes.0+0x10>
8300b910:	00003617          	auipc	a2,0x3
8300b914:	c9860613          	addi	a2,a2,-872 # 8300e5a8 <__func__.5>
8300b918:	04800593          	li	a1,72
8300b91c:	00003517          	auipc	a0,0x3
8300b920:	9d050513          	addi	a0,a0,-1584 # 8300e2ec <keyname+0x180>
8300b924:	ffffc097          	auipc	ra,0xffffc
8300b928:	f28080e7          	jalr	-216(ra) # 8300784c <__assert_func>
8300b92c:	00800793          	li	a5,8
8300b930:	d31ff06f          	j	8300b660 <SDL_CreateRGBSurface+0x10c>
8300b934:	01800793          	li	a5,24
8300b938:	d29ff06f          	j	8300b660 <SDL_CreateRGBSurface+0x10c>
8300b93c:	01000793          	li	a5,16
8300b940:	d21ff06f          	j	8300b660 <SDL_CreateRGBSurface+0x10c>
8300b944:	00ff07b7          	lui	a5,0xff0
8300b948:	04fb8463          	beq	s7,a5,8300b990 <SDL_CreateRGBSurface+0x43c>
8300b94c:	ff0007b7          	lui	a5,0xff000
8300b950:	00fb9663          	bne	s7,a5,8300b95c <SDL_CreateRGBSurface+0x408>
8300b954:	01800793          	li	a5,24
8300b958:	d49ff06f          	j	8300b6a0 <SDL_CreateRGBSurface+0x14c>
8300b95c:	00002697          	auipc	a3,0x2
8300b960:	1e468693          	addi	a3,a3,484 # 8300db40 <zeroes.0+0x10>
8300b964:	00003617          	auipc	a2,0x3
8300b968:	c4460613          	addi	a2,a2,-956 # 8300e5a8 <__func__.5>
8300b96c:	04800593          	li	a1,72
8300b970:	00003517          	auipc	a0,0x3
8300b974:	97c50513          	addi	a0,a0,-1668 # 8300e2ec <keyname+0x180>
8300b978:	ffffc097          	auipc	ra,0xffffc
8300b97c:	ed4080e7          	jalr	-300(ra) # 8300784c <__assert_func>
8300b980:	00800793          	li	a5,8
8300b984:	d1dff06f          	j	8300b6a0 <SDL_CreateRGBSurface+0x14c>
8300b988:	01800793          	li	a5,24
8300b98c:	d15ff06f          	j	8300b6a0 <SDL_CreateRGBSurface+0x14c>
8300b990:	01000793          	li	a5,16
8300b994:	d0dff06f          	j	8300b6a0 <SDL_CreateRGBSurface+0x14c>
8300b998:	00ff07b7          	lui	a5,0xff0
8300b99c:	04fb0463          	beq	s6,a5,8300b9e4 <SDL_CreateRGBSurface+0x490>
8300b9a0:	ff0007b7          	lui	a5,0xff000
8300b9a4:	00fb1663          	bne	s6,a5,8300b9b0 <SDL_CreateRGBSurface+0x45c>
8300b9a8:	01800793          	li	a5,24
8300b9ac:	d35ff06f          	j	8300b6e0 <SDL_CreateRGBSurface+0x18c>
8300b9b0:	00002697          	auipc	a3,0x2
8300b9b4:	19068693          	addi	a3,a3,400 # 8300db40 <zeroes.0+0x10>
8300b9b8:	00003617          	auipc	a2,0x3
8300b9bc:	bf060613          	addi	a2,a2,-1040 # 8300e5a8 <__func__.5>
8300b9c0:	04800593          	li	a1,72
8300b9c4:	00003517          	auipc	a0,0x3
8300b9c8:	92850513          	addi	a0,a0,-1752 # 8300e2ec <keyname+0x180>
8300b9cc:	ffffc097          	auipc	ra,0xffffc
8300b9d0:	e80080e7          	jalr	-384(ra) # 8300784c <__assert_func>
8300b9d4:	00800793          	li	a5,8
8300b9d8:	d09ff06f          	j	8300b6e0 <SDL_CreateRGBSurface+0x18c>
8300b9dc:	01800793          	li	a5,24
8300b9e0:	d01ff06f          	j	8300b6e0 <SDL_CreateRGBSurface+0x18c>
8300b9e4:	01000793          	li	a5,16
8300b9e8:	cf9ff06f          	j	8300b6e0 <SDL_CreateRGBSurface+0x18c>
8300b9ec:	00003697          	auipc	a3,0x3
8300b9f0:	9dc68693          	addi	a3,a3,-1572 # 8300e3c8 <keyname+0x25c>
8300b9f4:	00003617          	auipc	a2,0x3
8300b9f8:	b9c60613          	addi	a2,a2,-1124 # 8300e590 <__func__.6>
8300b9fc:	06900593          	li	a1,105
8300ba00:	00003517          	auipc	a0,0x3
8300ba04:	8ec50513          	addi	a0,a0,-1812 # 8300e2ec <keyname+0x180>
8300ba08:	ffffc097          	auipc	ra,0xffffc
8300ba0c:	e44080e7          	jalr	-444(ra) # 8300784c <__assert_func>
8300ba10:	03478533          	mul	a0,a5,s4
8300ba14:	ffffc097          	auipc	ra,0xffffc
8300ba18:	8b0080e7          	jalr	-1872(ra) # 830072c4 <malloc>
8300ba1c:	00a42a23          	sw	a0,20(s0)
8300ba20:	d20518e3          	bnez	a0,8300b750 <SDL_CreateRGBSurface+0x1fc>
8300ba24:	00003697          	auipc	a3,0x3
8300ba28:	9d468693          	addi	a3,a3,-1580 # 8300e3f8 <keyname+0x28c>
8300ba2c:	00003617          	auipc	a2,0x3
8300ba30:	b6460613          	addi	a2,a2,-1180 # 8300e590 <__func__.6>
8300ba34:	06d00593          	li	a1,109
8300ba38:	00003517          	auipc	a0,0x3
8300ba3c:	8b450513          	addi	a0,a0,-1868 # 8300e2ec <keyname+0x180>
8300ba40:	ffffc097          	auipc	ra,0xffffc
8300ba44:	e0c080e7          	jalr	-500(ra) # 8300784c <__assert_func>

8300ba48 <SDL_CreateRGBSurfaceFrom>:
8300ba48:	ff010113          	addi	sp,sp,-16
8300ba4c:	00112623          	sw	ra,12(sp)
8300ba50:	00812423          	sw	s0,8(sp)
8300ba54:	00912223          	sw	s1,4(sp)
8300ba58:	00050493          	mv	s1,a0
8300ba5c:	00070413          	mv	s0,a4
8300ba60:	00078713          	mv	a4,a5
8300ba64:	00080793          	mv	a5,a6
8300ba68:	00088813          	mv	a6,a7
8300ba6c:	01012883          	lw	a7,16(sp)
8300ba70:	01000513          	li	a0,16
8300ba74:	00000097          	auipc	ra,0x0
8300ba78:	ae0080e7          	jalr	-1312(ra) # 8300b554 <SDL_CreateRGBSurface>
8300ba7c:	01055783          	lhu	a5,16(a0)
8300ba80:	00879e63          	bne	a5,s0,8300ba9c <SDL_CreateRGBSurfaceFrom+0x54>
8300ba84:	00952a23          	sw	s1,20(a0)
8300ba88:	00c12083          	lw	ra,12(sp)
8300ba8c:	00812403          	lw	s0,8(sp)
8300ba90:	00412483          	lw	s1,4(sp)
8300ba94:	01010113          	addi	sp,sp,16
8300ba98:	00008067          	ret
8300ba9c:	00003697          	auipc	a3,0x3
8300baa0:	96868693          	addi	a3,a3,-1688 # 8300e404 <keyname+0x298>
8300baa4:	00003617          	auipc	a2,0x3
8300baa8:	b1060613          	addi	a2,a2,-1264 # 8300e5b4 <__func__.4>
8300baac:	07700593          	li	a1,119
8300bab0:	00003517          	auipc	a0,0x3
8300bab4:	83c50513          	addi	a0,a0,-1988 # 8300e2ec <keyname+0x180>
8300bab8:	ffffc097          	auipc	ra,0xffffc
8300babc:	d94080e7          	jalr	-620(ra) # 8300784c <__assert_func>

8300bac0 <SDL_FreeSurface>:
8300bac0:	08050663          	beqz	a0,8300bb4c <SDL_FreeSurface+0x8c>
8300bac4:	ff010113          	addi	sp,sp,-16
8300bac8:	00112623          	sw	ra,12(sp)
8300bacc:	00812423          	sw	s0,8(sp)
8300bad0:	00050413          	mv	s0,a0
8300bad4:	00452783          	lw	a5,4(a0)
8300bad8:	02078c63          	beqz	a5,8300bb10 <SDL_FreeSurface+0x50>
8300badc:	0007a783          	lw	a5,0(a5) # ff000000 <__BSS_END__+0x7bff04f8>
8300bae0:	02078263          	beqz	a5,8300bb04 <SDL_FreeSurface+0x44>
8300bae4:	0047a503          	lw	a0,4(a5)
8300bae8:	00050663          	beqz	a0,8300baf4 <SDL_FreeSurface+0x34>
8300baec:	ffffc097          	auipc	ra,0xffffc
8300baf0:	800080e7          	jalr	-2048(ra) # 830072ec <free>
8300baf4:	00442783          	lw	a5,4(s0)
8300baf8:	0007a503          	lw	a0,0(a5)
8300bafc:	ffffb097          	auipc	ra,0xffffb
8300bb00:	7f0080e7          	jalr	2032(ra) # 830072ec <free>
8300bb04:	00442503          	lw	a0,4(s0)
8300bb08:	ffffb097          	auipc	ra,0xffffb
8300bb0c:	7e4080e7          	jalr	2020(ra) # 830072ec <free>
8300bb10:	01442503          	lw	a0,20(s0)
8300bb14:	00050863          	beqz	a0,8300bb24 <SDL_FreeSurface+0x64>
8300bb18:	00042783          	lw	a5,0(s0)
8300bb1c:	0107f793          	andi	a5,a5,16
8300bb20:	02078063          	beqz	a5,8300bb40 <SDL_FreeSurface+0x80>
8300bb24:	00040513          	mv	a0,s0
8300bb28:	ffffb097          	auipc	ra,0xffffb
8300bb2c:	7c4080e7          	jalr	1988(ra) # 830072ec <free>
8300bb30:	00c12083          	lw	ra,12(sp)
8300bb34:	00812403          	lw	s0,8(sp)
8300bb38:	01010113          	addi	sp,sp,16
8300bb3c:	00008067          	ret
8300bb40:	ffffb097          	auipc	ra,0xffffb
8300bb44:	7ac080e7          	jalr	1964(ra) # 830072ec <free>
8300bb48:	fddff06f          	j	8300bb24 <SDL_FreeSurface+0x64>
8300bb4c:	00008067          	ret

8300bb50 <SDL_SetVideoMode>:
8300bb50:	fe010113          	addi	sp,sp,-32
8300bb54:	00112e23          	sw	ra,28(sp)
8300bb58:	00812c23          	sw	s0,24(sp)
8300bb5c:	00912a23          	sw	s1,20(sp)
8300bb60:	00a12623          	sw	a0,12(sp)
8300bb64:	00b12423          	sw	a1,8(sp)
8300bb68:	00060493          	mv	s1,a2
8300bb6c:	00068413          	mv	s0,a3
8300bb70:	0016f793          	andi	a5,a3,1
8300bb74:	04079263          	bnez	a5,8300bbb8 <SDL_SetVideoMode+0x68>
8300bb78:	ff0008b7          	lui	a7,0xff000
8300bb7c:	0ff00813          	li	a6,255
8300bb80:	000107b7          	lui	a5,0x10
8300bb84:	f0078793          	addi	a5,a5,-256 # ff00 <_ZL9set_i_maxv-0x82ff01b4>
8300bb88:	00ff0737          	lui	a4,0xff0
8300bb8c:	00048693          	mv	a3,s1
8300bb90:	00812603          	lw	a2,8(sp)
8300bb94:	00c12583          	lw	a1,12(sp)
8300bb98:	00040513          	mv	a0,s0
8300bb9c:	00000097          	auipc	ra,0x0
8300bba0:	9b8080e7          	jalr	-1608(ra) # 8300b554 <SDL_CreateRGBSurface>
8300bba4:	01c12083          	lw	ra,28(sp)
8300bba8:	01812403          	lw	s0,24(sp)
8300bbac:	01412483          	lw	s1,20(sp)
8300bbb0:	02010113          	addi	sp,sp,32
8300bbb4:	00008067          	ret
8300bbb8:	00810593          	addi	a1,sp,8
8300bbbc:	00c10513          	addi	a0,sp,12
8300bbc0:	00000097          	auipc	ra,0x0
8300bbc4:	524080e7          	jalr	1316(ra) # 8300c0e4 <NDL_OpenCanvas>
8300bbc8:	fb1ff06f          	j	8300bb78 <SDL_SetVideoMode+0x28>

8300bbcc <SDL_SoftStretch>:
8300bbcc:	fe010113          	addi	sp,sp,-32
8300bbd0:	00112e23          	sw	ra,28(sp)
8300bbd4:	08050063          	beqz	a0,8300bc54 <SDL_SoftStretch+0x88>
8300bbd8:	06060e63          	beqz	a2,8300bc54 <SDL_SoftStretch+0x88>
8300bbdc:	00462783          	lw	a5,4(a2)
8300bbe0:	0047c783          	lbu	a5,4(a5)
8300bbe4:	00452703          	lw	a4,4(a0)
8300bbe8:	00474703          	lbu	a4,4(a4) # ff0004 <_ZL9set_i_maxv-0x820100b0>
8300bbec:	08e79663          	bne	a5,a4,8300bc78 <SDL_SoftStretch+0xac>
8300bbf0:	00800713          	li	a4,8
8300bbf4:	0ae79463          	bne	a5,a4,8300bc9c <SDL_SoftStretch+0xd0>
8300bbf8:	0c058463          	beqz	a1,8300bcc0 <SDL_SoftStretch+0xf4>
8300bbfc:	00059883          	lh	a7,0(a1)
8300bc00:	0c058463          	beqz	a1,8300bcc8 <SDL_SoftStretch+0xfc>
8300bc04:	00259803          	lh	a6,2(a1)
8300bc08:	0c058463          	beqz	a1,8300bcd0 <SDL_SoftStretch+0x104>
8300bc0c:	0045d783          	lhu	a5,4(a1)
8300bc10:	0c058463          	beqz	a1,8300bcd8 <SDL_SoftStretch+0x10c>
8300bc14:	0065d703          	lhu	a4,6(a1)
8300bc18:	0c068463          	beqz	a3,8300bce0 <SDL_SoftStretch+0x114>
8300bc1c:	0046d583          	lhu	a1,4(a3)
8300bc20:	0ef59263          	bne	a1,a5,8300bd04 <SDL_SoftStretch+0x138>
8300bc24:	0066d583          	lhu	a1,6(a3)
8300bc28:	0ce59e63          	bne	a1,a4,8300bd04 <SDL_SoftStretch+0x138>
8300bc2c:	01111423          	sh	a7,8(sp)
8300bc30:	01011523          	sh	a6,10(sp)
8300bc34:	00f11623          	sh	a5,12(sp)
8300bc38:	00e11723          	sh	a4,14(sp)
8300bc3c:	00810593          	addi	a1,sp,8
8300bc40:	fffff097          	auipc	ra,0xfffff
8300bc44:	654080e7          	jalr	1620(ra) # 8300b294 <SDL_BlitSurface>
8300bc48:	01c12083          	lw	ra,28(sp)
8300bc4c:	02010113          	addi	sp,sp,32
8300bc50:	00008067          	ret
8300bc54:	00002697          	auipc	a3,0x2
8300bc58:	7c468693          	addi	a3,a3,1988 # 8300e418 <keyname+0x2ac>
8300bc5c:	00003617          	auipc	a2,0x3
8300bc60:	97460613          	addi	a2,a2,-1676 # 8300e5d0 <__func__.3>
8300bc64:	09100593          	li	a1,145
8300bc68:	00002517          	auipc	a0,0x2
8300bc6c:	68450513          	addi	a0,a0,1668 # 8300e2ec <keyname+0x180>
8300bc70:	ffffc097          	auipc	ra,0xffffc
8300bc74:	bdc080e7          	jalr	-1060(ra) # 8300784c <__assert_func>
8300bc78:	00002697          	auipc	a3,0x2
8300bc7c:	6c068693          	addi	a3,a3,1728 # 8300e338 <keyname+0x1cc>
8300bc80:	00003617          	auipc	a2,0x3
8300bc84:	95060613          	addi	a2,a2,-1712 # 8300e5d0 <__func__.3>
8300bc88:	09200593          	li	a1,146
8300bc8c:	00002517          	auipc	a0,0x2
8300bc90:	66050513          	addi	a0,a0,1632 # 8300e2ec <keyname+0x180>
8300bc94:	ffffc097          	auipc	ra,0xffffc
8300bc98:	bb8080e7          	jalr	-1096(ra) # 8300784c <__assert_func>
8300bc9c:	00002697          	auipc	a3,0x2
8300bca0:	78868693          	addi	a3,a3,1928 # 8300e424 <keyname+0x2b8>
8300bca4:	00003617          	auipc	a2,0x3
8300bca8:	92c60613          	addi	a2,a2,-1748 # 8300e5d0 <__func__.3>
8300bcac:	09300593          	li	a1,147
8300bcb0:	00002517          	auipc	a0,0x2
8300bcb4:	63c50513          	addi	a0,a0,1596 # 8300e2ec <keyname+0x180>
8300bcb8:	ffffc097          	auipc	ra,0xffffc
8300bcbc:	b94080e7          	jalr	-1132(ra) # 8300784c <__assert_func>
8300bcc0:	00000893          	li	a7,0
8300bcc4:	f3dff06f          	j	8300bc00 <SDL_SoftStretch+0x34>
8300bcc8:	00000813          	li	a6,0
8300bccc:	f3dff06f          	j	8300bc08 <SDL_SoftStretch+0x3c>
8300bcd0:	00852783          	lw	a5,8(a0)
8300bcd4:	f3dff06f          	j	8300bc10 <SDL_SoftStretch+0x44>
8300bcd8:	00c52703          	lw	a4,12(a0)
8300bcdc:	f3dff06f          	j	8300bc18 <SDL_SoftStretch+0x4c>
8300bce0:	00002697          	auipc	a3,0x2
8300bce4:	76468693          	addi	a3,a3,1892 # 8300e444 <keyname+0x2d8>
8300bce8:	00003617          	auipc	a2,0x3
8300bcec:	8e860613          	addi	a2,a2,-1816 # 8300e5d0 <__func__.3>
8300bcf0:	09a00593          	li	a1,154
8300bcf4:	00002517          	auipc	a0,0x2
8300bcf8:	5f850513          	addi	a0,a0,1528 # 8300e2ec <keyname+0x180>
8300bcfc:	ffffc097          	auipc	ra,0xffffc
8300bd00:	b50080e7          	jalr	-1200(ra) # 8300784c <__assert_func>
8300bd04:	00002697          	auipc	a3,0x2
8300bd08:	e3c68693          	addi	a3,a3,-452 # 8300db40 <zeroes.0+0x10>
8300bd0c:	00003617          	auipc	a2,0x3
8300bd10:	8c460613          	addi	a2,a2,-1852 # 8300e5d0 <__func__.3>
8300bd14:	0a700593          	li	a1,167
8300bd18:	00002517          	auipc	a0,0x2
8300bd1c:	5d450513          	addi	a0,a0,1492 # 8300e2ec <keyname+0x180>
8300bd20:	ffffc097          	auipc	ra,0xffffc
8300bd24:	b2c080e7          	jalr	-1236(ra) # 8300784c <__assert_func>

8300bd28 <SDL_SetPalette>:
8300bd28:	ff010113          	addi	sp,sp,-16
8300bd2c:	00112623          	sw	ra,12(sp)
8300bd30:	00812423          	sw	s0,8(sp)
8300bd34:	00912223          	sw	s1,4(sp)
8300bd38:	01212023          	sw	s2,0(sp)
8300bd3c:	06050e63          	beqz	a0,8300bdb8 <SDL_SetPalette+0x90>
8300bd40:	00050913          	mv	s2,a0
8300bd44:	00060593          	mv	a1,a2
8300bd48:	00068413          	mv	s0,a3
8300bd4c:	00070493          	mv	s1,a4
8300bd50:	00452783          	lw	a5,4(a0)
8300bd54:	08078463          	beqz	a5,8300bddc <SDL_SetPalette+0xb4>
8300bd58:	0007a783          	lw	a5,0(a5)
8300bd5c:	0a078263          	beqz	a5,8300be00 <SDL_SetPalette+0xd8>
8300bd60:	0c069263          	bnez	a3,8300be24 <SDL_SetPalette+0xfc>
8300bd64:	00e7a023          	sw	a4,0(a5)
8300bd68:	00452783          	lw	a5,4(a0)
8300bd6c:	0007a783          	lw	a5,0(a5)
8300bd70:	00271613          	slli	a2,a4,0x2
8300bd74:	0047a503          	lw	a0,4(a5)
8300bd78:	ffffc097          	auipc	ra,0xffffc
8300bd7c:	7b0080e7          	jalr	1968(ra) # 83008528 <memcpy>
8300bd80:	00092783          	lw	a5,0(s2)
8300bd84:	0017f793          	andi	a5,a5,1
8300bd88:	0e078263          	beqz	a5,8300be6c <SDL_SetPalette+0x144>
8300bd8c:	10000793          	li	a5,256
8300bd90:	0af48e63          	beq	s1,a5,8300be4c <SDL_SetPalette+0x124>
8300bd94:	00002697          	auipc	a3,0x2
8300bd98:	6c868693          	addi	a3,a3,1736 # 8300e45c <keyname+0x2f0>
8300bd9c:	00003617          	auipc	a2,0x3
8300bda0:	84460613          	addi	a2,a2,-1980 # 8300e5e0 <__func__.2>
8300bda4:	0b500593          	li	a1,181
8300bda8:	00002517          	auipc	a0,0x2
8300bdac:	54450513          	addi	a0,a0,1348 # 8300e2ec <keyname+0x180>
8300bdb0:	ffffc097          	auipc	ra,0xffffc
8300bdb4:	a9c080e7          	jalr	-1380(ra) # 8300784c <__assert_func>
8300bdb8:	00001697          	auipc	a3,0x1
8300bdbc:	eb468693          	addi	a3,a3,-332 # 8300cc6c <__call_exitprocs+0x188>
8300bdc0:	00003617          	auipc	a2,0x3
8300bdc4:	82060613          	addi	a2,a2,-2016 # 8300e5e0 <__func__.2>
8300bdc8:	0ac00593          	li	a1,172
8300bdcc:	00002517          	auipc	a0,0x2
8300bdd0:	52050513          	addi	a0,a0,1312 # 8300e2ec <keyname+0x180>
8300bdd4:	ffffc097          	auipc	ra,0xffffc
8300bdd8:	a78080e7          	jalr	-1416(ra) # 8300784c <__assert_func>
8300bddc:	00002697          	auipc	a3,0x2
8300bde0:	5b068693          	addi	a3,a3,1456 # 8300e38c <keyname+0x220>
8300bde4:	00002617          	auipc	a2,0x2
8300bde8:	7fc60613          	addi	a2,a2,2044 # 8300e5e0 <__func__.2>
8300bdec:	0ad00593          	li	a1,173
8300bdf0:	00002517          	auipc	a0,0x2
8300bdf4:	4fc50513          	addi	a0,a0,1276 # 8300e2ec <keyname+0x180>
8300bdf8:	ffffc097          	auipc	ra,0xffffc
8300bdfc:	a54080e7          	jalr	-1452(ra) # 8300784c <__assert_func>
8300be00:	00002697          	auipc	a3,0x2
8300be04:	59868693          	addi	a3,a3,1432 # 8300e398 <keyname+0x22c>
8300be08:	00002617          	auipc	a2,0x2
8300be0c:	7d860613          	addi	a2,a2,2008 # 8300e5e0 <__func__.2>
8300be10:	0ae00593          	li	a1,174
8300be14:	00002517          	auipc	a0,0x2
8300be18:	4d850513          	addi	a0,a0,1240 # 8300e2ec <keyname+0x180>
8300be1c:	ffffc097          	auipc	ra,0xffffc
8300be20:	a30080e7          	jalr	-1488(ra) # 8300784c <__assert_func>
8300be24:	00002697          	auipc	a3,0x2
8300be28:	62868693          	addi	a3,a3,1576 # 8300e44c <keyname+0x2e0>
8300be2c:	00002617          	auipc	a2,0x2
8300be30:	7b460613          	addi	a2,a2,1972 # 8300e5e0 <__func__.2>
8300be34:	0af00593          	li	a1,175
8300be38:	00002517          	auipc	a0,0x2
8300be3c:	4b450513          	addi	a0,a0,1204 # 8300e2ec <keyname+0x180>
8300be40:	ffffc097          	auipc	ra,0xffffc
8300be44:	a0c080e7          	jalr	-1524(ra) # 8300784c <__assert_func>
8300be48:	00140413          	addi	s0,s0,1
8300be4c:	fe944ee3          	blt	s0,s1,8300be48 <SDL_SetPalette+0x120>
8300be50:	00000713          	li	a4,0
8300be54:	00000693          	li	a3,0
8300be58:	00000613          	li	a2,0
8300be5c:	00000593          	li	a1,0
8300be60:	00090513          	mv	a0,s2
8300be64:	fffff097          	auipc	ra,0xfffff
8300be68:	620080e7          	jalr	1568(ra) # 8300b484 <SDL_UpdateRect>
8300be6c:	00c12083          	lw	ra,12(sp)
8300be70:	00812403          	lw	s0,8(sp)
8300be74:	00412483          	lw	s1,4(sp)
8300be78:	00012903          	lw	s2,0(sp)
8300be7c:	01010113          	addi	sp,sp,16
8300be80:	00008067          	ret

8300be84 <SDL_ConvertSurface>:
8300be84:	ff010113          	addi	sp,sp,-16
8300be88:	00112623          	sw	ra,12(sp)
8300be8c:	00812423          	sw	s0,8(sp)
8300be90:	00912223          	sw	s1,4(sp)
8300be94:	01212023          	sw	s2,0(sp)
8300be98:	00050413          	mv	s0,a0
8300be9c:	00452783          	lw	a5,4(a0)
8300bea0:	0047c703          	lbu	a4,4(a5)
8300bea4:	02000693          	li	a3,32
8300bea8:	0ad71263          	bne	a4,a3,8300bf4c <SDL_ConvertSurface+0xc8>
8300beac:	00058493          	mv	s1,a1
8300beb0:	00060513          	mv	a0,a2
8300beb4:	00842583          	lw	a1,8(s0)
8300beb8:	0057c783          	lbu	a5,5(a5)
8300bebc:	02f587b3          	mul	a5,a1,a5
8300bec0:	01045683          	lhu	a3,16(s0)
8300bec4:	0ad79663          	bne	a5,a3,8300bf70 <SDL_ConvertSurface+0xec>
8300bec8:	0044c683          	lbu	a3,4(s1)
8300becc:	0cd71463          	bne	a4,a3,8300bf94 <SDL_ConvertSurface+0x110>
8300bed0:	01c4a883          	lw	a7,28(s1)
8300bed4:	0184a803          	lw	a6,24(s1)
8300bed8:	0144a783          	lw	a5,20(s1)
8300bedc:	0104a703          	lw	a4,16(s1)
8300bee0:	00c42603          	lw	a2,12(s0)
8300bee4:	fffff097          	auipc	ra,0xfffff
8300bee8:	670080e7          	jalr	1648(ra) # 8300b554 <SDL_CreateRGBSurface>
8300beec:	00050913          	mv	s2,a0
8300bef0:	0144a683          	lw	a3,20(s1)
8300bef4:	00442783          	lw	a5,4(s0)
8300bef8:	0147a703          	lw	a4,20(a5)
8300befc:	0ae69e63          	bne	a3,a4,8300bfb8 <SDL_ConvertSurface+0x134>
8300bf00:	01c4a703          	lw	a4,28(s1)
8300bf04:	00070863          	beqz	a4,8300bf14 <SDL_ConvertSurface+0x90>
8300bf08:	01c7a783          	lw	a5,28(a5)
8300bf0c:	00078463          	beqz	a5,8300bf14 <SDL_ConvertSurface+0x90>
8300bf10:	0cf71663          	bne	a4,a5,8300bfdc <SDL_ConvertSurface+0x158>
8300bf14:	00842603          	lw	a2,8(s0)
8300bf18:	00c42783          	lw	a5,12(s0)
8300bf1c:	02f60633          	mul	a2,a2,a5
8300bf20:	01442583          	lw	a1,20(s0)
8300bf24:	01492503          	lw	a0,20(s2)
8300bf28:	fffff097          	auipc	ra,0xfffff
8300bf2c:	0ec080e7          	jalr	236(ra) # 8300b014 <ConvertPixelsARGB_ABGR>
8300bf30:	00090513          	mv	a0,s2
8300bf34:	00c12083          	lw	ra,12(sp)
8300bf38:	00812403          	lw	s0,8(sp)
8300bf3c:	00412483          	lw	s1,4(sp)
8300bf40:	00012903          	lw	s2,0(sp)
8300bf44:	01010113          	addi	sp,sp,16
8300bf48:	00008067          	ret
8300bf4c:	00002697          	auipc	a3,0x2
8300bf50:	52068693          	addi	a3,a3,1312 # 8300e46c <keyname+0x300>
8300bf54:	00002617          	auipc	a2,0x2
8300bf58:	69c60613          	addi	a2,a2,1692 # 8300e5f0 <__func__.1>
8300bf5c:	0db00593          	li	a1,219
8300bf60:	00002517          	auipc	a0,0x2
8300bf64:	38c50513          	addi	a0,a0,908 # 8300e2ec <keyname+0x180>
8300bf68:	ffffc097          	auipc	ra,0xffffc
8300bf6c:	8e4080e7          	jalr	-1820(ra) # 8300784c <__assert_func>
8300bf70:	00002697          	auipc	a3,0x2
8300bf74:	51c68693          	addi	a3,a3,1308 # 8300e48c <keyname+0x320>
8300bf78:	00002617          	auipc	a2,0x2
8300bf7c:	67860613          	addi	a2,a2,1656 # 8300e5f0 <__func__.1>
8300bf80:	0dc00593          	li	a1,220
8300bf84:	00002517          	auipc	a0,0x2
8300bf88:	36850513          	addi	a0,a0,872 # 8300e2ec <keyname+0x180>
8300bf8c:	ffffc097          	auipc	ra,0xffffc
8300bf90:	8c0080e7          	jalr	-1856(ra) # 8300784c <__assert_func>
8300bf94:	00002697          	auipc	a3,0x2
8300bf98:	52c68693          	addi	a3,a3,1324 # 8300e4c0 <keyname+0x354>
8300bf9c:	00002617          	auipc	a2,0x2
8300bfa0:	65460613          	addi	a2,a2,1620 # 8300e5f0 <__func__.1>
8300bfa4:	0dd00593          	li	a1,221
8300bfa8:	00002517          	auipc	a0,0x2
8300bfac:	34450513          	addi	a0,a0,836 # 8300e2ec <keyname+0x180>
8300bfb0:	ffffc097          	auipc	ra,0xffffc
8300bfb4:	89c080e7          	jalr	-1892(ra) # 8300784c <__assert_func>
8300bfb8:	00002697          	auipc	a3,0x2
8300bfbc:	53868693          	addi	a3,a3,1336 # 8300e4f0 <keyname+0x384>
8300bfc0:	00002617          	auipc	a2,0x2
8300bfc4:	63060613          	addi	a2,a2,1584 # 8300e5f0 <__func__.1>
8300bfc8:	0e200593          	li	a1,226
8300bfcc:	00002517          	auipc	a0,0x2
8300bfd0:	32050513          	addi	a0,a0,800 # 8300e2ec <keyname+0x180>
8300bfd4:	ffffc097          	auipc	ra,0xffffc
8300bfd8:	878080e7          	jalr	-1928(ra) # 8300784c <__assert_func>
8300bfdc:	00002697          	auipc	a3,0x2
8300bfe0:	53868693          	addi	a3,a3,1336 # 8300e514 <keyname+0x3a8>
8300bfe4:	00002617          	auipc	a2,0x2
8300bfe8:	60c60613          	addi	a2,a2,1548 # 8300e5f0 <__func__.1>
8300bfec:	0e300593          	li	a1,227
8300bff0:	00002517          	auipc	a0,0x2
8300bff4:	2fc50513          	addi	a0,a0,764 # 8300e2ec <keyname+0x180>
8300bff8:	ffffc097          	auipc	ra,0xffffc
8300bffc:	854080e7          	jalr	-1964(ra) # 8300784c <__assert_func>

8300c000 <SDL_MapRGBA>:
8300c000:	00050793          	mv	a5,a0
8300c004:	00554803          	lbu	a6,5(a0)
8300c008:	00400513          	li	a0,4
8300c00c:	02a81e63          	bne	a6,a0,8300c048 <SDL_MapRGBA+0x48>
8300c010:	00a7c503          	lbu	a0,10(a5)
8300c014:	00a595b3          	sll	a1,a1,a0
8300c018:	00b7c503          	lbu	a0,11(a5)
8300c01c:	00a61633          	sll	a2,a2,a0
8300c020:	00c5e5b3          	or	a1,a1,a2
8300c024:	00c7c603          	lbu	a2,12(a5)
8300c028:	00c696b3          	sll	a3,a3,a2
8300c02c:	00d5e533          	or	a0,a1,a3
8300c030:	01c7a683          	lw	a3,28(a5)
8300c034:	00068863          	beqz	a3,8300c044 <SDL_MapRGBA+0x44>
8300c038:	00d7c783          	lbu	a5,13(a5)
8300c03c:	00f71733          	sll	a4,a4,a5
8300c040:	00e56533          	or	a0,a0,a4
8300c044:	00008067          	ret
8300c048:	ff010113          	addi	sp,sp,-16
8300c04c:	00112623          	sw	ra,12(sp)
8300c050:	00002697          	auipc	a3,0x2
8300c054:	51868693          	addi	a3,a3,1304 # 8300e568 <keyname+0x3fc>
8300c058:	00002617          	auipc	a2,0x2
8300c05c:	5ac60613          	addi	a2,a2,1452 # 8300e604 <__func__.0>
8300c060:	0ea00593          	li	a1,234
8300c064:	00002517          	auipc	a0,0x2
8300c068:	28850513          	addi	a0,a0,648 # 8300e2ec <keyname+0x180>
8300c06c:	ffffb097          	auipc	ra,0xffffb
8300c070:	7e0080e7          	jalr	2016(ra) # 8300784c <__assert_func>

8300c074 <SDL_LockSurface>:
8300c074:	00000513          	li	a0,0
8300c078:	00008067          	ret

8300c07c <SDL_UnlockSurface>:
8300c07c:	00008067          	ret

8300c080 <NDL_GetTicks>:
8300c080:	fe010113          	addi	sp,sp,-32
8300c084:	00112e23          	sw	ra,28(sp)
8300c088:	00000593          	li	a1,0
8300c08c:	00810513          	addi	a0,sp,8
8300c090:	00001097          	auipc	ra,0x1
8300c094:	86c080e7          	jalr	-1940(ra) # 8300c8fc <gettimeofday>
8300c098:	00812783          	lw	a5,8(sp)
8300c09c:	000f4737          	lui	a4,0xf4
8300c0a0:	24070713          	addi	a4,a4,576 # f4240 <_ZL9set_i_maxv-0x82f0be74>
8300c0a4:	02e787b3          	mul	a5,a5,a4
8300c0a8:	00c12503          	lw	a0,12(sp)
8300c0ac:	00a78533          	add	a0,a5,a0
8300c0b0:	01c12083          	lw	ra,28(sp)
8300c0b4:	02010113          	addi	sp,sp,32
8300c0b8:	00008067          	ret

8300c0bc <NDL_PollEvent>:
8300c0bc:	ff010113          	addi	sp,sp,-16
8300c0c0:	00112623          	sw	ra,12(sp)
8300c0c4:	00058613          	mv	a2,a1
8300c0c8:	00050593          	mv	a1,a0
8300c0cc:	00300513          	li	a0,3
8300c0d0:	00001097          	auipc	ra,0x1
8300c0d4:	8b0080e7          	jalr	-1872(ra) # 8300c980 <read>
8300c0d8:	00c12083          	lw	ra,12(sp)
8300c0dc:	01010113          	addi	sp,sp,16
8300c0e0:	00008067          	ret

8300c0e4 <NDL_OpenCanvas>:
8300c0e4:	fb010113          	addi	sp,sp,-80
8300c0e8:	04112623          	sw	ra,76(sp)
8300c0ec:	04812423          	sw	s0,72(sp)
8300c0f0:	04912223          	sw	s1,68(sp)
8300c0f4:	00058413          	mv	s0,a1
8300c0f8:	00052783          	lw	a5,0(a0)
8300c0fc:	00079863          	bnez	a5,8300c10c <NDL_OpenCanvas+0x28>
8300c100:	00050493          	mv	s1,a0
8300c104:	0005a703          	lw	a4,0(a1)
8300c108:	0a070663          	beqz	a4,8300c1b4 <NDL_OpenCanvas+0xd0>
8300c10c:	00004717          	auipc	a4,0x4
8300c110:	9cf72623          	sw	a5,-1588(a4) # 8300fad8 <screen_w>
8300c114:	00042783          	lw	a5,0(s0)
8300c118:	00004717          	auipc	a4,0x4
8300c11c:	9af72e23          	sw	a5,-1604(a4) # 8300fad4 <screen_h>
8300c120:	00004697          	auipc	a3,0x4
8300c124:	9b46a683          	lw	a3,-1612(a3) # 8300fad4 <screen_h>
8300c128:	00004617          	auipc	a2,0x4
8300c12c:	9b062603          	lw	a2,-1616(a2) # 8300fad8 <screen_w>
8300c130:	00002597          	auipc	a1,0x2
8300c134:	4e058593          	addi	a1,a1,1248 # 8300e610 <__func__.0+0xc>
8300c138:	00010513          	mv	a0,sp
8300c13c:	ffff5097          	auipc	ra,0xffff5
8300c140:	28c080e7          	jalr	652(ra) # 830013c8 <sprintf>
8300c144:	00050613          	mv	a2,a0
8300c148:	00010593          	mv	a1,sp
8300c14c:	00400513          	li	a0,4
8300c150:	00000097          	auipc	ra,0x0
8300c154:	724080e7          	jalr	1828(ra) # 8300c874 <write>
8300c158:	03f00613          	li	a2,63
8300c15c:	00010593          	mv	a1,sp
8300c160:	00300513          	li	a0,3
8300c164:	00001097          	auipc	ra,0x1
8300c168:	81c080e7          	jalr	-2020(ra) # 8300c980 <read>
8300c16c:	fea056e3          	blez	a0,8300c158 <NDL_OpenCanvas+0x74>
8300c170:	04050793          	addi	a5,a0,64
8300c174:	00278533          	add	a0,a5,sp
8300c178:	fc050023          	sb	zero,-64(a0)
8300c17c:	00002597          	auipc	a1,0x2
8300c180:	49c58593          	addi	a1,a1,1180 # 8300e618 <__func__.0+0x14>
8300c184:	00010513          	mv	a0,sp
8300c188:	ffff5097          	auipc	ra,0xffff5
8300c18c:	e40080e7          	jalr	-448(ra) # 83000fc8 <strcmp>
8300c190:	fc0514e3          	bnez	a0,8300c158 <NDL_OpenCanvas+0x74>
8300c194:	00400513          	li	a0,4
8300c198:	00000097          	auipc	ra,0x0
8300c19c:	7c0080e7          	jalr	1984(ra) # 8300c958 <close>
8300c1a0:	04c12083          	lw	ra,76(sp)
8300c1a4:	04812403          	lw	s0,72(sp)
8300c1a8:	04412483          	lw	s1,68(sp)
8300c1ac:	05010113          	addi	sp,sp,80
8300c1b0:	00008067          	ret
8300c1b4:	04000613          	li	a2,64
8300c1b8:	00010593          	mv	a1,sp
8300c1bc:	00600513          	li	a0,6
8300c1c0:	00000097          	auipc	ra,0x0
8300c1c4:	7c0080e7          	jalr	1984(ra) # 8300c980 <read>
8300c1c8:	00600513          	li	a0,6
8300c1cc:	00000097          	auipc	ra,0x0
8300c1d0:	78c080e7          	jalr	1932(ra) # 8300c958 <close>
8300c1d4:	00004697          	auipc	a3,0x4
8300c1d8:	90068693          	addi	a3,a3,-1792 # 8300fad4 <screen_h>
8300c1dc:	00004617          	auipc	a2,0x4
8300c1e0:	8fc60613          	addi	a2,a2,-1796 # 8300fad8 <screen_w>
8300c1e4:	00002597          	auipc	a1,0x2
8300c1e8:	42c58593          	addi	a1,a1,1068 # 8300e610 <__func__.0+0xc>
8300c1ec:	00010513          	mv	a0,sp
8300c1f0:	ffff5097          	auipc	ra,0xffff5
8300c1f4:	03c080e7          	jalr	60(ra) # 8300122c <sscanf>
8300c1f8:	00004797          	auipc	a5,0x4
8300c1fc:	8e07a783          	lw	a5,-1824(a5) # 8300fad8 <screen_w>
8300c200:	00f4a023          	sw	a5,0(s1)
8300c204:	00004797          	auipc	a5,0x4
8300c208:	8d07a783          	lw	a5,-1840(a5) # 8300fad4 <screen_h>
8300c20c:	00f42023          	sw	a5,0(s0)
8300c210:	f11ff06f          	j	8300c120 <NDL_OpenCanvas+0x3c>

8300c214 <NDL_DrawRect>:
8300c214:	fe010113          	addi	sp,sp,-32
8300c218:	00112e23          	sw	ra,28(sp)
8300c21c:	00812c23          	sw	s0,24(sp)
8300c220:	00912a23          	sw	s1,20(sp)
8300c224:	01212823          	sw	s2,16(sp)
8300c228:	01312623          	sw	s3,12(sp)
8300c22c:	01412423          	sw	s4,8(sp)
8300c230:	01512223          	sw	s5,4(sp)
8300c234:	01612023          	sw	s6,0(sp)
8300c238:	00050493          	mv	s1,a0
8300c23c:	00c5e7b3          	or	a5,a1,a2
8300c240:	00d7e7b3          	or	a5,a5,a3
8300c244:	00e7e7b3          	or	a5,a5,a4
8300c248:	00078e63          	beqz	a5,8300c264 <NDL_DrawRect+0x50>
8300c24c:	00058a13          	mv	s4,a1
8300c250:	00060a93          	mv	s5,a2
8300c254:	00068b13          	mv	s6,a3
8300c258:	00070993          	mv	s3,a4
8300c25c:	00000413          	li	s0,0
8300c260:	0780006f          	j	8300c2d8 <NDL_DrawRect+0xc4>
8300c264:	00004617          	auipc	a2,0x4
8300c268:	87462603          	lw	a2,-1932(a2) # 8300fad8 <screen_w>
8300c26c:	00004797          	auipc	a5,0x4
8300c270:	8687a783          	lw	a5,-1944(a5) # 8300fad4 <screen_h>
8300c274:	02f60633          	mul	a2,a2,a5
8300c278:	00261613          	slli	a2,a2,0x2
8300c27c:	00050593          	mv	a1,a0
8300c280:	00500513          	li	a0,5
8300c284:	00000097          	auipc	ra,0x0
8300c288:	5f0080e7          	jalr	1520(ra) # 8300c874 <write>
8300c28c:	0500006f          	j	8300c2dc <NDL_DrawRect+0xc8>
8300c290:	014405b3          	add	a1,s0,s4
8300c294:	00004797          	auipc	a5,0x4
8300c298:	8447a783          	lw	a5,-1980(a5) # 8300fad8 <screen_w>
8300c29c:	02f585b3          	mul	a1,a1,a5
8300c2a0:	015585b3          	add	a1,a1,s5
8300c2a4:	00000613          	li	a2,0
8300c2a8:	00259593          	slli	a1,a1,0x2
8300c2ac:	00500513          	li	a0,5
8300c2b0:	00000097          	auipc	ra,0x0
8300c2b4:	678080e7          	jalr	1656(ra) # 8300c928 <lseek>
8300c2b8:	002b1913          	slli	s2,s6,0x2
8300c2bc:	00090613          	mv	a2,s2
8300c2c0:	00048593          	mv	a1,s1
8300c2c4:	00500513          	li	a0,5
8300c2c8:	00000097          	auipc	ra,0x0
8300c2cc:	5ac080e7          	jalr	1452(ra) # 8300c874 <write>
8300c2d0:	012484b3          	add	s1,s1,s2
8300c2d4:	00140413          	addi	s0,s0,1
8300c2d8:	fb344ce3          	blt	s0,s3,8300c290 <NDL_DrawRect+0x7c>
8300c2dc:	01c12083          	lw	ra,28(sp)
8300c2e0:	01812403          	lw	s0,24(sp)
8300c2e4:	01412483          	lw	s1,20(sp)
8300c2e8:	01012903          	lw	s2,16(sp)
8300c2ec:	00c12983          	lw	s3,12(sp)
8300c2f0:	00812a03          	lw	s4,8(sp)
8300c2f4:	00412a83          	lw	s5,4(sp)
8300c2f8:	00012b03          	lw	s6,0(sp)
8300c2fc:	02010113          	addi	sp,sp,32
8300c300:	00008067          	ret

8300c304 <NDL_OpenAudio>:
8300c304:	fe010113          	addi	sp,sp,-32
8300c308:	00112e23          	sw	ra,28(sp)
8300c30c:	00a12223          	sw	a0,4(sp)
8300c310:	00b12423          	sw	a1,8(sp)
8300c314:	00c12623          	sw	a2,12(sp)
8300c318:	00c00613          	li	a2,12
8300c31c:	00410593          	addi	a1,sp,4
8300c320:	00700513          	li	a0,7
8300c324:	00000097          	auipc	ra,0x0
8300c328:	550080e7          	jalr	1360(ra) # 8300c874 <write>
8300c32c:	01c12083          	lw	ra,28(sp)
8300c330:	02010113          	addi	sp,sp,32
8300c334:	00008067          	ret

8300c338 <NDL_CloseAudio>:
8300c338:	00008067          	ret

8300c33c <NDL_PlayAudio>:
8300c33c:	ff010113          	addi	sp,sp,-16
8300c340:	00112623          	sw	ra,12(sp)
8300c344:	00058613          	mv	a2,a1
8300c348:	00050593          	mv	a1,a0
8300c34c:	00800513          	li	a0,8
8300c350:	00000097          	auipc	ra,0x0
8300c354:	524080e7          	jalr	1316(ra) # 8300c874 <write>
8300c358:	00c12083          	lw	ra,12(sp)
8300c35c:	01010113          	addi	sp,sp,16
8300c360:	00008067          	ret

8300c364 <NDL_QueryAudio>:
8300c364:	fe010113          	addi	sp,sp,-32
8300c368:	00112e23          	sw	ra,28(sp)
8300c36c:	00400613          	li	a2,4
8300c370:	00c10593          	addi	a1,sp,12
8300c374:	00700513          	li	a0,7
8300c378:	00000097          	auipc	ra,0x0
8300c37c:	608080e7          	jalr	1544(ra) # 8300c980 <read>
8300c380:	00c12503          	lw	a0,12(sp)
8300c384:	01c12083          	lw	ra,28(sp)
8300c388:	02010113          	addi	sp,sp,32
8300c38c:	00008067          	ret

8300c390 <NDL_Init>:
8300c390:	00000513          	li	a0,0
8300c394:	00008067          	ret

8300c398 <NDL_Quit>:
8300c398:	00008067          	ret

8300c39c <_syscall_>:
8300c39c:	00050893          	mv	a7,a0
8300c3a0:	00058513          	mv	a0,a1
8300c3a4:	00060593          	mv	a1,a2
8300c3a8:	00068613          	mv	a2,a3
8300c3ac:	00000073          	ecall
8300c3b0:	00008067          	ret

8300c3b4 <_exit>:
8300c3b4:	ff010113          	addi	sp,sp,-16
8300c3b8:	00112623          	sw	ra,12(sp)
8300c3bc:	00050593          	mv	a1,a0
8300c3c0:	00000693          	li	a3,0
8300c3c4:	00000613          	li	a2,0
8300c3c8:	00000513          	li	a0,0
8300c3cc:	00000097          	auipc	ra,0x0
8300c3d0:	fd0080e7          	jalr	-48(ra) # 8300c39c <_syscall_>
8300c3d4:	0000006f          	j	8300c3d4 <_exit+0x20>

8300c3d8 <_open>:
8300c3d8:	ff010113          	addi	sp,sp,-16
8300c3dc:	00112623          	sw	ra,12(sp)
8300c3e0:	00060693          	mv	a3,a2
8300c3e4:	00058613          	mv	a2,a1
8300c3e8:	00050593          	mv	a1,a0
8300c3ec:	00200513          	li	a0,2
8300c3f0:	00000097          	auipc	ra,0x0
8300c3f4:	fac080e7          	jalr	-84(ra) # 8300c39c <_syscall_>
8300c3f8:	00c12083          	lw	ra,12(sp)
8300c3fc:	01010113          	addi	sp,sp,16
8300c400:	00008067          	ret

8300c404 <_write>:
8300c404:	ff010113          	addi	sp,sp,-16
8300c408:	00112623          	sw	ra,12(sp)
8300c40c:	00060693          	mv	a3,a2
8300c410:	00058613          	mv	a2,a1
8300c414:	00050593          	mv	a1,a0
8300c418:	00400513          	li	a0,4
8300c41c:	00000097          	auipc	ra,0x0
8300c420:	f80080e7          	jalr	-128(ra) # 8300c39c <_syscall_>
8300c424:	00c12083          	lw	ra,12(sp)
8300c428:	01010113          	addi	sp,sp,16
8300c42c:	00008067          	ret

8300c430 <_sbrk>:
8300c430:	ff010113          	addi	sp,sp,-16
8300c434:	00112623          	sw	ra,12(sp)
8300c438:	00812423          	sw	s0,8(sp)
8300c43c:	00050413          	mv	s0,a0
8300c440:	00000693          	li	a3,0
8300c444:	00000613          	li	a2,0
8300c448:	00000593          	li	a1,0
8300c44c:	00900513          	li	a0,9
8300c450:	00000097          	auipc	ra,0x0
8300c454:	f4c080e7          	jalr	-180(ra) # 8300c39c <_syscall_>
8300c458:	02051463          	bnez	a0,8300c480 <_sbrk+0x50>
8300c45c:	00003797          	auipc	a5,0x3
8300c460:	63078793          	addi	a5,a5,1584 # 8300fa8c <brk.12>
8300c464:	0007a503          	lw	a0,0(a5)
8300c468:	00850433          	add	s0,a0,s0
8300c46c:	0087a023          	sw	s0,0(a5)
8300c470:	00c12083          	lw	ra,12(sp)
8300c474:	00812403          	lw	s0,8(sp)
8300c478:	01010113          	addi	sp,sp,16
8300c47c:	00008067          	ret
8300c480:	fff00513          	li	a0,-1
8300c484:	fedff06f          	j	8300c470 <_sbrk+0x40>

8300c488 <_read>:
8300c488:	ff010113          	addi	sp,sp,-16
8300c48c:	00112623          	sw	ra,12(sp)
8300c490:	00060693          	mv	a3,a2
8300c494:	00058613          	mv	a2,a1
8300c498:	00050593          	mv	a1,a0
8300c49c:	00300513          	li	a0,3
8300c4a0:	00000097          	auipc	ra,0x0
8300c4a4:	efc080e7          	jalr	-260(ra) # 8300c39c <_syscall_>
8300c4a8:	00c12083          	lw	ra,12(sp)
8300c4ac:	01010113          	addi	sp,sp,16
8300c4b0:	00008067          	ret

8300c4b4 <_close>:
8300c4b4:	ff010113          	addi	sp,sp,-16
8300c4b8:	00112623          	sw	ra,12(sp)
8300c4bc:	00050593          	mv	a1,a0
8300c4c0:	00000693          	li	a3,0
8300c4c4:	00000613          	li	a2,0
8300c4c8:	00700513          	li	a0,7
8300c4cc:	00000097          	auipc	ra,0x0
8300c4d0:	ed0080e7          	jalr	-304(ra) # 8300c39c <_syscall_>
8300c4d4:	00c12083          	lw	ra,12(sp)
8300c4d8:	01010113          	addi	sp,sp,16
8300c4dc:	00008067          	ret

8300c4e0 <_lseek>:
8300c4e0:	ff010113          	addi	sp,sp,-16
8300c4e4:	00112623          	sw	ra,12(sp)
8300c4e8:	00060693          	mv	a3,a2
8300c4ec:	00058613          	mv	a2,a1
8300c4f0:	00050593          	mv	a1,a0
8300c4f4:	00800513          	li	a0,8
8300c4f8:	00000097          	auipc	ra,0x0
8300c4fc:	ea4080e7          	jalr	-348(ra) # 8300c39c <_syscall_>
8300c500:	00c12083          	lw	ra,12(sp)
8300c504:	01010113          	addi	sp,sp,16
8300c508:	00008067          	ret

8300c50c <_gettimeofday>:
8300c50c:	ff010113          	addi	sp,sp,-16
8300c510:	00112623          	sw	ra,12(sp)
8300c514:	00058613          	mv	a2,a1
8300c518:	00000693          	li	a3,0
8300c51c:	00050593          	mv	a1,a0
8300c520:	01300513          	li	a0,19
8300c524:	00000097          	auipc	ra,0x0
8300c528:	e78080e7          	jalr	-392(ra) # 8300c39c <_syscall_>
8300c52c:	00c12083          	lw	ra,12(sp)
8300c530:	01010113          	addi	sp,sp,16
8300c534:	00008067          	ret

8300c538 <_execve>:
8300c538:	ff010113          	addi	sp,sp,-16
8300c53c:	00112623          	sw	ra,12(sp)
8300c540:	00060693          	mv	a3,a2
8300c544:	00058613          	mv	a2,a1
8300c548:	00050593          	mv	a1,a0
8300c54c:	00d00513          	li	a0,13
8300c550:	00000097          	auipc	ra,0x0
8300c554:	e4c080e7          	jalr	-436(ra) # 8300c39c <_syscall_>
8300c558:	00c12083          	lw	ra,12(sp)
8300c55c:	01010113          	addi	sp,sp,16
8300c560:	00008067          	ret

8300c564 <_ioe_read>:
8300c564:	ff010113          	addi	sp,sp,-16
8300c568:	00112623          	sw	ra,12(sp)
8300c56c:	00058613          	mv	a2,a1
8300c570:	00000693          	li	a3,0
8300c574:	00050593          	mv	a1,a0
8300c578:	01400513          	li	a0,20
8300c57c:	00000097          	auipc	ra,0x0
8300c580:	e20080e7          	jalr	-480(ra) # 8300c39c <_syscall_>
8300c584:	00000513          	li	a0,0
8300c588:	00c12083          	lw	ra,12(sp)
8300c58c:	01010113          	addi	sp,sp,16
8300c590:	00008067          	ret

8300c594 <_ioe_write>:
8300c594:	ff010113          	addi	sp,sp,-16
8300c598:	00112623          	sw	ra,12(sp)
8300c59c:	00058613          	mv	a2,a1
8300c5a0:	00000693          	li	a3,0
8300c5a4:	00050593          	mv	a1,a0
8300c5a8:	01500513          	li	a0,21
8300c5ac:	00000097          	auipc	ra,0x0
8300c5b0:	df0080e7          	jalr	-528(ra) # 8300c39c <_syscall_>
8300c5b4:	00000513          	li	a0,0
8300c5b8:	00c12083          	lw	ra,12(sp)
8300c5bc:	01010113          	addi	sp,sp,16
8300c5c0:	00008067          	ret

8300c5c4 <_fstat>:
8300c5c4:	fff00513          	li	a0,-1
8300c5c8:	00008067          	ret

8300c5cc <_stat>:
8300c5cc:	ff010113          	addi	sp,sp,-16
8300c5d0:	00112623          	sw	ra,12(sp)
8300c5d4:	00001697          	auipc	a3,0x1
8300c5d8:	56c68693          	addi	a3,a3,1388 # 8300db40 <zeroes.0+0x10>
8300c5dc:	00003617          	auipc	a2,0x3
8300c5e0:	49860613          	addi	a2,a2,1176 # 8300fa74 <__func__.11>
8300c5e4:	07c00593          	li	a1,124
8300c5e8:	00002517          	auipc	a0,0x2
8300c5ec:	03850513          	addi	a0,a0,56 # 8300e620 <__func__.0+0x1c>
8300c5f0:	ffffb097          	auipc	ra,0xffffb
8300c5f4:	25c080e7          	jalr	604(ra) # 8300784c <__assert_func>

8300c5f8 <_kill>:
8300c5f8:	ff010113          	addi	sp,sp,-16
8300c5fc:	00112623          	sw	ra,12(sp)
8300c600:	ffb00513          	li	a0,-5
8300c604:	00000097          	auipc	ra,0x0
8300c608:	db0080e7          	jalr	-592(ra) # 8300c3b4 <_exit>

8300c60c <_getpid>:
8300c60c:	ff010113          	addi	sp,sp,-16
8300c610:	00112623          	sw	ra,12(sp)
8300c614:	ffa00513          	li	a0,-6
8300c618:	00000097          	auipc	ra,0x0
8300c61c:	d9c080e7          	jalr	-612(ra) # 8300c3b4 <_exit>

8300c620 <_fork>:
8300c620:	ff010113          	addi	sp,sp,-16
8300c624:	00112623          	sw	ra,12(sp)
8300c628:	00001697          	auipc	a3,0x1
8300c62c:	51868693          	addi	a3,a3,1304 # 8300db40 <zeroes.0+0x10>
8300c630:	00003617          	auipc	a2,0x3
8300c634:	43c60613          	addi	a2,a2,1084 # 8300fa6c <__func__.10>
8300c638:	08b00593          	li	a1,139
8300c63c:	00002517          	auipc	a0,0x2
8300c640:	fe450513          	addi	a0,a0,-28 # 8300e620 <__func__.0+0x1c>
8300c644:	ffffb097          	auipc	ra,0xffffb
8300c648:	208080e7          	jalr	520(ra) # 8300784c <__assert_func>

8300c64c <vfork>:
8300c64c:	ff010113          	addi	sp,sp,-16
8300c650:	00112623          	sw	ra,12(sp)
8300c654:	00001697          	auipc	a3,0x1
8300c658:	4ec68693          	addi	a3,a3,1260 # 8300db40 <zeroes.0+0x10>
8300c65c:	00003617          	auipc	a2,0x3
8300c660:	40860613          	addi	a2,a2,1032 # 8300fa64 <__func__.9>
8300c664:	09000593          	li	a1,144
8300c668:	00002517          	auipc	a0,0x2
8300c66c:	fb850513          	addi	a0,a0,-72 # 8300e620 <__func__.0+0x1c>
8300c670:	ffffb097          	auipc	ra,0xffffb
8300c674:	1dc080e7          	jalr	476(ra) # 8300784c <__assert_func>

8300c678 <_link>:
8300c678:	ff010113          	addi	sp,sp,-16
8300c67c:	00112623          	sw	ra,12(sp)
8300c680:	00001697          	auipc	a3,0x1
8300c684:	4c068693          	addi	a3,a3,1216 # 8300db40 <zeroes.0+0x10>
8300c688:	00003617          	auipc	a2,0x3
8300c68c:	3d460613          	addi	a2,a2,980 # 8300fa5c <__func__.8>
8300c690:	09500593          	li	a1,149
8300c694:	00002517          	auipc	a0,0x2
8300c698:	f8c50513          	addi	a0,a0,-116 # 8300e620 <__func__.0+0x1c>
8300c69c:	ffffb097          	auipc	ra,0xffffb
8300c6a0:	1b0080e7          	jalr	432(ra) # 8300784c <__assert_func>

8300c6a4 <_unlink>:
8300c6a4:	ff010113          	addi	sp,sp,-16
8300c6a8:	00112623          	sw	ra,12(sp)
8300c6ac:	00001697          	auipc	a3,0x1
8300c6b0:	49468693          	addi	a3,a3,1172 # 8300db40 <zeroes.0+0x10>
8300c6b4:	00003617          	auipc	a2,0x3
8300c6b8:	3a060613          	addi	a2,a2,928 # 8300fa54 <__func__.7>
8300c6bc:	09a00593          	li	a1,154
8300c6c0:	00002517          	auipc	a0,0x2
8300c6c4:	f6050513          	addi	a0,a0,-160 # 8300e620 <__func__.0+0x1c>
8300c6c8:	ffffb097          	auipc	ra,0xffffb
8300c6cc:	184080e7          	jalr	388(ra) # 8300784c <__assert_func>

8300c6d0 <_wait>:
8300c6d0:	ff010113          	addi	sp,sp,-16
8300c6d4:	00112623          	sw	ra,12(sp)
8300c6d8:	00001697          	auipc	a3,0x1
8300c6dc:	46868693          	addi	a3,a3,1128 # 8300db40 <zeroes.0+0x10>
8300c6e0:	00003617          	auipc	a2,0x3
8300c6e4:	36c60613          	addi	a2,a2,876 # 8300fa4c <__func__.6>
8300c6e8:	09f00593          	li	a1,159
8300c6ec:	00002517          	auipc	a0,0x2
8300c6f0:	f3450513          	addi	a0,a0,-204 # 8300e620 <__func__.0+0x1c>
8300c6f4:	ffffb097          	auipc	ra,0xffffb
8300c6f8:	158080e7          	jalr	344(ra) # 8300784c <__assert_func>

8300c6fc <_times>:
8300c6fc:	ff010113          	addi	sp,sp,-16
8300c700:	00112623          	sw	ra,12(sp)
8300c704:	00001697          	auipc	a3,0x1
8300c708:	43c68693          	addi	a3,a3,1084 # 8300db40 <zeroes.0+0x10>
8300c70c:	00003617          	auipc	a2,0x3
8300c710:	33860613          	addi	a2,a2,824 # 8300fa44 <__func__.5>
8300c714:	0a400593          	li	a1,164
8300c718:	00002517          	auipc	a0,0x2
8300c71c:	f0850513          	addi	a0,a0,-248 # 8300e620 <__func__.0+0x1c>
8300c720:	ffffb097          	auipc	ra,0xffffb
8300c724:	12c080e7          	jalr	300(ra) # 8300784c <__assert_func>

8300c728 <pipe>:
8300c728:	ff010113          	addi	sp,sp,-16
8300c72c:	00112623          	sw	ra,12(sp)
8300c730:	00001697          	auipc	a3,0x1
8300c734:	41068693          	addi	a3,a3,1040 # 8300db40 <zeroes.0+0x10>
8300c738:	00003617          	auipc	a2,0x3
8300c73c:	30460613          	addi	a2,a2,772 # 8300fa3c <__func__.4>
8300c740:	0a900593          	li	a1,169
8300c744:	00002517          	auipc	a0,0x2
8300c748:	edc50513          	addi	a0,a0,-292 # 8300e620 <__func__.0+0x1c>
8300c74c:	ffffb097          	auipc	ra,0xffffb
8300c750:	100080e7          	jalr	256(ra) # 8300784c <__assert_func>

8300c754 <dup>:
8300c754:	ff010113          	addi	sp,sp,-16
8300c758:	00112623          	sw	ra,12(sp)
8300c75c:	00001697          	auipc	a3,0x1
8300c760:	3e468693          	addi	a3,a3,996 # 8300db40 <zeroes.0+0x10>
8300c764:	00003617          	auipc	a2,0x3
8300c768:	2d460613          	addi	a2,a2,724 # 8300fa38 <__func__.3>
8300c76c:	0ae00593          	li	a1,174
8300c770:	00002517          	auipc	a0,0x2
8300c774:	eb050513          	addi	a0,a0,-336 # 8300e620 <__func__.0+0x1c>
8300c778:	ffffb097          	auipc	ra,0xffffb
8300c77c:	0d4080e7          	jalr	212(ra) # 8300784c <__assert_func>

8300c780 <dup2>:
8300c780:	fff00513          	li	a0,-1
8300c784:	00008067          	ret

8300c788 <sleep>:
8300c788:	ff010113          	addi	sp,sp,-16
8300c78c:	00112623          	sw	ra,12(sp)
8300c790:	00001697          	auipc	a3,0x1
8300c794:	3b068693          	addi	a3,a3,944 # 8300db40 <zeroes.0+0x10>
8300c798:	00003617          	auipc	a2,0x3
8300c79c:	29860613          	addi	a2,a2,664 # 8300fa30 <__func__.2>
8300c7a0:	0b700593          	li	a1,183
8300c7a4:	00002517          	auipc	a0,0x2
8300c7a8:	e7c50513          	addi	a0,a0,-388 # 8300e620 <__func__.0+0x1c>
8300c7ac:	ffffb097          	auipc	ra,0xffffb
8300c7b0:	0a0080e7          	jalr	160(ra) # 8300784c <__assert_func>

8300c7b4 <readlink>:
8300c7b4:	ff010113          	addi	sp,sp,-16
8300c7b8:	00112623          	sw	ra,12(sp)
8300c7bc:	00001697          	auipc	a3,0x1
8300c7c0:	38468693          	addi	a3,a3,900 # 8300db40 <zeroes.0+0x10>
8300c7c4:	00002617          	auipc	a2,0x2
8300c7c8:	ea460613          	addi	a2,a2,-348 # 8300e668 <__func__.1>
8300c7cc:	0bc00593          	li	a1,188
8300c7d0:	00002517          	auipc	a0,0x2
8300c7d4:	e5050513          	addi	a0,a0,-432 # 8300e620 <__func__.0+0x1c>
8300c7d8:	ffffb097          	auipc	ra,0xffffb
8300c7dc:	074080e7          	jalr	116(ra) # 8300784c <__assert_func>

8300c7e0 <symlink>:
8300c7e0:	ff010113          	addi	sp,sp,-16
8300c7e4:	00112623          	sw	ra,12(sp)
8300c7e8:	00001697          	auipc	a3,0x1
8300c7ec:	35868693          	addi	a3,a3,856 # 8300db40 <zeroes.0+0x10>
8300c7f0:	00003617          	auipc	a2,0x3
8300c7f4:	23860613          	addi	a2,a2,568 # 8300fa28 <__func__.0>
8300c7f8:	0c100593          	li	a1,193
8300c7fc:	00002517          	auipc	a0,0x2
8300c800:	e2450513          	addi	a0,a0,-476 # 8300e620 <__func__.0+0x1c>
8300c804:	ffffb097          	auipc	ra,0xffffb
8300c808:	048080e7          	jalr	72(ra) # 8300784c <__assert_func>

8300c80c <ioctl>:
8300c80c:	fe010113          	addi	sp,sp,-32
8300c810:	00c12423          	sw	a2,8(sp)
8300c814:	00d12623          	sw	a3,12(sp)
8300c818:	00e12823          	sw	a4,16(sp)
8300c81c:	00f12a23          	sw	a5,20(sp)
8300c820:	01012c23          	sw	a6,24(sp)
8300c824:	01112e23          	sw	a7,28(sp)
8300c828:	fff00513          	li	a0,-1
8300c82c:	02010113          	addi	sp,sp,32
8300c830:	00008067          	ret

8300c834 <_start>:
8300c834:	00000413          	li	s0,0
8300c838:	00050113          	mv	sp,a0
8300c83c:	1c8000ef          	jal	ra,8300ca04 <__libc_init_array>
8300c840:	004000ef          	jal	ra,8300c844 <call_main>

8300c844 <call_main>:
8300c844:	fe010113          	addi	sp,sp,-32
8300c848:	00112e23          	sw	ra,28(sp)
8300c84c:	00012623          	sw	zero,12(sp)
8300c850:	00c10593          	addi	a1,sp,12
8300c854:	00003797          	auipc	a5,0x3
8300c858:	22b7ae23          	sw	a1,572(a5) # 8300fa90 <environ>
8300c85c:	00058613          	mv	a2,a1
8300c860:	00000513          	li	a0,0
8300c864:	ffff4097          	auipc	ra,0xffff4
8300c868:	cac080e7          	jalr	-852(ra) # 83000510 <main>
8300c86c:	00000097          	auipc	ra,0x0
8300c870:	23c080e7          	jalr	572(ra) # 8300caa8 <exit>

8300c874 <write>:
8300c874:	ff010113          	addi	sp,sp,-16
8300c878:	00112623          	sw	ra,12(sp)
8300c87c:	00060693          	mv	a3,a2
8300c880:	00058613          	mv	a2,a1
8300c884:	00050593          	mv	a1,a0
8300c888:	00003517          	auipc	a0,0x3
8300c88c:	1f852503          	lw	a0,504(a0) # 8300fa80 <_impure_ptr>
8300c890:	ffffa097          	auipc	ra,0xffffa
8300c894:	b54080e7          	jalr	-1196(ra) # 830063e4 <_write_r>
8300c898:	00c12083          	lw	ra,12(sp)
8300c89c:	01010113          	addi	sp,sp,16
8300c8a0:	00008067          	ret

8300c8a4 <open>:
8300c8a4:	fc010113          	addi	sp,sp,-64
8300c8a8:	00112e23          	sw	ra,28(sp)
8300c8ac:	02c12423          	sw	a2,40(sp)
8300c8b0:	02d12623          	sw	a3,44(sp)
8300c8b4:	02e12823          	sw	a4,48(sp)
8300c8b8:	02f12a23          	sw	a5,52(sp)
8300c8bc:	03012c23          	sw	a6,56(sp)
8300c8c0:	03112e23          	sw	a7,60(sp)
8300c8c4:	02810793          	addi	a5,sp,40
8300c8c8:	00f12623          	sw	a5,12(sp)
8300c8cc:	02c10793          	addi	a5,sp,44
8300c8d0:	00f12623          	sw	a5,12(sp)
8300c8d4:	00060693          	mv	a3,a2
8300c8d8:	00058613          	mv	a2,a1
8300c8dc:	00050593          	mv	a1,a0
8300c8e0:	00003517          	auipc	a0,0x3
8300c8e4:	1a052503          	lw	a0,416(a0) # 8300fa80 <_impure_ptr>
8300c8e8:	ffffa097          	auipc	ra,0xffffa
8300c8ec:	db4080e7          	jalr	-588(ra) # 8300669c <_open_r>
8300c8f0:	01c12083          	lw	ra,28(sp)
8300c8f4:	04010113          	addi	sp,sp,64
8300c8f8:	00008067          	ret

8300c8fc <gettimeofday>:
8300c8fc:	ff010113          	addi	sp,sp,-16
8300c900:	00112623          	sw	ra,12(sp)
8300c904:	00058613          	mv	a2,a1
8300c908:	00050593          	mv	a1,a0
8300c90c:	00003517          	auipc	a0,0x3
8300c910:	17452503          	lw	a0,372(a0) # 8300fa80 <_impure_ptr>
8300c914:	00000097          	auipc	ra,0x0
8300c918:	09c080e7          	jalr	156(ra) # 8300c9b0 <_gettimeofday_r>
8300c91c:	00c12083          	lw	ra,12(sp)
8300c920:	01010113          	addi	sp,sp,16
8300c924:	00008067          	ret

8300c928 <lseek>:
8300c928:	ff010113          	addi	sp,sp,-16
8300c92c:	00112623          	sw	ra,12(sp)
8300c930:	00060693          	mv	a3,a2
8300c934:	00058613          	mv	a2,a1
8300c938:	00050593          	mv	a1,a0
8300c93c:	00003517          	auipc	a0,0x3
8300c940:	14452503          	lw	a0,324(a0) # 8300fa80 <_impure_ptr>
8300c944:	ffffa097          	auipc	ra,0xffffa
8300c948:	af8080e7          	jalr	-1288(ra) # 8300643c <_lseek_r>
8300c94c:	00c12083          	lw	ra,12(sp)
8300c950:	01010113          	addi	sp,sp,16
8300c954:	00008067          	ret

8300c958 <close>:
8300c958:	ff010113          	addi	sp,sp,-16
8300c95c:	00112623          	sw	ra,12(sp)
8300c960:	00050593          	mv	a1,a0
8300c964:	00003517          	auipc	a0,0x3
8300c968:	11c52503          	lw	a0,284(a0) # 8300fa80 <_impure_ptr>
8300c96c:	ffffa097          	auipc	ra,0xffffa
8300c970:	9d4080e7          	jalr	-1580(ra) # 83006340 <_close_r>
8300c974:	00c12083          	lw	ra,12(sp)
8300c978:	01010113          	addi	sp,sp,16
8300c97c:	00008067          	ret

8300c980 <read>:
8300c980:	ff010113          	addi	sp,sp,-16
8300c984:	00112623          	sw	ra,12(sp)
8300c988:	00060693          	mv	a3,a2
8300c98c:	00058613          	mv	a2,a1
8300c990:	00050593          	mv	a1,a0
8300c994:	00003517          	auipc	a0,0x3
8300c998:	0ec52503          	lw	a0,236(a0) # 8300fa80 <_impure_ptr>
8300c99c:	ffffa097          	auipc	ra,0xffffa
8300c9a0:	af8080e7          	jalr	-1288(ra) # 83006494 <_read_r>
8300c9a4:	00c12083          	lw	ra,12(sp)
8300c9a8:	01010113          	addi	sp,sp,16
8300c9ac:	00008067          	ret

8300c9b0 <_gettimeofday_r>:
8300c9b0:	ff010113          	addi	sp,sp,-16
8300c9b4:	00112623          	sw	ra,12(sp)
8300c9b8:	00812423          	sw	s0,8(sp)
8300c9bc:	00050413          	mv	s0,a0
8300c9c0:	00058513          	mv	a0,a1
8300c9c4:	00003797          	auipc	a5,0x3
8300c9c8:	0e07a223          	sw	zero,228(a5) # 8300faa8 <errno>
8300c9cc:	00060593          	mv	a1,a2
8300c9d0:	00000097          	auipc	ra,0x0
8300c9d4:	b3c080e7          	jalr	-1220(ra) # 8300c50c <_gettimeofday>
8300c9d8:	fff00793          	li	a5,-1
8300c9dc:	00f50a63          	beq	a0,a5,8300c9f0 <_gettimeofday_r+0x40>
8300c9e0:	00c12083          	lw	ra,12(sp)
8300c9e4:	00812403          	lw	s0,8(sp)
8300c9e8:	01010113          	addi	sp,sp,16
8300c9ec:	00008067          	ret
8300c9f0:	00003797          	auipc	a5,0x3
8300c9f4:	0b87a783          	lw	a5,184(a5) # 8300faa8 <errno>
8300c9f8:	fe0784e3          	beqz	a5,8300c9e0 <_gettimeofday_r+0x30>
8300c9fc:	00f42023          	sw	a5,0(s0)
8300ca00:	fe1ff06f          	j	8300c9e0 <_gettimeofday_r+0x30>

8300ca04 <__libc_init_array>:
8300ca04:	ff010113          	addi	sp,sp,-16
8300ca08:	00112623          	sw	ra,12(sp)
8300ca0c:	00812423          	sw	s0,8(sp)
8300ca10:	00912223          	sw	s1,4(sp)
8300ca14:	00002497          	auipc	s1,0x2
8300ca18:	5ec48493          	addi	s1,s1,1516 # 8300f000 <items>
8300ca1c:	00002797          	auipc	a5,0x2
8300ca20:	5e478793          	addi	a5,a5,1508 # 8300f000 <items>
8300ca24:	40f484b3          	sub	s1,s1,a5
8300ca28:	4024d493          	srai	s1,s1,0x2
8300ca2c:	00000413          	li	s0,0
8300ca30:	0200006f          	j	8300ca50 <__libc_init_array+0x4c>
8300ca34:	00241713          	slli	a4,s0,0x2
8300ca38:	00002797          	auipc	a5,0x2
8300ca3c:	5c878793          	addi	a5,a5,1480 # 8300f000 <items>
8300ca40:	00e787b3          	add	a5,a5,a4
8300ca44:	0007a783          	lw	a5,0(a5)
8300ca48:	000780e7          	jalr	a5
8300ca4c:	00140413          	addi	s0,s0,1
8300ca50:	fe9462e3          	bltu	s0,s1,8300ca34 <__libc_init_array+0x30>
8300ca54:	00002497          	auipc	s1,0x2
8300ca58:	5ac48493          	addi	s1,s1,1452 # 8300f000 <items>
8300ca5c:	00002797          	auipc	a5,0x2
8300ca60:	5a478793          	addi	a5,a5,1444 # 8300f000 <items>
8300ca64:	40f484b3          	sub	s1,s1,a5
8300ca68:	4024d493          	srai	s1,s1,0x2
8300ca6c:	00000413          	li	s0,0
8300ca70:	0200006f          	j	8300ca90 <__libc_init_array+0x8c>
8300ca74:	00241713          	slli	a4,s0,0x2
8300ca78:	00002797          	auipc	a5,0x2
8300ca7c:	58878793          	addi	a5,a5,1416 # 8300f000 <items>
8300ca80:	00e787b3          	add	a5,a5,a4
8300ca84:	0007a783          	lw	a5,0(a5)
8300ca88:	000780e7          	jalr	a5
8300ca8c:	00140413          	addi	s0,s0,1
8300ca90:	fe9462e3          	bltu	s0,s1,8300ca74 <__libc_init_array+0x70>
8300ca94:	00c12083          	lw	ra,12(sp)
8300ca98:	00812403          	lw	s0,8(sp)
8300ca9c:	00412483          	lw	s1,4(sp)
8300caa0:	01010113          	addi	sp,sp,16
8300caa4:	00008067          	ret

8300caa8 <exit>:
8300caa8:	ff010113          	addi	sp,sp,-16
8300caac:	00112623          	sw	ra,12(sp)
8300cab0:	00812423          	sw	s0,8(sp)
8300cab4:	00050413          	mv	s0,a0
8300cab8:	00000593          	li	a1,0
8300cabc:	00000097          	auipc	ra,0x0
8300cac0:	028080e7          	jalr	40(ra) # 8300cae4 <__call_exitprocs>
8300cac4:	00003517          	auipc	a0,0x3
8300cac8:	f6052503          	lw	a0,-160(a0) # 8300fa24 <_global_impure_ptr>
8300cacc:	03c52783          	lw	a5,60(a0)
8300cad0:	00078463          	beqz	a5,8300cad8 <exit+0x30>
8300cad4:	000780e7          	jalr	a5
8300cad8:	00040513          	mv	a0,s0
8300cadc:	00000097          	auipc	ra,0x0
8300cae0:	8d8080e7          	jalr	-1832(ra) # 8300c3b4 <_exit>

8300cae4 <__call_exitprocs>:
8300cae4:	fe010113          	addi	sp,sp,-32
8300cae8:	00112e23          	sw	ra,28(sp)
8300caec:	00812c23          	sw	s0,24(sp)
8300caf0:	00912a23          	sw	s1,20(sp)
8300caf4:	01212823          	sw	s2,16(sp)
8300caf8:	01312623          	sw	s3,12(sp)
8300cafc:	01412423          	sw	s4,8(sp)
8300cb00:	01512223          	sw	s5,4(sp)
8300cb04:	01612023          	sw	s6,0(sp)
8300cb08:	00050a93          	mv	s5,a0
8300cb0c:	00058913          	mv	s2,a1
8300cb10:	00003a17          	auipc	s4,0x3
8300cb14:	f14a2a03          	lw	s4,-236(s4) # 8300fa24 <_global_impure_ptr>
8300cb18:	148a2483          	lw	s1,328(s4)
8300cb1c:	0c048863          	beqz	s1,8300cbec <__call_exitprocs+0x108>
8300cb20:	08848993          	addi	s3,s1,136
8300cb24:	0044a403          	lw	s0,4(s1)
8300cb28:	fff40413          	addi	s0,s0,-1
8300cb2c:	0240006f          	j	8300cb50 <__call_exitprocs+0x6c>
8300cb30:	00e4a223          	sw	a4,4(s1)
8300cb34:	0680006f          	j	8300cb9c <__call_exitprocs+0xb8>
8300cb38:	000680e7          	jalr	a3
8300cb3c:	0044a783          	lw	a5,4(s1)
8300cb40:	fd6798e3          	bne	a5,s6,8300cb10 <__call_exitprocs+0x2c>
8300cb44:	148a2783          	lw	a5,328(s4)
8300cb48:	fc9794e3          	bne	a5,s1,8300cb10 <__call_exitprocs+0x2c>
8300cb4c:	fff40413          	addi	s0,s0,-1
8300cb50:	08044e63          	bltz	s0,8300cbec <__call_exitprocs+0x108>
8300cb54:	00100793          	li	a5,1
8300cb58:	008797b3          	sll	a5,a5,s0
8300cb5c:	00090e63          	beqz	s2,8300cb78 <__call_exitprocs+0x94>
8300cb60:	fe0986e3          	beqz	s3,8300cb4c <__call_exitprocs+0x68>
8300cb64:	02040713          	addi	a4,s0,32
8300cb68:	00271713          	slli	a4,a4,0x2
8300cb6c:	00e48733          	add	a4,s1,a4
8300cb70:	08872703          	lw	a4,136(a4)
8300cb74:	fd271ce3          	bne	a4,s2,8300cb4c <__call_exitprocs+0x68>
8300cb78:	00241713          	slli	a4,s0,0x2
8300cb7c:	00e48733          	add	a4,s1,a4
8300cb80:	00872683          	lw	a3,8(a4)
8300cb84:	0044a703          	lw	a4,4(s1)
8300cb88:	fff70713          	addi	a4,a4,-1
8300cb8c:	fa8702e3          	beq	a4,s0,8300cb30 <__call_exitprocs+0x4c>
8300cb90:	00241713          	slli	a4,s0,0x2
8300cb94:	00e48733          	add	a4,s1,a4
8300cb98:	00072423          	sw	zero,8(a4)
8300cb9c:	fa0688e3          	beqz	a3,8300cb4c <__call_exitprocs+0x68>
8300cba0:	0044ab03          	lw	s6,4(s1)
8300cba4:	f8098ae3          	beqz	s3,8300cb38 <__call_exitprocs+0x54>
8300cba8:	1884a703          	lw	a4,392(s1)
8300cbac:	00f77733          	and	a4,a4,a5
8300cbb0:	f80704e3          	beqz	a4,8300cb38 <__call_exitprocs+0x54>
8300cbb4:	18c4a703          	lw	a4,396(s1)
8300cbb8:	00e7f7b3          	and	a5,a5,a4
8300cbbc:	00079e63          	bnez	a5,8300cbd8 <__call_exitprocs+0xf4>
8300cbc0:	00241793          	slli	a5,s0,0x2
8300cbc4:	00f487b3          	add	a5,s1,a5
8300cbc8:	0887a583          	lw	a1,136(a5)
8300cbcc:	000a8513          	mv	a0,s5
8300cbd0:	000680e7          	jalr	a3
8300cbd4:	f69ff06f          	j	8300cb3c <__call_exitprocs+0x58>
8300cbd8:	00241793          	slli	a5,s0,0x2
8300cbdc:	00f487b3          	add	a5,s1,a5
8300cbe0:	0887a503          	lw	a0,136(a5)
8300cbe4:	000680e7          	jalr	a3
8300cbe8:	f55ff06f          	j	8300cb3c <__call_exitprocs+0x58>
8300cbec:	01c12083          	lw	ra,28(sp)
8300cbf0:	01812403          	lw	s0,24(sp)
8300cbf4:	01412483          	lw	s1,20(sp)
8300cbf8:	01012903          	lw	s2,16(sp)
8300cbfc:	00c12983          	lw	s3,12(sp)
8300cc00:	00812a03          	lw	s4,8(sp)
8300cc04:	00412a83          	lw	s5,4(sp)
8300cc08:	00012b03          	lw	s6,0(sp)
8300cc0c:	02010113          	addi	sp,sp,32
8300cc10:	00008067          	ret
